
mitigated:     file format elf32-i386


Disassembly of section .init:

08049000 <_init>:
 8049000:	f3 0f 1e fb          	endbr32 
 8049004:	53                   	push   %ebx
 8049005:	83 ec 08             	sub    $0x8,%esp
 8049008:	e8 b3 00 00 00       	call   80490c0 <__x86.get_pc_thunk.bx>
 804900d:	81 c3 f3 bf 01 00    	add    $0x1bff3,%ebx
 8049013:	8b 83 fc ff ff ff    	mov    -0x4(%ebx),%eax
 8049019:	85 c0                	test   %eax,%eax
 804901b:	74 02                	je     804901f <_init+0x1f>
 804901d:	ff d0                	call   *%eax
 804901f:	83 c4 08             	add    $0x8,%esp
 8049022:	5b                   	pop    %ebx
 8049023:	c3                   	ret    

Disassembly of section .plt:

08049030 <.plt>:
 8049030:	ff 35 04 50 06 08    	pushl  0x8065004
 8049036:	ff 25 08 50 06 08    	jmp    *0x8065008
 804903c:	00 00                	add    %al,(%eax)
	...

08049040 <read@plt>:
 8049040:	ff 25 0c 50 06 08    	jmp    *0x806500c
 8049046:	68 00 00 00 00       	push   $0x0
 804904b:	e9 e0 ff ff ff       	jmp    8049030 <.plt>

08049050 <__libc_start_main@plt>:
 8049050:	ff 25 10 50 06 08    	jmp    *0x8065010
 8049056:	68 08 00 00 00       	push   $0x8
 804905b:	e9 d0 ff ff ff       	jmp    8049030 <.plt>

08049060 <write@plt>:
 8049060:	ff 25 14 50 06 08    	jmp    *0x8065014
 8049066:	68 10 00 00 00       	push   $0x10
 804906b:	e9 c0 ff ff ff       	jmp    8049030 <.plt>

Disassembly of section .text:

08049070 <_start>:
 8049070:	f3 0f 1e fb          	endbr32 
 8049074:	31 ed                	xor    %ebp,%ebp
 8049076:	5e                   	pop    %esi
 8049077:	89 e1                	mov    %esp,%ecx
 8049079:	83 e4 f0             	and    $0xfffffff0,%esp
 804907c:	50                   	push   %eax
 804907d:	54                   	push   %esp
 804907e:	52                   	push   %edx
 804907f:	e8 23 00 00 00       	call   80490a7 <_start+0x37>
 8049084:	81 c3 7c bf 01 00    	add    $0x1bf7c,%ebx
 804908a:	8d 83 e0 92 ff ff    	lea    -0x6d20(%ebx),%eax
 8049090:	50                   	push   %eax
 8049091:	8d 83 70 92 ff ff    	lea    -0x6d90(%ebx),%eax
 8049097:	50                   	push   %eax
 8049098:	51                   	push   %ecx
 8049099:	56                   	push   %esi
 804909a:	c7 c0 20 92 04 08    	mov    $0x8049220,%eax
 80490a0:	50                   	push   %eax
 80490a1:	e8 aa ff ff ff       	call   8049050 <__libc_start_main@plt>
 80490a6:	f4                   	hlt    
 80490a7:	8b 1c 24             	mov    (%esp),%ebx
 80490aa:	c3                   	ret    
 80490ab:	66 90                	xchg   %ax,%ax
 80490ad:	66 90                	xchg   %ax,%ax
 80490af:	90                   	nop

080490b0 <_dl_relocate_static_pie>:
 80490b0:	f3 0f 1e fb          	endbr32 
 80490b4:	c3                   	ret    
 80490b5:	66 90                	xchg   %ax,%ax
 80490b7:	66 90                	xchg   %ax,%ax
 80490b9:	66 90                	xchg   %ax,%ax
 80490bb:	66 90                	xchg   %ax,%ax
 80490bd:	66 90                	xchg   %ax,%ax
 80490bf:	90                   	nop

080490c0 <__x86.get_pc_thunk.bx>:
 80490c0:	8b 1c 24             	mov    (%esp),%ebx
 80490c3:	c3                   	ret    
 80490c4:	66 90                	xchg   %ax,%ax
 80490c6:	66 90                	xchg   %ax,%ax
 80490c8:	66 90                	xchg   %ax,%ax
 80490ca:	66 90                	xchg   %ax,%ax
 80490cc:	66 90                	xchg   %ax,%ax
 80490ce:	66 90                	xchg   %ax,%ax

080490d0 <deregister_tm_clones>:
 80490d0:	b8 20 50 06 08       	mov    $0x8065020,%eax
 80490d5:	3d 20 50 06 08       	cmp    $0x8065020,%eax
 80490da:	74 24                	je     8049100 <deregister_tm_clones+0x30>
 80490dc:	b8 00 00 00 00       	mov    $0x0,%eax
 80490e1:	85 c0                	test   %eax,%eax
 80490e3:	74 1b                	je     8049100 <deregister_tm_clones+0x30>
 80490e5:	55                   	push   %ebp
 80490e6:	89 e5                	mov    %esp,%ebp
 80490e8:	83 ec 14             	sub    $0x14,%esp
 80490eb:	68 20 50 06 08       	push   $0x8065020
 80490f0:	ff d0                	call   *%eax
 80490f2:	83 c4 10             	add    $0x10,%esp
 80490f5:	c9                   	leave  
 80490f6:	c3                   	ret    
 80490f7:	8d b4 26 00 00 00 00 	lea    0x0(%esi,%eiz,1),%esi
 80490fe:	66 90                	xchg   %ax,%ax
 8049100:	c3                   	ret    
 8049101:	8d b4 26 00 00 00 00 	lea    0x0(%esi,%eiz,1),%esi
 8049108:	8d b4 26 00 00 00 00 	lea    0x0(%esi,%eiz,1),%esi
 804910f:	90                   	nop

08049110 <register_tm_clones>:
 8049110:	b8 20 50 06 08       	mov    $0x8065020,%eax
 8049115:	2d 20 50 06 08       	sub    $0x8065020,%eax
 804911a:	89 c2                	mov    %eax,%edx
 804911c:	c1 e8 1f             	shr    $0x1f,%eax
 804911f:	c1 fa 02             	sar    $0x2,%edx
 8049122:	01 d0                	add    %edx,%eax
 8049124:	d1 f8                	sar    %eax
 8049126:	74 20                	je     8049148 <register_tm_clones+0x38>
 8049128:	ba 00 00 00 00       	mov    $0x0,%edx
 804912d:	85 d2                	test   %edx,%edx
 804912f:	74 17                	je     8049148 <register_tm_clones+0x38>
 8049131:	55                   	push   %ebp
 8049132:	89 e5                	mov    %esp,%ebp
 8049134:	83 ec 10             	sub    $0x10,%esp
 8049137:	50                   	push   %eax
 8049138:	68 20 50 06 08       	push   $0x8065020
 804913d:	ff d2                	call   *%edx
 804913f:	83 c4 10             	add    $0x10,%esp
 8049142:	c9                   	leave  
 8049143:	c3                   	ret    
 8049144:	8d 74 26 00          	lea    0x0(%esi,%eiz,1),%esi
 8049148:	c3                   	ret    
 8049149:	8d b4 26 00 00 00 00 	lea    0x0(%esi,%eiz,1),%esi

08049150 <__do_global_dtors_aux>:
 8049150:	f3 0f 1e fb          	endbr32 
 8049154:	80 3d 20 50 06 08 00 	cmpb   $0x0,0x8065020
 804915b:	75 1b                	jne    8049178 <__do_global_dtors_aux+0x28>
 804915d:	55                   	push   %ebp
 804915e:	89 e5                	mov    %esp,%ebp
 8049160:	83 ec 08             	sub    $0x8,%esp
 8049163:	e8 68 ff ff ff       	call   80490d0 <deregister_tm_clones>
 8049168:	c6 05 20 50 06 08 01 	movb   $0x1,0x8065020
 804916f:	c9                   	leave  
 8049170:	c3                   	ret    
 8049171:	8d b4 26 00 00 00 00 	lea    0x0(%esi,%eiz,1),%esi
 8049178:	c3                   	ret    
 8049179:	8d b4 26 00 00 00 00 	lea    0x0(%esi,%eiz,1),%esi

08049180 <frame_dummy>:
 8049180:	f3 0f 1e fb          	endbr32 
 8049184:	eb 8a                	jmp    8049110 <register_tm_clones>
 8049186:	66 90                	xchg   %ax,%ax
 8049188:	66 90                	xchg   %ax,%ax
 804918a:	66 90                	xchg   %ax,%ax
 804918c:	66 90                	xchg   %ax,%ax
 804918e:	66 90                	xchg   %ax,%ax

08049190 <uint32_t_secure_load>:
 8049190:	8b 44 24 04          	mov    0x4(%esp),%eax
 8049194:	8b 00                	mov    (%eax),%eax
 8049196:	c3                   	ret    
 8049197:	66 0f 1f 84 00 00 00 	nopw   0x0(%eax,%eax,1)
 804919e:	00 00 

080491a0 <uint16_t_secure_load>:
 80491a0:	8b 44 24 04          	mov    0x4(%esp),%eax
 80491a4:	0f b7 00             	movzwl (%eax),%eax
 80491a7:	c3                   	ret    
 80491a8:	0f 1f 84 00 00 00 00 	nopl   0x0(%eax,%eax,1)
 80491af:	00 

080491b0 <uint8_t_secure_load>:
 80491b0:	8b 44 24 04          	mov    0x4(%esp),%eax
 80491b4:	8a 00                	mov    (%eax),%al
 80491b6:	c3                   	ret    
 80491b7:	66 0f 1f 84 00 00 00 	nopw   0x0(%eax,%eax,1)
 80491be:	00 00 

080491c0 <uint64_t_secure_store>:
 80491c0:	8b 44 24 04          	mov    0x4(%esp),%eax
 80491c4:	8b 4c 24 08          	mov    0x8(%esp),%ecx
 80491c8:	8b 54 24 0c          	mov    0xc(%esp),%edx
 80491cc:	89 4a 04             	mov    %ecx,0x4(%edx)
 80491cf:	89 02                	mov    %eax,(%edx)
 80491d1:	c3                   	ret    
 80491d2:	66 66 66 66 66 2e 0f 	data16 data16 data16 data16 nopw %cs:0x0(%eax,%eax,1)
 80491d9:	1f 84 00 00 00 00 00 

080491e0 <uint32_t_secure_store>:
 80491e0:	8b 44 24 04          	mov    0x4(%esp),%eax
 80491e4:	8b 4c 24 08          	mov    0x8(%esp),%ecx
 80491e8:	89 01                	mov    %eax,(%ecx)
 80491ea:	c3                   	ret    
 80491eb:	0f 1f 44 00 00       	nopl   0x0(%eax,%eax,1)

080491f0 <uint16_t_secure_store>:
 80491f0:	0f b7 44 24 04       	movzwl 0x4(%esp),%eax
 80491f5:	8b 4c 24 08          	mov    0x8(%esp),%ecx
 80491f9:	66 89 01             	mov    %ax,(%ecx)
 80491fc:	c3                   	ret    
 80491fd:	0f 1f 00             	nopl   (%eax)

08049200 <uint8_t_secure_store>:
 8049200:	8a 44 24 04          	mov    0x4(%esp),%al
 8049204:	8b 4c 24 08          	mov    0x8(%esp),%ecx
 8049208:	88 01                	mov    %al,(%ecx)
 804920a:	c3                   	ret    
 804920b:	0f 1f 44 00 00       	nopl   0x0(%eax,%eax,1)

08049210 <branch_id>:
 8049210:	c3                   	ret    
 8049211:	66 66 66 66 66 66 2e 	data16 data16 data16 data16 data16 nopw %cs:0x0(%eax,%eax,1)
 8049218:	0f 1f 84 00 00 00 00 
 804921f:	00 

08049220 <main>:
 8049220:	55                   	push   %ebp
 8049221:	53                   	push   %ebx
 8049222:	57                   	push   %edi
 8049223:	56                   	push   %esi
 8049224:	81 ec 50 02 00 00    	sub    $0x250,%esp
 804922a:	6a 20                	push   $0x20
 804922c:	68 28 50 06 08       	push   $0x8065028
 8049231:	6a 00                	push   $0x0
 8049233:	e8 08 fe ff ff       	call   8049040 <read@plt>
 8049238:	83 c4 0c             	add    $0xc,%esp
 804923b:	6a 40                	push   $0x40
 804923d:	68 48 50 06 08       	push   $0x8065048
 8049242:	6a 00                	push   $0x0
 8049244:	e8 f7 fd ff ff       	call   8049040 <read@plt>
 8049249:	83 c4 10             	add    $0x10,%esp
 804924c:	a1 2c 50 06 08       	mov    0x806502c,%eax
 8049251:	89 84 24 c0 00 00 00 	mov    %eax,0xc0(%esp)
 8049258:	a1 28 50 06 08       	mov    0x8065028,%eax
 804925d:	89 44 24 0c          	mov    %eax,0xc(%esp)
 8049261:	a1 30 50 06 08       	mov    0x8065030,%eax
 8049266:	8b 0d 34 50 06 08    	mov    0x8065034,%ecx
 804926c:	89 8c 24 80 00 00 00 	mov    %ecx,0x80(%esp)
 8049273:	89 84 24 40 01 00 00 	mov    %eax,0x140(%esp)
 804927a:	c1 e8 15             	shr    $0x15,%eax
 804927d:	83 e0 f8             	and    $0xfffffff8,%eax
 8049280:	c5 f9 6e c0          	vmovd  %eax,%xmm0
 8049284:	c4 e2 79 58 c0       	vpbroadcastd %xmm0,%xmm0
 8049289:	c5 f1 ef c9          	vpxor  %xmm1,%xmm1,%xmm1
 804928d:	b9 80 fc ff ff       	mov    $0xfffffc80,%ecx
 8049292:	c5 e9 ef d2          	vpxor  %xmm2,%xmm2,%xmm2
 8049296:	66 2e 0f 1f 84 00 00 	nopw   %cs:0x0(%eax,%eax,1)
 804929d:	00 00 00 
 80492a0:	c5 fa 6f 99 8c 33 06 	vmovdqu 0x806338c(%ecx),%xmm3
 80492a7:	08 
 80492a8:	c5 fa 6f a1 9c 33 06 	vmovdqu 0x806339c(%ecx),%xmm4
 80492af:	08 
 80492b0:	c5 d5 76 ed          	vpcmpeqd %ymm5,%ymm5,%ymm5
 80492b4:	c4 e2 d5 90 34 1d 08 	vpgatherdq %ymm5,0x805f008(,%xmm3,1),%ymm6
 80492bb:	f0 05 08 
 80492be:	c5 d5 76 ed          	vpcmpeqd %ymm5,%ymm5,%ymm5
 80492c2:	c4 e2 d5 90 3c 25 08 	vpgatherdq %ymm5,0x805f008(,%xmm4,1),%ymm7
 80492c9:	f0 05 08 
 80492cc:	c5 f9 76 db          	vpcmpeqd %xmm3,%xmm0,%xmm3
 80492d0:	c4 e2 7d 25 db       	vpmovsxdq %xmm3,%ymm3
 80492d5:	c5 e5 db de          	vpand  %ymm6,%ymm3,%ymm3
 80492d9:	c5 e5 d4 c9          	vpaddq %ymm1,%ymm3,%ymm1
 80492dd:	c5 f9 76 dc          	vpcmpeqd %xmm4,%xmm0,%xmm3
 80492e1:	c4 e2 7d 25 db       	vpmovsxdq %xmm3,%ymm3
 80492e6:	c5 e5 db df          	vpand  %ymm7,%ymm3,%ymm3
 80492ea:	c5 e5 d4 d2          	vpaddq %ymm2,%ymm3,%ymm2
 80492ee:	c5 fa 6f 99 ac 33 06 	vmovdqu 0x80633ac(%ecx),%xmm3
 80492f5:	08 
 80492f6:	c5 fa 6f a1 bc 33 06 	vmovdqu 0x80633bc(%ecx),%xmm4
 80492fd:	08 
 80492fe:	c5 d5 76 ed          	vpcmpeqd %ymm5,%ymm5,%ymm5
 8049302:	c4 e2 d5 90 34 1d 08 	vpgatherdq %ymm5,0x805f008(,%xmm3,1),%ymm6
 8049309:	f0 05 08 
 804930c:	c5 d5 76 ed          	vpcmpeqd %ymm5,%ymm5,%ymm5
 8049310:	c4 e2 d5 90 3c 25 08 	vpgatherdq %ymm5,0x805f008(,%xmm4,1),%ymm7
 8049317:	f0 05 08 
 804931a:	c5 f9 76 db          	vpcmpeqd %xmm3,%xmm0,%xmm3
 804931e:	c4 e2 7d 25 db       	vpmovsxdq %xmm3,%ymm3
 8049323:	c5 e5 db de          	vpand  %ymm6,%ymm3,%ymm3
 8049327:	c5 f9 76 e4          	vpcmpeqd %xmm4,%xmm0,%xmm4
 804932b:	c4 e2 7d 25 e4       	vpmovsxdq %xmm4,%ymm4
 8049330:	c5 dd db e7          	vpand  %ymm7,%ymm4,%ymm4
 8049334:	c5 fa 6f a9 cc 33 06 	vmovdqu 0x80633cc(%ecx),%xmm5
 804933b:	08 
 804933c:	c5 cd 76 f6          	vpcmpeqd %ymm6,%ymm6,%ymm6
 8049340:	c4 e2 cd 90 3c 2d 08 	vpgatherdq %ymm6,0x805f008(,%xmm5,1),%ymm7
 8049347:	f0 05 08 
 804934a:	c5 f9 76 ed          	vpcmpeqd %xmm5,%xmm0,%xmm5
 804934e:	c4 e2 7d 25 ed       	vpmovsxdq %xmm5,%ymm5
 8049353:	c5 d5 db ef          	vpand  %ymm7,%ymm5,%ymm5
 8049357:	c5 fa 6f b1 dc 33 06 	vmovdqu 0x80633dc(%ecx),%xmm6
 804935e:	08 
 804935f:	c5 e5 d4 dd          	vpaddq %ymm5,%ymm3,%ymm3
 8049363:	c5 d5 76 ed          	vpcmpeqd %ymm5,%ymm5,%ymm5
 8049367:	c5 f5 d4 cb          	vpaddq %ymm3,%ymm1,%ymm1
 804936b:	c4 e2 d5 90 1c 35 08 	vpgatherdq %ymm5,0x805f008(,%xmm6,1),%ymm3
 8049372:	f0 05 08 
 8049375:	c5 f9 76 ee          	vpcmpeqd %xmm6,%xmm0,%xmm5
 8049379:	c4 e2 7d 25 ed       	vpmovsxdq %xmm5,%ymm5
 804937e:	c5 d5 db db          	vpand  %ymm3,%ymm5,%ymm3
 8049382:	c5 dd d4 db          	vpaddq %ymm3,%ymm4,%ymm3
 8049386:	c5 ed d4 d3          	vpaddq %ymm3,%ymm2,%ymm2
 804938a:	85 c9                	test   %ecx,%ecx
 804938c:	74 56                	je     80493e4 <main+0x1c4>
 804938e:	c5 fa 6f 99 ec 33 06 	vmovdqu 0x80633ec(%ecx),%xmm3
 8049395:	08 
 8049396:	c5 fa 6f a1 fc 33 06 	vmovdqu 0x80633fc(%ecx),%xmm4
 804939d:	08 
 804939e:	c5 d5 76 ed          	vpcmpeqd %ymm5,%ymm5,%ymm5
 80493a2:	c4 e2 d5 90 34 1d 08 	vpgatherdq %ymm5,0x805f008(,%xmm3,1),%ymm6
 80493a9:	f0 05 08 
 80493ac:	c5 d5 76 ed          	vpcmpeqd %ymm5,%ymm5,%ymm5
 80493b0:	c4 e2 d5 90 3c 25 08 	vpgatherdq %ymm5,0x805f008(,%xmm4,1),%ymm7
 80493b7:	f0 05 08 
 80493ba:	c5 f9 76 db          	vpcmpeqd %xmm3,%xmm0,%xmm3
 80493be:	c4 e2 7d 25 db       	vpmovsxdq %xmm3,%ymm3
 80493c3:	c5 e5 db de          	vpand  %ymm6,%ymm3,%ymm3
 80493c7:	c5 f9 76 e4          	vpcmpeqd %xmm4,%xmm0,%xmm4
 80493cb:	c4 e2 7d 25 e4       	vpmovsxdq %xmm4,%ymm4
 80493d0:	c5 dd db e7          	vpand  %ymm7,%ymm4,%ymm4
 80493d4:	c5 e5 d4 c9          	vpaddq %ymm1,%ymm3,%ymm1
 80493d8:	c5 dd d4 d2          	vpaddq %ymm2,%ymm4,%ymm2
 80493dc:	83 e9 80             	sub    $0xffffff80,%ecx
 80493df:	e9 bc fe ff ff       	jmp    80492a0 <main+0x80>
 80493e4:	be 10 b2 fb a2       	mov    $0xa2fbb210,%esi
 80493e9:	bf 49 82 79 eb       	mov    $0xeb798249,%edi
 80493ee:	c5 ed d4 c1          	vpaddq %ymm1,%ymm2,%ymm0
 80493f2:	c4 e3 7d 39 c1 01    	vextracti128 $0x1,%ymm0,%xmm1
 80493f8:	c5 f9 d4 c1          	vpaddq %xmm1,%xmm0,%xmm0
 80493fc:	c5 f9 70 c8 ee       	vpshufd $0xee,%xmm0,%xmm1
 8049401:	c5 f9 d4 c1          	vpaddq %xmm1,%xmm0,%xmm0
 8049405:	c5 f9 7e c1          	vmovd  %xmm0,%ecx
 8049409:	31 ed                	xor    %ebp,%ebp
 804940b:	3d c8 07 00 00       	cmp    $0x7c8,%eax
 8049410:	ba 00 00 00 00       	mov    $0x0,%edx
 8049415:	0f 44 d6             	cmove  %esi,%edx
 8049418:	be 00 00 00 00       	mov    $0x0,%esi
 804941d:	0f 44 f7             	cmove  %edi,%esi
 8049420:	01 ce                	add    %ecx,%esi
 8049422:	c4 e3 79 16 c1 01    	vpextrd $0x1,%xmm0,%ecx
 8049428:	11 ca                	adc    %ecx,%edx
 804942a:	bf ba 3a 9d 80       	mov    $0x809d3aba,%edi
 804942f:	3d d0 07 00 00       	cmp    $0x7d0,%eax
 8049434:	b9 00 00 00 00       	mov    $0x0,%ecx
 8049439:	0f 44 cf             	cmove  %edi,%ecx
 804943c:	bb a7 e9 74 27       	mov    $0x2774e9a7,%ebx
 8049441:	bf 00 00 00 00       	mov    $0x0,%edi
 8049446:	0f 44 fb             	cmove  %ebx,%edi
 8049449:	01 f7                	add    %esi,%edi
 804944b:	11 d1                	adc    %edx,%ecx
 804944d:	3d d8 07 00 00       	cmp    $0x7d8,%eax
 8049452:	be 6e 21 d1 4f       	mov    $0x4fd1216e,%esi
 8049457:	ba 00 00 00 00       	mov    $0x0,%edx
 804945c:	0f 44 d6             	cmove  %esi,%edx
 804945f:	bb f0 93 42 bf       	mov    $0xbf4293f0,%ebx
 8049464:	be 00 00 00 00       	mov    $0x0,%esi
 8049469:	0f 44 f3             	cmove  %ebx,%esi
 804946c:	01 fe                	add    %edi,%esi
 804946e:	11 ca                	adc    %ecx,%edx
 8049470:	3d e0 07 00 00       	cmp    $0x7e0,%eax
 8049475:	bf 63 7c 21 1f       	mov    $0x1f217c63,%edi
 804947a:	b9 00 00 00 00       	mov    $0x0,%ecx
 804947f:	0f 44 cf             	cmove  %edi,%ecx
 8049482:	bb 5d d9 f8 42       	mov    $0x42f8d95d,%ebx
 8049487:	bf 00 00 00 00       	mov    $0x0,%edi
 804948c:	0f 44 fb             	cmove  %ebx,%edi
 804948f:	01 f7                	add    %esi,%edi
 8049491:	11 d1                	adc    %edx,%ecx
 8049493:	3d e8 07 00 00       	cmp    $0x7e8,%eax
 8049498:	be c5 0f 43 ca       	mov    $0xca430fc5,%esi
 804949d:	ba 00 00 00 00       	mov    $0x0,%edx
 80494a2:	0f 44 d6             	cmove  %esi,%edx
 80494a5:	bb 4c 5d 1e 86       	mov    $0x861e5d4c,%ebx
 80494aa:	be 00 00 00 00       	mov    $0x0,%esi
 80494af:	0f 44 f3             	cmove  %ebx,%esi
 80494b2:	01 fe                	add    %edi,%esi
 80494b4:	11 ca                	adc    %ecx,%edx
 80494b6:	3d f0 07 00 00       	cmp    $0x7f0,%eax
 80494bb:	bf 38 92 e3 aa       	mov    $0xaae39238,%edi
 80494c0:	b9 00 00 00 00       	mov    $0x0,%ecx
 80494c5:	0f 44 cf             	cmove  %edi,%ecx
 80494c8:	bb 71 da 39 db       	mov    $0xdb39da71,%ebx
 80494cd:	bf 00 00 00 00       	mov    $0x0,%edi
 80494d2:	0f 44 fb             	cmove  %ebx,%edi
 80494d5:	01 f7                	add    %esi,%edi
 80494d7:	11 d1                	adc    %edx,%ecx
 80494d9:	3d f8 07 00 00       	cmp    $0x7f8,%eax
 80494de:	b8 57 15 c6 42       	mov    $0x42c61557,%eax
 80494e3:	ba 00 00 00 00       	mov    $0x0,%edx
 80494e8:	0f 44 d0             	cmove  %eax,%edx
 80494eb:	b8 d3 ec 2a 91       	mov    $0x912aecd3,%eax
 80494f0:	0f 44 e8             	cmove  %eax,%ebp
 80494f3:	01 fd                	add    %edi,%ebp
 80494f5:	89 6c 24 20          	mov    %ebp,0x20(%esp)
 80494f9:	11 ca                	adc    %ecx,%edx
 80494fb:	89 54 24 40          	mov    %edx,0x40(%esp)
 80494ff:	8b 84 24 40 01 00 00 	mov    0x140(%esp),%eax
 8049506:	c1 e8 0d             	shr    $0xd,%eax
 8049509:	25 f8 07 00 00       	and    $0x7f8,%eax
 804950e:	c5 f9 6e c0          	vmovd  %eax,%xmm0
 8049512:	c4 e2 79 58 c0       	vpbroadcastd %xmm0,%xmm0
 8049517:	c5 f1 ef c9          	vpxor  %xmm1,%xmm1,%xmm1
 804951b:	c5 e9 ef d2          	vpxor  %xmm2,%xmm2,%xmm2
 804951f:	b9 80 fc ff ff       	mov    $0xfffffc80,%ecx
 8049524:	66 66 66 2e 0f 1f 84 	data16 data16 nopw %cs:0x0(%eax,%eax,1)
 804952b:	00 00 00 00 00 
 8049530:	c5 fa 6f 99 8c 33 06 	vmovdqu 0x806338c(%ecx),%xmm3
 8049537:	08 
 8049538:	c5 fa 6f a1 9c 33 06 	vmovdqu 0x806339c(%ecx),%xmm4
 804953f:	08 
 8049540:	c5 d5 76 ed          	vpcmpeqd %ymm5,%ymm5,%ymm5
 8049544:	c4 e2 d5 90 34 1d 08 	vpgatherdq %ymm5,0x805f808(,%xmm3,1),%ymm6
 804954b:	f8 05 08 
 804954e:	c5 d5 76 ed          	vpcmpeqd %ymm5,%ymm5,%ymm5
 8049552:	c4 e2 d5 90 3c 25 08 	vpgatherdq %ymm5,0x805f808(,%xmm4,1),%ymm7
 8049559:	f8 05 08 
 804955c:	c5 f9 76 db          	vpcmpeqd %xmm3,%xmm0,%xmm3
 8049560:	c4 e2 7d 25 db       	vpmovsxdq %xmm3,%ymm3
 8049565:	c5 e5 db de          	vpand  %ymm6,%ymm3,%ymm3
 8049569:	c5 e5 d4 c9          	vpaddq %ymm1,%ymm3,%ymm1
 804956d:	c5 f9 76 dc          	vpcmpeqd %xmm4,%xmm0,%xmm3
 8049571:	c4 e2 7d 25 db       	vpmovsxdq %xmm3,%ymm3
 8049576:	c5 e5 db df          	vpand  %ymm7,%ymm3,%ymm3
 804957a:	c5 e5 d4 d2          	vpaddq %ymm2,%ymm3,%ymm2
 804957e:	c5 fa 6f 99 ac 33 06 	vmovdqu 0x80633ac(%ecx),%xmm3
 8049585:	08 
 8049586:	c5 fa 6f a1 bc 33 06 	vmovdqu 0x80633bc(%ecx),%xmm4
 804958d:	08 
 804958e:	c5 d5 76 ed          	vpcmpeqd %ymm5,%ymm5,%ymm5
 8049592:	c4 e2 d5 90 34 1d 08 	vpgatherdq %ymm5,0x805f808(,%xmm3,1),%ymm6
 8049599:	f8 05 08 
 804959c:	c5 d5 76 ed          	vpcmpeqd %ymm5,%ymm5,%ymm5
 80495a0:	c4 e2 d5 90 3c 25 08 	vpgatherdq %ymm5,0x805f808(,%xmm4,1),%ymm7
 80495a7:	f8 05 08 
 80495aa:	c5 f9 76 db          	vpcmpeqd %xmm3,%xmm0,%xmm3
 80495ae:	c4 e2 7d 25 db       	vpmovsxdq %xmm3,%ymm3
 80495b3:	c5 e5 db de          	vpand  %ymm6,%ymm3,%ymm3
 80495b7:	c5 f9 76 e4          	vpcmpeqd %xmm4,%xmm0,%xmm4
 80495bb:	c4 e2 7d 25 e4       	vpmovsxdq %xmm4,%ymm4
 80495c0:	c5 dd db e7          	vpand  %ymm7,%ymm4,%ymm4
 80495c4:	c5 fa 6f a9 cc 33 06 	vmovdqu 0x80633cc(%ecx),%xmm5
 80495cb:	08 
 80495cc:	c5 cd 76 f6          	vpcmpeqd %ymm6,%ymm6,%ymm6
 80495d0:	c4 e2 cd 90 3c 2d 08 	vpgatherdq %ymm6,0x805f808(,%xmm5,1),%ymm7
 80495d7:	f8 05 08 
 80495da:	c5 f9 76 ed          	vpcmpeqd %xmm5,%xmm0,%xmm5
 80495de:	c4 e2 7d 25 ed       	vpmovsxdq %xmm5,%ymm5
 80495e3:	c5 d5 db ef          	vpand  %ymm7,%ymm5,%ymm5
 80495e7:	c5 fa 6f b1 dc 33 06 	vmovdqu 0x80633dc(%ecx),%xmm6
 80495ee:	08 
 80495ef:	c5 e5 d4 dd          	vpaddq %ymm5,%ymm3,%ymm3
 80495f3:	c5 d5 76 ed          	vpcmpeqd %ymm5,%ymm5,%ymm5
 80495f7:	c5 f5 d4 cb          	vpaddq %ymm3,%ymm1,%ymm1
 80495fb:	c4 e2 d5 90 1c 35 08 	vpgatherdq %ymm5,0x805f808(,%xmm6,1),%ymm3
 8049602:	f8 05 08 
 8049605:	c5 f9 76 ee          	vpcmpeqd %xmm6,%xmm0,%xmm5
 8049609:	c4 e2 7d 25 ed       	vpmovsxdq %xmm5,%ymm5
 804960e:	c5 d5 db db          	vpand  %ymm3,%ymm5,%ymm3
 8049612:	c5 dd d4 db          	vpaddq %ymm3,%ymm4,%ymm3
 8049616:	c5 ed d4 d3          	vpaddq %ymm3,%ymm2,%ymm2
 804961a:	85 c9                	test   %ecx,%ecx
 804961c:	74 56                	je     8049674 <main+0x454>
 804961e:	c5 fa 6f 99 ec 33 06 	vmovdqu 0x80633ec(%ecx),%xmm3
 8049625:	08 
 8049626:	c5 fa 6f a1 fc 33 06 	vmovdqu 0x80633fc(%ecx),%xmm4
 804962d:	08 
 804962e:	c5 d5 76 ed          	vpcmpeqd %ymm5,%ymm5,%ymm5
 8049632:	c4 e2 d5 90 34 1d 08 	vpgatherdq %ymm5,0x805f808(,%xmm3,1),%ymm6
 8049639:	f8 05 08 
 804963c:	c5 d5 76 ed          	vpcmpeqd %ymm5,%ymm5,%ymm5
 8049640:	c4 e2 d5 90 3c 25 08 	vpgatherdq %ymm5,0x805f808(,%xmm4,1),%ymm7
 8049647:	f8 05 08 
 804964a:	c5 f9 76 db          	vpcmpeqd %xmm3,%xmm0,%xmm3
 804964e:	c4 e2 7d 25 db       	vpmovsxdq %xmm3,%ymm3
 8049653:	c5 e5 db de          	vpand  %ymm6,%ymm3,%ymm3
 8049657:	c5 f9 76 e4          	vpcmpeqd %xmm4,%xmm0,%xmm4
 804965b:	c4 e2 7d 25 e4       	vpmovsxdq %xmm4,%ymm4
 8049660:	c5 dd db e7          	vpand  %ymm7,%ymm4,%ymm4
 8049664:	c5 e5 d4 c9          	vpaddq %ymm1,%ymm3,%ymm1
 8049668:	c5 dd d4 d2          	vpaddq %ymm2,%ymm4,%ymm2
 804966c:	83 e9 80             	sub    $0xffffff80,%ecx
 804966f:	e9 bc fe ff ff       	jmp    8049530 <main+0x310>
 8049674:	be b2 10 a2 fb       	mov    $0xfba210b2,%esi
 8049679:	bf 82 49 eb 79       	mov    $0x79eb4982,%edi
 804967e:	c5 ed d4 c1          	vpaddq %ymm1,%ymm2,%ymm0
 8049682:	c4 e3 7d 39 c1 01    	vextracti128 $0x1,%ymm0,%xmm1
 8049688:	c5 f9 d4 c1          	vpaddq %xmm1,%xmm0,%xmm0
 804968c:	c5 f9 70 c8 ee       	vpshufd $0xee,%xmm0,%xmm1
 8049691:	c5 f9 d4 c1          	vpaddq %xmm1,%xmm0,%xmm0
 8049695:	c5 f9 7e c1          	vmovd  %xmm0,%ecx
 8049699:	31 ed                	xor    %ebp,%ebp
 804969b:	3d c8 07 00 00       	cmp    $0x7c8,%eax
 80496a0:	ba 00 00 00 00       	mov    $0x0,%edx
 80496a5:	0f 44 d6             	cmove  %esi,%edx
 80496a8:	be 00 00 00 00       	mov    $0x0,%esi
 80496ad:	0f 44 f7             	cmove  %edi,%esi
 80496b0:	01 ce                	add    %ecx,%esi
 80496b2:	c4 e3 79 16 c1 01    	vpextrd $0x1,%xmm0,%ecx
 80496b8:	11 ca                	adc    %ecx,%edx
 80496ba:	bf 3a ba 80 9d       	mov    $0x9d80ba3a,%edi
 80496bf:	3d d0 07 00 00       	cmp    $0x7d0,%eax
 80496c4:	b9 00 00 00 00       	mov    $0x0,%ecx
 80496c9:	0f 44 cf             	cmove  %edi,%ecx
 80496cc:	bb e9 a7 27 74       	mov    $0x7427a7e9,%ebx
 80496d1:	bf 00 00 00 00       	mov    $0x0,%edi
 80496d6:	0f 44 fb             	cmove  %ebx,%edi
 80496d9:	01 f7                	add    %esi,%edi
 80496db:	11 d1                	adc    %edx,%ecx
 80496dd:	3d d8 07 00 00       	cmp    $0x7d8,%eax
 80496e2:	be 21 6e 4f d1       	mov    $0xd14f6e21,%esi
 80496e7:	ba 00 00 00 00       	mov    $0x0,%edx
 80496ec:	0f 44 d6             	cmove  %esi,%edx
 80496ef:	bb 93 f0 bf 42       	mov    $0x42bff093,%ebx
 80496f4:	be 00 00 00 00       	mov    $0x0,%esi
 80496f9:	0f 44 f3             	cmove  %ebx,%esi
 80496fc:	01 fe                	add    %edi,%esi
 80496fe:	11 ca                	adc    %ecx,%edx
 8049700:	3d e0 07 00 00       	cmp    $0x7e0,%eax
 8049705:	bf 7c 63 1f 21       	mov    $0x211f637c,%edi
 804970a:	b9 00 00 00 00       	mov    $0x0,%ecx
 804970f:	0f 44 cf             	cmove  %edi,%ecx
 8049712:	bb d9 5d 42 f8       	mov    $0xf8425dd9,%ebx
 8049717:	bf 00 00 00 00       	mov    $0x0,%edi
 804971c:	0f 44 fb             	cmove  %ebx,%edi
 804971f:	01 f7                	add    %esi,%edi
 8049721:	11 d1                	adc    %edx,%ecx
 8049723:	3d e8 07 00 00       	cmp    $0x7e8,%eax
 8049728:	be 0f c5 ca 43       	mov    $0x43cac50f,%esi
 804972d:	ba 00 00 00 00       	mov    $0x0,%edx
 8049732:	0f 44 d6             	cmove  %esi,%edx
 8049735:	bb 5d 4c 86 1e       	mov    $0x1e864c5d,%ebx
 804973a:	be 00 00 00 00       	mov    $0x0,%esi
 804973f:	0f 44 f3             	cmove  %ebx,%esi
 8049742:	01 fe                	add    %edi,%esi
 8049744:	11 ca                	adc    %ecx,%edx
 8049746:	3d f0 07 00 00       	cmp    $0x7f0,%eax
 804974b:	bf 92 38 aa e3       	mov    $0xe3aa3892,%edi
 8049750:	b9 00 00 00 00       	mov    $0x0,%ecx
 8049755:	0f 44 cf             	cmove  %edi,%ecx
 8049758:	bb da 71 db 39       	mov    $0x39db71da,%ebx
 804975d:	bf 00 00 00 00       	mov    $0x0,%edi
 8049762:	0f 44 fb             	cmove  %ebx,%edi
 8049765:	01 f7                	add    %esi,%edi
 8049767:	11 d1                	adc    %edx,%ecx
 8049769:	3d f8 07 00 00       	cmp    $0x7f8,%eax
 804976e:	b8 15 57 42 c6       	mov    $0xc6425715,%eax
 8049773:	ba 00 00 00 00       	mov    $0x0,%edx
 8049778:	0f 44 d0             	cmove  %eax,%edx
 804977b:	b8 ec d3 91 2a       	mov    $0x2a91d3ec,%eax
 8049780:	0f 44 e8             	cmove  %eax,%ebp
 8049783:	01 fd                	add    %edi,%ebp
 8049785:	89 ac 24 00 01 00 00 	mov    %ebp,0x100(%esp)
 804978c:	11 ca                	adc    %ecx,%edx
 804978e:	89 94 24 20 01 00 00 	mov    %edx,0x120(%esp)
 8049795:	8b 84 24 40 01 00 00 	mov    0x140(%esp),%eax
 804979c:	c1 e8 05             	shr    $0x5,%eax
 804979f:	25 f8 07 00 00       	and    $0x7f8,%eax
 80497a4:	c5 f9 6e c0          	vmovd  %eax,%xmm0
 80497a8:	c4 e2 79 58 c0       	vpbroadcastd %xmm0,%xmm0
 80497ad:	c5 f1 ef c9          	vpxor  %xmm1,%xmm1,%xmm1
 80497b1:	c5 e9 ef d2          	vpxor  %xmm2,%xmm2,%xmm2
 80497b5:	b9 80 fc ff ff       	mov    $0xfffffc80,%ecx
 80497ba:	66 0f 1f 44 00 00    	nopw   0x0(%eax,%eax,1)
 80497c0:	c5 fa 6f 99 8c 33 06 	vmovdqu 0x806338c(%ecx),%xmm3
 80497c7:	08 
 80497c8:	c5 fa 6f a1 9c 33 06 	vmovdqu 0x806339c(%ecx),%xmm4
 80497cf:	08 
 80497d0:	c5 d5 76 ed          	vpcmpeqd %ymm5,%ymm5,%ymm5
 80497d4:	c4 e2 d5 90 34 1d 08 	vpgatherdq %ymm5,0x8060008(,%xmm3,1),%ymm6
 80497db:	00 06 08 
 80497de:	c5 d5 76 ed          	vpcmpeqd %ymm5,%ymm5,%ymm5
 80497e2:	c4 e2 d5 90 3c 25 08 	vpgatherdq %ymm5,0x8060008(,%xmm4,1),%ymm7
 80497e9:	00 06 08 
 80497ec:	c5 f9 76 db          	vpcmpeqd %xmm3,%xmm0,%xmm3
 80497f0:	c4 e2 7d 25 db       	vpmovsxdq %xmm3,%ymm3
 80497f5:	c5 e5 db de          	vpand  %ymm6,%ymm3,%ymm3
 80497f9:	c5 e5 d4 c9          	vpaddq %ymm1,%ymm3,%ymm1
 80497fd:	c5 f9 76 dc          	vpcmpeqd %xmm4,%xmm0,%xmm3
 8049801:	c4 e2 7d 25 db       	vpmovsxdq %xmm3,%ymm3
 8049806:	c5 e5 db df          	vpand  %ymm7,%ymm3,%ymm3
 804980a:	c5 e5 d4 d2          	vpaddq %ymm2,%ymm3,%ymm2
 804980e:	c5 fa 6f 99 ac 33 06 	vmovdqu 0x80633ac(%ecx),%xmm3
 8049815:	08 
 8049816:	c5 fa 6f a1 bc 33 06 	vmovdqu 0x80633bc(%ecx),%xmm4
 804981d:	08 
 804981e:	c5 d5 76 ed          	vpcmpeqd %ymm5,%ymm5,%ymm5
 8049822:	c4 e2 d5 90 34 1d 08 	vpgatherdq %ymm5,0x8060008(,%xmm3,1),%ymm6
 8049829:	00 06 08 
 804982c:	c5 d5 76 ed          	vpcmpeqd %ymm5,%ymm5,%ymm5
 8049830:	c4 e2 d5 90 3c 25 08 	vpgatherdq %ymm5,0x8060008(,%xmm4,1),%ymm7
 8049837:	00 06 08 
 804983a:	c5 f9 76 db          	vpcmpeqd %xmm3,%xmm0,%xmm3
 804983e:	c4 e2 7d 25 db       	vpmovsxdq %xmm3,%ymm3
 8049843:	c5 e5 db de          	vpand  %ymm6,%ymm3,%ymm3
 8049847:	c5 f9 76 e4          	vpcmpeqd %xmm4,%xmm0,%xmm4
 804984b:	c4 e2 7d 25 e4       	vpmovsxdq %xmm4,%ymm4
 8049850:	c5 dd db e7          	vpand  %ymm7,%ymm4,%ymm4
 8049854:	c5 fa 6f a9 cc 33 06 	vmovdqu 0x80633cc(%ecx),%xmm5
 804985b:	08 
 804985c:	c5 cd 76 f6          	vpcmpeqd %ymm6,%ymm6,%ymm6
 8049860:	c4 e2 cd 90 3c 2d 08 	vpgatherdq %ymm6,0x8060008(,%xmm5,1),%ymm7
 8049867:	00 06 08 
 804986a:	c5 f9 76 ed          	vpcmpeqd %xmm5,%xmm0,%xmm5
 804986e:	c4 e2 7d 25 ed       	vpmovsxdq %xmm5,%ymm5
 8049873:	c5 d5 db ef          	vpand  %ymm7,%ymm5,%ymm5
 8049877:	c5 fa 6f b1 dc 33 06 	vmovdqu 0x80633dc(%ecx),%xmm6
 804987e:	08 
 804987f:	c5 e5 d4 dd          	vpaddq %ymm5,%ymm3,%ymm3
 8049883:	c5 d5 76 ed          	vpcmpeqd %ymm5,%ymm5,%ymm5
 8049887:	c5 f5 d4 cb          	vpaddq %ymm3,%ymm1,%ymm1
 804988b:	c4 e2 d5 90 1c 35 08 	vpgatherdq %ymm5,0x8060008(,%xmm6,1),%ymm3
 8049892:	00 06 08 
 8049895:	c5 f9 76 ee          	vpcmpeqd %xmm6,%xmm0,%xmm5
 8049899:	c4 e2 7d 25 ed       	vpmovsxdq %xmm5,%ymm5
 804989e:	c5 d5 db db          	vpand  %ymm3,%ymm5,%ymm3
 80498a2:	c5 dd d4 db          	vpaddq %ymm3,%ymm4,%ymm3
 80498a6:	c5 ed d4 d3          	vpaddq %ymm3,%ymm2,%ymm2
 80498aa:	85 c9                	test   %ecx,%ecx
 80498ac:	74 56                	je     8049904 <main+0x6e4>
 80498ae:	c5 fa 6f 99 ec 33 06 	vmovdqu 0x80633ec(%ecx),%xmm3
 80498b5:	08 
 80498b6:	c5 fa 6f a1 fc 33 06 	vmovdqu 0x80633fc(%ecx),%xmm4
 80498bd:	08 
 80498be:	c5 d5 76 ed          	vpcmpeqd %ymm5,%ymm5,%ymm5
 80498c2:	c4 e2 d5 90 34 1d 08 	vpgatherdq %ymm5,0x8060008(,%xmm3,1),%ymm6
 80498c9:	00 06 08 
 80498cc:	c5 d5 76 ed          	vpcmpeqd %ymm5,%ymm5,%ymm5
 80498d0:	c4 e2 d5 90 3c 25 08 	vpgatherdq %ymm5,0x8060008(,%xmm4,1),%ymm7
 80498d7:	00 06 08 
 80498da:	c5 f9 76 db          	vpcmpeqd %xmm3,%xmm0,%xmm3
 80498de:	c4 e2 7d 25 db       	vpmovsxdq %xmm3,%ymm3
 80498e3:	c5 e5 db de          	vpand  %ymm6,%ymm3,%ymm3
 80498e7:	c5 f9 76 e4          	vpcmpeqd %xmm4,%xmm0,%xmm4
 80498eb:	c4 e2 7d 25 e4       	vpmovsxdq %xmm4,%ymm4
 80498f0:	c5 dd db e7          	vpand  %ymm7,%ymm4,%ymm4
 80498f4:	c5 e5 d4 c9          	vpaddq %ymm1,%ymm3,%ymm1
 80498f8:	c5 dd d4 d2          	vpaddq %ymm2,%ymm4,%ymm2
 80498fc:	83 e9 80             	sub    $0xffffff80,%ecx
 80498ff:	e9 bc fe ff ff       	jmp    80497c0 <main+0x5a0>
 8049904:	be fb a2 10 b2       	mov    $0xb210a2fb,%esi
 8049909:	bf 79 eb 49 82       	mov    $0x8249eb79,%edi
 804990e:	c5 ed d4 c1          	vpaddq %ymm1,%ymm2,%ymm0
 8049912:	c4 e3 7d 39 c1 01    	vextracti128 $0x1,%ymm0,%xmm1
 8049918:	c5 f9 d4 c1          	vpaddq %xmm1,%xmm0,%xmm0
 804991c:	c5 f9 70 c8 ee       	vpshufd $0xee,%xmm0,%xmm1
 8049921:	c5 f9 d4 c1          	vpaddq %xmm1,%xmm0,%xmm0
 8049925:	c5 f9 7e c1          	vmovd  %xmm0,%ecx
 8049929:	31 ed                	xor    %ebp,%ebp
 804992b:	3d c8 07 00 00       	cmp    $0x7c8,%eax
 8049930:	ba 00 00 00 00       	mov    $0x0,%edx
 8049935:	0f 44 d6             	cmove  %esi,%edx
 8049938:	be 00 00 00 00       	mov    $0x0,%esi
 804993d:	0f 44 f7             	cmove  %edi,%esi
 8049940:	01 ce                	add    %ecx,%esi
 8049942:	c4 e3 79 16 c1 01    	vpextrd $0x1,%xmm0,%ecx
 8049948:	11 ca                	adc    %ecx,%edx
 804994a:	bf 9d 80 ba 3a       	mov    $0x3aba809d,%edi
 804994f:	3d d0 07 00 00       	cmp    $0x7d0,%eax
 8049954:	b9 00 00 00 00       	mov    $0x0,%ecx
 8049959:	0f 44 cf             	cmove  %edi,%ecx
 804995c:	bb 74 27 a7 e9       	mov    $0xe9a72774,%ebx
 8049961:	bf 00 00 00 00       	mov    $0x0,%edi
 8049966:	0f 44 fb             	cmove  %ebx,%edi
 8049969:	01 f7                	add    %esi,%edi
 804996b:	11 d1                	adc    %edx,%ecx
 804996d:	3d d8 07 00 00       	cmp    $0x7d8,%eax
 8049972:	be d1 4f 6e 21       	mov    $0x216e4fd1,%esi
 8049977:	ba 00 00 00 00       	mov    $0x0,%edx
 804997c:	0f 44 d6             	cmove  %esi,%edx
 804997f:	bb 42 bf f0 93       	mov    $0x93f0bf42,%ebx
 8049984:	be 00 00 00 00       	mov    $0x0,%esi
 8049989:	0f 44 f3             	cmove  %ebx,%esi
 804998c:	01 fe                	add    %edi,%esi
 804998e:	11 ca                	adc    %ecx,%edx
 8049990:	3d e0 07 00 00       	cmp    $0x7e0,%eax
 8049995:	bf 21 1f 63 7c       	mov    $0x7c631f21,%edi
 804999a:	b9 00 00 00 00       	mov    $0x0,%ecx
 804999f:	0f 44 cf             	cmove  %edi,%ecx
 80499a2:	bb f8 42 5d d9       	mov    $0xd95d42f8,%ebx
 80499a7:	bf 00 00 00 00       	mov    $0x0,%edi
 80499ac:	0f 44 fb             	cmove  %ebx,%edi
 80499af:	01 f7                	add    %esi,%edi
 80499b1:	11 d1                	adc    %edx,%ecx
 80499b3:	3d e8 07 00 00       	cmp    $0x7e8,%eax
 80499b8:	be 43 ca c5 0f       	mov    $0xfc5ca43,%esi
 80499bd:	ba 00 00 00 00       	mov    $0x0,%edx
 80499c2:	0f 44 d6             	cmove  %esi,%edx
 80499c5:	bb 1e 86 4c 5d       	mov    $0x5d4c861e,%ebx
 80499ca:	be 00 00 00 00       	mov    $0x0,%esi
 80499cf:	0f 44 f3             	cmove  %ebx,%esi
 80499d2:	01 fe                	add    %edi,%esi
 80499d4:	11 ca                	adc    %ecx,%edx
 80499d6:	3d f0 07 00 00       	cmp    $0x7f0,%eax
 80499db:	bf e3 aa 38 92       	mov    $0x9238aae3,%edi
 80499e0:	b9 00 00 00 00       	mov    $0x0,%ecx
 80499e5:	0f 44 cf             	cmove  %edi,%ecx
 80499e8:	bb 39 db 71 da       	mov    $0xda71db39,%ebx
 80499ed:	bf 00 00 00 00       	mov    $0x0,%edi
 80499f2:	0f 44 fb             	cmove  %ebx,%edi
 80499f5:	01 f7                	add    %esi,%edi
 80499f7:	11 d1                	adc    %edx,%ecx
 80499f9:	3d f8 07 00 00       	cmp    $0x7f8,%eax
 80499fe:	b8 c6 42 57 15       	mov    $0x155742c6,%eax
 8049a03:	ba 00 00 00 00       	mov    $0x0,%edx
 8049a08:	0f 44 d0             	cmove  %eax,%edx
 8049a0b:	b8 2a 91 d3 ec       	mov    $0xecd3912a,%eax
 8049a10:	0f 44 e8             	cmove  %eax,%ebp
 8049a13:	01 fd                	add    %edi,%ebp
 8049a15:	89 ac 24 e0 00 00 00 	mov    %ebp,0xe0(%esp)
 8049a1c:	11 ca                	adc    %ecx,%edx
 8049a1e:	89 54 24 08          	mov    %edx,0x8(%esp)
 8049a22:	0f b6 84 24 40 01 00 	movzbl 0x140(%esp),%eax
 8049a29:	00 
 8049a2a:	c1 e0 03             	shl    $0x3,%eax
 8049a2d:	c5 f9 6e c0          	vmovd  %eax,%xmm0
 8049a31:	c4 e2 79 58 c0       	vpbroadcastd %xmm0,%xmm0
 8049a36:	c5 f1 ef c9          	vpxor  %xmm1,%xmm1,%xmm1
 8049a3a:	c5 e9 ef d2          	vpxor  %xmm2,%xmm2,%xmm2
 8049a3e:	b9 80 fc ff ff       	mov    $0xfffffc80,%ecx
 8049a43:	66 66 66 66 2e 0f 1f 	data16 data16 data16 nopw %cs:0x0(%eax,%eax,1)
 8049a4a:	84 00 00 00 00 00 
 8049a50:	c5 fa 6f 99 8c 33 06 	vmovdqu 0x806338c(%ecx),%xmm3
 8049a57:	08 
 8049a58:	c5 fa 6f a1 9c 33 06 	vmovdqu 0x806339c(%ecx),%xmm4
 8049a5f:	08 
 8049a60:	c5 d5 76 ed          	vpcmpeqd %ymm5,%ymm5,%ymm5
 8049a64:	c4 e2 d5 90 34 1d 08 	vpgatherdq %ymm5,0x8060808(,%xmm3,1),%ymm6
 8049a6b:	08 06 08 
 8049a6e:	c5 d5 76 ed          	vpcmpeqd %ymm5,%ymm5,%ymm5
 8049a72:	c4 e2 d5 90 3c 25 08 	vpgatherdq %ymm5,0x8060808(,%xmm4,1),%ymm7
 8049a79:	08 06 08 
 8049a7c:	c5 f9 76 db          	vpcmpeqd %xmm3,%xmm0,%xmm3
 8049a80:	c4 e2 7d 25 db       	vpmovsxdq %xmm3,%ymm3
 8049a85:	c5 e5 db de          	vpand  %ymm6,%ymm3,%ymm3
 8049a89:	c5 e5 d4 c9          	vpaddq %ymm1,%ymm3,%ymm1
 8049a8d:	c5 f9 76 dc          	vpcmpeqd %xmm4,%xmm0,%xmm3
 8049a91:	c4 e2 7d 25 db       	vpmovsxdq %xmm3,%ymm3
 8049a96:	c5 e5 db df          	vpand  %ymm7,%ymm3,%ymm3
 8049a9a:	c5 e5 d4 d2          	vpaddq %ymm2,%ymm3,%ymm2
 8049a9e:	c5 fa 6f 99 ac 33 06 	vmovdqu 0x80633ac(%ecx),%xmm3
 8049aa5:	08 
 8049aa6:	c5 fa 6f a1 bc 33 06 	vmovdqu 0x80633bc(%ecx),%xmm4
 8049aad:	08 
 8049aae:	c5 d5 76 ed          	vpcmpeqd %ymm5,%ymm5,%ymm5
 8049ab2:	c4 e2 d5 90 34 1d 08 	vpgatherdq %ymm5,0x8060808(,%xmm3,1),%ymm6
 8049ab9:	08 06 08 
 8049abc:	c5 d5 76 ed          	vpcmpeqd %ymm5,%ymm5,%ymm5
 8049ac0:	c4 e2 d5 90 3c 25 08 	vpgatherdq %ymm5,0x8060808(,%xmm4,1),%ymm7
 8049ac7:	08 06 08 
 8049aca:	c5 f9 76 db          	vpcmpeqd %xmm3,%xmm0,%xmm3
 8049ace:	c4 e2 7d 25 db       	vpmovsxdq %xmm3,%ymm3
 8049ad3:	c5 e5 db de          	vpand  %ymm6,%ymm3,%ymm3
 8049ad7:	c5 f9 76 e4          	vpcmpeqd %xmm4,%xmm0,%xmm4
 8049adb:	c4 e2 7d 25 e4       	vpmovsxdq %xmm4,%ymm4
 8049ae0:	c5 dd db e7          	vpand  %ymm7,%ymm4,%ymm4
 8049ae4:	c5 fa 6f a9 cc 33 06 	vmovdqu 0x80633cc(%ecx),%xmm5
 8049aeb:	08 
 8049aec:	c5 cd 76 f6          	vpcmpeqd %ymm6,%ymm6,%ymm6
 8049af0:	c4 e2 cd 90 3c 2d 08 	vpgatherdq %ymm6,0x8060808(,%xmm5,1),%ymm7
 8049af7:	08 06 08 
 8049afa:	c5 f9 76 ed          	vpcmpeqd %xmm5,%xmm0,%xmm5
 8049afe:	c4 e2 7d 25 ed       	vpmovsxdq %xmm5,%ymm5
 8049b03:	c5 d5 db ef          	vpand  %ymm7,%ymm5,%ymm5
 8049b07:	c5 fa 6f b1 dc 33 06 	vmovdqu 0x80633dc(%ecx),%xmm6
 8049b0e:	08 
 8049b0f:	c5 e5 d4 dd          	vpaddq %ymm5,%ymm3,%ymm3
 8049b13:	c5 d5 76 ed          	vpcmpeqd %ymm5,%ymm5,%ymm5
 8049b17:	c5 f5 d4 cb          	vpaddq %ymm3,%ymm1,%ymm1
 8049b1b:	c4 e2 d5 90 1c 35 08 	vpgatherdq %ymm5,0x8060808(,%xmm6,1),%ymm3
 8049b22:	08 06 08 
 8049b25:	c5 f9 76 ee          	vpcmpeqd %xmm6,%xmm0,%xmm5
 8049b29:	c4 e2 7d 25 ed       	vpmovsxdq %xmm5,%ymm5
 8049b2e:	c5 d5 db db          	vpand  %ymm3,%ymm5,%ymm3
 8049b32:	c5 dd d4 db          	vpaddq %ymm3,%ymm4,%ymm3
 8049b36:	c5 ed d4 d3          	vpaddq %ymm3,%ymm2,%ymm2
 8049b3a:	85 c9                	test   %ecx,%ecx
 8049b3c:	74 56                	je     8049b94 <main+0x974>
 8049b3e:	c5 fa 6f 99 ec 33 06 	vmovdqu 0x80633ec(%ecx),%xmm3
 8049b45:	08 
 8049b46:	c5 fa 6f a1 fc 33 06 	vmovdqu 0x80633fc(%ecx),%xmm4
 8049b4d:	08 
 8049b4e:	c5 d5 76 ed          	vpcmpeqd %ymm5,%ymm5,%ymm5
 8049b52:	c4 e2 d5 90 34 1d 08 	vpgatherdq %ymm5,0x8060808(,%xmm3,1),%ymm6
 8049b59:	08 06 08 
 8049b5c:	c5 d5 76 ed          	vpcmpeqd %ymm5,%ymm5,%ymm5
 8049b60:	c4 e2 d5 90 3c 25 08 	vpgatherdq %ymm5,0x8060808(,%xmm4,1),%ymm7
 8049b67:	08 06 08 
 8049b6a:	c5 f9 76 db          	vpcmpeqd %xmm3,%xmm0,%xmm3
 8049b6e:	c4 e2 7d 25 db       	vpmovsxdq %xmm3,%ymm3
 8049b73:	c5 e5 db de          	vpand  %ymm6,%ymm3,%ymm3
 8049b77:	c5 f9 76 e4          	vpcmpeqd %xmm4,%xmm0,%xmm4
 8049b7b:	c4 e2 7d 25 e4       	vpmovsxdq %xmm4,%ymm4
 8049b80:	c5 dd db e7          	vpand  %ymm7,%ymm4,%ymm4
 8049b84:	c5 e5 d4 c9          	vpaddq %ymm1,%ymm3,%ymm1
 8049b88:	c5 dd d4 d2          	vpaddq %ymm2,%ymm4,%ymm2
 8049b8c:	83 e9 80             	sub    $0xffffff80,%ecx
 8049b8f:	e9 bc fe ff ff       	jmp    8049a50 <main+0x830>
 8049b94:	be a2 fb b2 10       	mov    $0x10b2fba2,%esi
 8049b99:	bf eb 79 82 49       	mov    $0x498279eb,%edi
 8049b9e:	c5 ed d4 c1          	vpaddq %ymm1,%ymm2,%ymm0
 8049ba2:	c4 e3 7d 39 c1 01    	vextracti128 $0x1,%ymm0,%xmm1
 8049ba8:	c5 f9 d4 c1          	vpaddq %xmm1,%xmm0,%xmm0
 8049bac:	c5 f9 70 c8 ee       	vpshufd $0xee,%xmm0,%xmm1
 8049bb1:	c5 f9 d4 c1          	vpaddq %xmm1,%xmm0,%xmm0
 8049bb5:	c5 f9 7e c1          	vmovd  %xmm0,%ecx
 8049bb9:	31 ed                	xor    %ebp,%ebp
 8049bbb:	3d c8 07 00 00       	cmp    $0x7c8,%eax
 8049bc0:	ba 00 00 00 00       	mov    $0x0,%edx
 8049bc5:	0f 44 d6             	cmove  %esi,%edx
 8049bc8:	be 00 00 00 00       	mov    $0x0,%esi
 8049bcd:	0f 44 f7             	cmove  %edi,%esi
 8049bd0:	01 ce                	add    %ecx,%esi
 8049bd2:	c4 e3 79 16 c1 01    	vpextrd $0x1,%xmm0,%ecx
 8049bd8:	11 ca                	adc    %ecx,%edx
 8049bda:	bf 80 9d 3a ba       	mov    $0xba3a9d80,%edi
 8049bdf:	3d d0 07 00 00       	cmp    $0x7d0,%eax
 8049be4:	b9 00 00 00 00       	mov    $0x0,%ecx
 8049be9:	0f 44 cf             	cmove  %edi,%ecx
 8049bec:	bb 27 74 e9 a7       	mov    $0xa7e97427,%ebx
 8049bf1:	bf 00 00 00 00       	mov    $0x0,%edi
 8049bf6:	0f 44 fb             	cmove  %ebx,%edi
 8049bf9:	01 f7                	add    %esi,%edi
 8049bfb:	11 d1                	adc    %edx,%ecx
 8049bfd:	3d d8 07 00 00       	cmp    $0x7d8,%eax
 8049c02:	be 4f d1 21 6e       	mov    $0x6e21d14f,%esi
 8049c07:	ba 00 00 00 00       	mov    $0x0,%edx
 8049c0c:	0f 44 d6             	cmove  %esi,%edx
 8049c0f:	bb bf 42 93 f0       	mov    $0xf09342bf,%ebx
 8049c14:	be 00 00 00 00       	mov    $0x0,%esi
 8049c19:	0f 44 f3             	cmove  %ebx,%esi
 8049c1c:	01 fe                	add    %edi,%esi
 8049c1e:	11 ca                	adc    %ecx,%edx
 8049c20:	3d e0 07 00 00       	cmp    $0x7e0,%eax
 8049c25:	bf 1f 21 7c 63       	mov    $0x637c211f,%edi
 8049c2a:	b9 00 00 00 00       	mov    $0x0,%ecx
 8049c2f:	0f 44 cf             	cmove  %edi,%ecx
 8049c32:	bb 42 f8 d9 5d       	mov    $0x5dd9f842,%ebx
 8049c37:	bf 00 00 00 00       	mov    $0x0,%edi
 8049c3c:	0f 44 fb             	cmove  %ebx,%edi
 8049c3f:	01 f7                	add    %esi,%edi
 8049c41:	11 d1                	adc    %edx,%ecx
 8049c43:	3d e8 07 00 00       	cmp    $0x7e8,%eax
 8049c48:	be ca 43 0f c5       	mov    $0xc50f43ca,%esi
 8049c4d:	ba 00 00 00 00       	mov    $0x0,%edx
 8049c52:	0f 44 d6             	cmove  %esi,%edx
 8049c55:	bb 86 1e 5d 4c       	mov    $0x4c5d1e86,%ebx
 8049c5a:	be 00 00 00 00       	mov    $0x0,%esi
 8049c5f:	0f 44 f3             	cmove  %ebx,%esi
 8049c62:	01 fe                	add    %edi,%esi
 8049c64:	11 ca                	adc    %ecx,%edx
 8049c66:	3d f0 07 00 00       	cmp    $0x7f0,%eax
 8049c6b:	bf aa e3 92 38       	mov    $0x3892e3aa,%edi
 8049c70:	b9 00 00 00 00       	mov    $0x0,%ecx
 8049c75:	0f 44 cf             	cmove  %edi,%ecx
 8049c78:	bb db 39 da 71       	mov    $0x71da39db,%ebx
 8049c7d:	bf 00 00 00 00       	mov    $0x0,%edi
 8049c82:	0f 44 fb             	cmove  %ebx,%edi
 8049c85:	01 f7                	add    %esi,%edi
 8049c87:	11 d1                	adc    %edx,%ecx
 8049c89:	3d f8 07 00 00       	cmp    $0x7f8,%eax
 8049c8e:	b8 42 c6 15 57       	mov    $0x5715c642,%eax
 8049c93:	ba 00 00 00 00       	mov    $0x0,%edx
 8049c98:	0f 44 d0             	cmove  %eax,%edx
 8049c9b:	b8 91 2a ec d3       	mov    $0xd3ec2a91,%eax
 8049ca0:	0f 44 e8             	cmove  %eax,%ebp
 8049ca3:	01 fd                	add    %edi,%ebp
 8049ca5:	89 6c 24 14          	mov    %ebp,0x14(%esp)
 8049ca9:	11 ca                	adc    %ecx,%edx
 8049cab:	89 94 24 a0 01 00 00 	mov    %edx,0x1a0(%esp)
 8049cb2:	8b 84 24 80 00 00 00 	mov    0x80(%esp),%eax
 8049cb9:	c1 e8 15             	shr    $0x15,%eax
 8049cbc:	83 e0 f8             	and    $0xfffffff8,%eax
 8049cbf:	c5 f9 6e c0          	vmovd  %eax,%xmm0
 8049cc3:	c4 e2 79 58 c0       	vpbroadcastd %xmm0,%xmm0
 8049cc8:	c5 f1 ef c9          	vpxor  %xmm1,%xmm1,%xmm1
 8049ccc:	c5 e9 ef d2          	vpxor  %xmm2,%xmm2,%xmm2
 8049cd0:	b9 80 fc ff ff       	mov    $0xfffffc80,%ecx
 8049cd5:	66 66 2e 0f 1f 84 00 	data16 nopw %cs:0x0(%eax,%eax,1)
 8049cdc:	00 00 00 00 
 8049ce0:	c5 fa 6f 99 8c 33 06 	vmovdqu 0x806338c(%ecx),%xmm3
 8049ce7:	08 
 8049ce8:	c5 fa 6f a1 9c 33 06 	vmovdqu 0x806339c(%ecx),%xmm4
 8049cef:	08 
 8049cf0:	c5 d5 76 ed          	vpcmpeqd %ymm5,%ymm5,%ymm5
 8049cf4:	c4 e2 d5 90 34 1d 08 	vpgatherdq %ymm5,0x8061008(,%xmm3,1),%ymm6
 8049cfb:	10 06 08 
 8049cfe:	c5 d5 76 ed          	vpcmpeqd %ymm5,%ymm5,%ymm5
 8049d02:	c4 e2 d5 90 3c 25 08 	vpgatherdq %ymm5,0x8061008(,%xmm4,1),%ymm7
 8049d09:	10 06 08 
 8049d0c:	c5 f9 76 db          	vpcmpeqd %xmm3,%xmm0,%xmm3
 8049d10:	c4 e2 7d 25 db       	vpmovsxdq %xmm3,%ymm3
 8049d15:	c5 e5 db de          	vpand  %ymm6,%ymm3,%ymm3
 8049d19:	c5 e5 d4 c9          	vpaddq %ymm1,%ymm3,%ymm1
 8049d1d:	c5 f9 76 dc          	vpcmpeqd %xmm4,%xmm0,%xmm3
 8049d21:	c4 e2 7d 25 db       	vpmovsxdq %xmm3,%ymm3
 8049d26:	c5 e5 db df          	vpand  %ymm7,%ymm3,%ymm3
 8049d2a:	c5 e5 d4 d2          	vpaddq %ymm2,%ymm3,%ymm2
 8049d2e:	c5 fa 6f 99 ac 33 06 	vmovdqu 0x80633ac(%ecx),%xmm3
 8049d35:	08 
 8049d36:	c5 fa 6f a1 bc 33 06 	vmovdqu 0x80633bc(%ecx),%xmm4
 8049d3d:	08 
 8049d3e:	c5 d5 76 ed          	vpcmpeqd %ymm5,%ymm5,%ymm5
 8049d42:	c4 e2 d5 90 34 1d 08 	vpgatherdq %ymm5,0x8061008(,%xmm3,1),%ymm6
 8049d49:	10 06 08 
 8049d4c:	c5 d5 76 ed          	vpcmpeqd %ymm5,%ymm5,%ymm5
 8049d50:	c4 e2 d5 90 3c 25 08 	vpgatherdq %ymm5,0x8061008(,%xmm4,1),%ymm7
 8049d57:	10 06 08 
 8049d5a:	c5 f9 76 db          	vpcmpeqd %xmm3,%xmm0,%xmm3
 8049d5e:	c4 e2 7d 25 db       	vpmovsxdq %xmm3,%ymm3
 8049d63:	c5 e5 db de          	vpand  %ymm6,%ymm3,%ymm3
 8049d67:	c5 f9 76 e4          	vpcmpeqd %xmm4,%xmm0,%xmm4
 8049d6b:	c4 e2 7d 25 e4       	vpmovsxdq %xmm4,%ymm4
 8049d70:	c5 dd db e7          	vpand  %ymm7,%ymm4,%ymm4
 8049d74:	c5 fa 6f a9 cc 33 06 	vmovdqu 0x80633cc(%ecx),%xmm5
 8049d7b:	08 
 8049d7c:	c5 cd 76 f6          	vpcmpeqd %ymm6,%ymm6,%ymm6
 8049d80:	c4 e2 cd 90 3c 2d 08 	vpgatherdq %ymm6,0x8061008(,%xmm5,1),%ymm7
 8049d87:	10 06 08 
 8049d8a:	c5 f9 76 ed          	vpcmpeqd %xmm5,%xmm0,%xmm5
 8049d8e:	c4 e2 7d 25 ed       	vpmovsxdq %xmm5,%ymm5
 8049d93:	c5 d5 db ef          	vpand  %ymm7,%ymm5,%ymm5
 8049d97:	c5 fa 6f b1 dc 33 06 	vmovdqu 0x80633dc(%ecx),%xmm6
 8049d9e:	08 
 8049d9f:	c5 e5 d4 dd          	vpaddq %ymm5,%ymm3,%ymm3
 8049da3:	c5 d5 76 ed          	vpcmpeqd %ymm5,%ymm5,%ymm5
 8049da7:	c5 f5 d4 cb          	vpaddq %ymm3,%ymm1,%ymm1
 8049dab:	c4 e2 d5 90 1c 35 08 	vpgatherdq %ymm5,0x8061008(,%xmm6,1),%ymm3
 8049db2:	10 06 08 
 8049db5:	c5 f9 76 ee          	vpcmpeqd %xmm6,%xmm0,%xmm5
 8049db9:	c4 e2 7d 25 ed       	vpmovsxdq %xmm5,%ymm5
 8049dbe:	c5 d5 db db          	vpand  %ymm3,%ymm5,%ymm3
 8049dc2:	c5 dd d4 db          	vpaddq %ymm3,%ymm4,%ymm3
 8049dc6:	c5 ed d4 d3          	vpaddq %ymm3,%ymm2,%ymm2
 8049dca:	85 c9                	test   %ecx,%ecx
 8049dcc:	74 56                	je     8049e24 <main+0xc04>
 8049dce:	c5 fa 6f 99 ec 33 06 	vmovdqu 0x80633ec(%ecx),%xmm3
 8049dd5:	08 
 8049dd6:	c5 fa 6f a1 fc 33 06 	vmovdqu 0x80633fc(%ecx),%xmm4
 8049ddd:	08 
 8049dde:	c5 d5 76 ed          	vpcmpeqd %ymm5,%ymm5,%ymm5
 8049de2:	c4 e2 d5 90 34 1d 08 	vpgatherdq %ymm5,0x8061008(,%xmm3,1),%ymm6
 8049de9:	10 06 08 
 8049dec:	c5 d5 76 ed          	vpcmpeqd %ymm5,%ymm5,%ymm5
 8049df0:	c4 e2 d5 90 3c 25 08 	vpgatherdq %ymm5,0x8061008(,%xmm4,1),%ymm7
 8049df7:	10 06 08 
 8049dfa:	c5 f9 76 db          	vpcmpeqd %xmm3,%xmm0,%xmm3
 8049dfe:	c4 e2 7d 25 db       	vpmovsxdq %xmm3,%ymm3
 8049e03:	c5 e5 db de          	vpand  %ymm6,%ymm3,%ymm3
 8049e07:	c5 f9 76 e4          	vpcmpeqd %xmm4,%xmm0,%xmm4
 8049e0b:	c4 e2 7d 25 e4       	vpmovsxdq %xmm4,%ymm4
 8049e10:	c5 dd db e7          	vpand  %ymm7,%ymm4,%ymm4
 8049e14:	c5 e5 d4 c9          	vpaddq %ymm1,%ymm3,%ymm1
 8049e18:	c5 dd d4 d2          	vpaddq %ymm2,%ymm4,%ymm2
 8049e1c:	83 e9 80             	sub    $0xffffff80,%ecx
 8049e1f:	e9 bc fe ff ff       	jmp    8049ce0 <main+0xac0>
 8049e24:	be 49 82 79 eb       	mov    $0xeb798249,%esi
 8049e29:	bf 10 b2 fb a2       	mov    $0xa2fbb210,%edi
 8049e2e:	c5 ed d4 c1          	vpaddq %ymm1,%ymm2,%ymm0
 8049e32:	c4 e3 7d 39 c1 01    	vextracti128 $0x1,%ymm0,%xmm1
 8049e38:	c5 f9 d4 c1          	vpaddq %xmm1,%xmm0,%xmm0
 8049e3c:	c5 f9 70 c8 ee       	vpshufd $0xee,%xmm0,%xmm1
 8049e41:	c5 f9 d4 c1          	vpaddq %xmm1,%xmm0,%xmm0
 8049e45:	c5 f9 7e c1          	vmovd  %xmm0,%ecx
 8049e49:	31 ed                	xor    %ebp,%ebp
 8049e4b:	3d c8 07 00 00       	cmp    $0x7c8,%eax
 8049e50:	ba 00 00 00 00       	mov    $0x0,%edx
 8049e55:	0f 44 d6             	cmove  %esi,%edx
 8049e58:	be 00 00 00 00       	mov    $0x0,%esi
 8049e5d:	0f 44 f7             	cmove  %edi,%esi
 8049e60:	01 ce                	add    %ecx,%esi
 8049e62:	c4 e3 79 16 c1 01    	vpextrd $0x1,%xmm0,%ecx
 8049e68:	11 ca                	adc    %ecx,%edx
 8049e6a:	bf a7 e9 74 27       	mov    $0x2774e9a7,%edi
 8049e6f:	3d d0 07 00 00       	cmp    $0x7d0,%eax
 8049e74:	b9 00 00 00 00       	mov    $0x0,%ecx
 8049e79:	0f 44 cf             	cmove  %edi,%ecx
 8049e7c:	bb ba 3a 9d 80       	mov    $0x809d3aba,%ebx
 8049e81:	bf 00 00 00 00       	mov    $0x0,%edi
 8049e86:	0f 44 fb             	cmove  %ebx,%edi
 8049e89:	01 f7                	add    %esi,%edi
 8049e8b:	11 d1                	adc    %edx,%ecx
 8049e8d:	3d d8 07 00 00       	cmp    $0x7d8,%eax
 8049e92:	be f0 93 42 bf       	mov    $0xbf4293f0,%esi
 8049e97:	ba 00 00 00 00       	mov    $0x0,%edx
 8049e9c:	0f 44 d6             	cmove  %esi,%edx
 8049e9f:	bb 6e 21 d1 4f       	mov    $0x4fd1216e,%ebx
 8049ea4:	be 00 00 00 00       	mov    $0x0,%esi
 8049ea9:	0f 44 f3             	cmove  %ebx,%esi
 8049eac:	01 fe                	add    %edi,%esi
 8049eae:	11 ca                	adc    %ecx,%edx
 8049eb0:	3d e0 07 00 00       	cmp    $0x7e0,%eax
 8049eb5:	bf 5d d9 f8 42       	mov    $0x42f8d95d,%edi
 8049eba:	b9 00 00 00 00       	mov    $0x0,%ecx
 8049ebf:	0f 44 cf             	cmove  %edi,%ecx
 8049ec2:	bb 63 7c 21 1f       	mov    $0x1f217c63,%ebx
 8049ec7:	bf 00 00 00 00       	mov    $0x0,%edi
 8049ecc:	0f 44 fb             	cmove  %ebx,%edi
 8049ecf:	01 f7                	add    %esi,%edi
 8049ed1:	11 d1                	adc    %edx,%ecx
 8049ed3:	3d e8 07 00 00       	cmp    $0x7e8,%eax
 8049ed8:	be 4c 5d 1e 86       	mov    $0x861e5d4c,%esi
 8049edd:	ba 00 00 00 00       	mov    $0x0,%edx
 8049ee2:	0f 44 d6             	cmove  %esi,%edx
 8049ee5:	bb c5 0f 43 ca       	mov    $0xca430fc5,%ebx
 8049eea:	be 00 00 00 00       	mov    $0x0,%esi
 8049eef:	0f 44 f3             	cmove  %ebx,%esi
 8049ef2:	01 fe                	add    %edi,%esi
 8049ef4:	11 ca                	adc    %ecx,%edx
 8049ef6:	3d f0 07 00 00       	cmp    $0x7f0,%eax
 8049efb:	bf 71 da 39 db       	mov    $0xdb39da71,%edi
 8049f00:	b9 00 00 00 00       	mov    $0x0,%ecx
 8049f05:	0f 44 cf             	cmove  %edi,%ecx
 8049f08:	bb 38 92 e3 aa       	mov    $0xaae39238,%ebx
 8049f0d:	bf 00 00 00 00       	mov    $0x0,%edi
 8049f12:	0f 44 fb             	cmove  %ebx,%edi
 8049f15:	01 f7                	add    %esi,%edi
 8049f17:	11 d1                	adc    %edx,%ecx
 8049f19:	3d f8 07 00 00       	cmp    $0x7f8,%eax
 8049f1e:	b8 d3 ec 2a 91       	mov    $0x912aecd3,%eax
 8049f23:	ba 00 00 00 00       	mov    $0x0,%edx
 8049f28:	0f 44 d0             	cmove  %eax,%edx
 8049f2b:	b8 57 15 c6 42       	mov    $0x42c61557,%eax
 8049f30:	0f 44 e8             	cmove  %eax,%ebp
 8049f33:	01 fd                	add    %edi,%ebp
 8049f35:	89 ac 24 80 01 00 00 	mov    %ebp,0x180(%esp)
 8049f3c:	11 ca                	adc    %ecx,%edx
 8049f3e:	89 54 24 10          	mov    %edx,0x10(%esp)
 8049f42:	8b 84 24 80 00 00 00 	mov    0x80(%esp),%eax
 8049f49:	c1 e8 0d             	shr    $0xd,%eax
 8049f4c:	25 f8 07 00 00       	and    $0x7f8,%eax
 8049f51:	c5 f9 6e c0          	vmovd  %eax,%xmm0
 8049f55:	c4 e2 79 58 c0       	vpbroadcastd %xmm0,%xmm0
 8049f5a:	c5 f1 ef c9          	vpxor  %xmm1,%xmm1,%xmm1
 8049f5e:	c5 e9 ef d2          	vpxor  %xmm2,%xmm2,%xmm2
 8049f62:	b9 80 fc ff ff       	mov    $0xfffffc80,%ecx
 8049f67:	66 0f 1f 84 00 00 00 	nopw   0x0(%eax,%eax,1)
 8049f6e:	00 00 
 8049f70:	c5 fa 6f 99 8c 33 06 	vmovdqu 0x806338c(%ecx),%xmm3
 8049f77:	08 
 8049f78:	c5 fa 6f a1 9c 33 06 	vmovdqu 0x806339c(%ecx),%xmm4
 8049f7f:	08 
 8049f80:	c5 d5 76 ed          	vpcmpeqd %ymm5,%ymm5,%ymm5
 8049f84:	c4 e2 d5 90 34 1d 08 	vpgatherdq %ymm5,0x8061808(,%xmm3,1),%ymm6
 8049f8b:	18 06 08 
 8049f8e:	c5 d5 76 ed          	vpcmpeqd %ymm5,%ymm5,%ymm5
 8049f92:	c4 e2 d5 90 3c 25 08 	vpgatherdq %ymm5,0x8061808(,%xmm4,1),%ymm7
 8049f99:	18 06 08 
 8049f9c:	c5 f9 76 db          	vpcmpeqd %xmm3,%xmm0,%xmm3
 8049fa0:	c4 e2 7d 25 db       	vpmovsxdq %xmm3,%ymm3
 8049fa5:	c5 e5 db de          	vpand  %ymm6,%ymm3,%ymm3
 8049fa9:	c5 e5 d4 c9          	vpaddq %ymm1,%ymm3,%ymm1
 8049fad:	c5 f9 76 dc          	vpcmpeqd %xmm4,%xmm0,%xmm3
 8049fb1:	c4 e2 7d 25 db       	vpmovsxdq %xmm3,%ymm3
 8049fb6:	c5 e5 db df          	vpand  %ymm7,%ymm3,%ymm3
 8049fba:	c5 e5 d4 d2          	vpaddq %ymm2,%ymm3,%ymm2
 8049fbe:	c5 fa 6f 99 ac 33 06 	vmovdqu 0x80633ac(%ecx),%xmm3
 8049fc5:	08 
 8049fc6:	c5 fa 6f a1 bc 33 06 	vmovdqu 0x80633bc(%ecx),%xmm4
 8049fcd:	08 
 8049fce:	c5 d5 76 ed          	vpcmpeqd %ymm5,%ymm5,%ymm5
 8049fd2:	c4 e2 d5 90 34 1d 08 	vpgatherdq %ymm5,0x8061808(,%xmm3,1),%ymm6
 8049fd9:	18 06 08 
 8049fdc:	c5 d5 76 ed          	vpcmpeqd %ymm5,%ymm5,%ymm5
 8049fe0:	c4 e2 d5 90 3c 25 08 	vpgatherdq %ymm5,0x8061808(,%xmm4,1),%ymm7
 8049fe7:	18 06 08 
 8049fea:	c5 f9 76 db          	vpcmpeqd %xmm3,%xmm0,%xmm3
 8049fee:	c4 e2 7d 25 db       	vpmovsxdq %xmm3,%ymm3
 8049ff3:	c5 e5 db de          	vpand  %ymm6,%ymm3,%ymm3
 8049ff7:	c5 f9 76 e4          	vpcmpeqd %xmm4,%xmm0,%xmm4
 8049ffb:	c4 e2 7d 25 e4       	vpmovsxdq %xmm4,%ymm4
 804a000:	c5 dd db e7          	vpand  %ymm7,%ymm4,%ymm4
 804a004:	c5 fa 6f a9 cc 33 06 	vmovdqu 0x80633cc(%ecx),%xmm5
 804a00b:	08 
 804a00c:	c5 cd 76 f6          	vpcmpeqd %ymm6,%ymm6,%ymm6
 804a010:	c4 e2 cd 90 3c 2d 08 	vpgatherdq %ymm6,0x8061808(,%xmm5,1),%ymm7
 804a017:	18 06 08 
 804a01a:	c5 f9 76 ed          	vpcmpeqd %xmm5,%xmm0,%xmm5
 804a01e:	c4 e2 7d 25 ed       	vpmovsxdq %xmm5,%ymm5
 804a023:	c5 d5 db ef          	vpand  %ymm7,%ymm5,%ymm5
 804a027:	c5 fa 6f b1 dc 33 06 	vmovdqu 0x80633dc(%ecx),%xmm6
 804a02e:	08 
 804a02f:	c5 e5 d4 dd          	vpaddq %ymm5,%ymm3,%ymm3
 804a033:	c5 d5 76 ed          	vpcmpeqd %ymm5,%ymm5,%ymm5
 804a037:	c5 f5 d4 cb          	vpaddq %ymm3,%ymm1,%ymm1
 804a03b:	c4 e2 d5 90 1c 35 08 	vpgatherdq %ymm5,0x8061808(,%xmm6,1),%ymm3
 804a042:	18 06 08 
 804a045:	c5 f9 76 ee          	vpcmpeqd %xmm6,%xmm0,%xmm5
 804a049:	c4 e2 7d 25 ed       	vpmovsxdq %xmm5,%ymm5
 804a04e:	c5 d5 db db          	vpand  %ymm3,%ymm5,%ymm3
 804a052:	c5 dd d4 db          	vpaddq %ymm3,%ymm4,%ymm3
 804a056:	c5 ed d4 d3          	vpaddq %ymm3,%ymm2,%ymm2
 804a05a:	85 c9                	test   %ecx,%ecx
 804a05c:	74 56                	je     804a0b4 <main+0xe94>
 804a05e:	c5 fa 6f 99 ec 33 06 	vmovdqu 0x80633ec(%ecx),%xmm3
 804a065:	08 
 804a066:	c5 fa 6f a1 fc 33 06 	vmovdqu 0x80633fc(%ecx),%xmm4
 804a06d:	08 
 804a06e:	c5 d5 76 ed          	vpcmpeqd %ymm5,%ymm5,%ymm5
 804a072:	c4 e2 d5 90 34 1d 08 	vpgatherdq %ymm5,0x8061808(,%xmm3,1),%ymm6
 804a079:	18 06 08 
 804a07c:	c5 d5 76 ed          	vpcmpeqd %ymm5,%ymm5,%ymm5
 804a080:	c4 e2 d5 90 3c 25 08 	vpgatherdq %ymm5,0x8061808(,%xmm4,1),%ymm7
 804a087:	18 06 08 
 804a08a:	c5 f9 76 db          	vpcmpeqd %xmm3,%xmm0,%xmm3
 804a08e:	c4 e2 7d 25 db       	vpmovsxdq %xmm3,%ymm3
 804a093:	c5 e5 db de          	vpand  %ymm6,%ymm3,%ymm3
 804a097:	c5 f9 76 e4          	vpcmpeqd %xmm4,%xmm0,%xmm4
 804a09b:	c4 e2 7d 25 e4       	vpmovsxdq %xmm4,%ymm4
 804a0a0:	c5 dd db e7          	vpand  %ymm7,%ymm4,%ymm4
 804a0a4:	c5 e5 d4 c9          	vpaddq %ymm1,%ymm3,%ymm1
 804a0a8:	c5 dd d4 d2          	vpaddq %ymm2,%ymm4,%ymm2
 804a0ac:	83 e9 80             	sub    $0xffffff80,%ecx
 804a0af:	e9 bc fe ff ff       	jmp    8049f70 <main+0xd50>
 804a0b4:	bf 82 49 eb 79       	mov    $0x79eb4982,%edi
 804a0b9:	ba b2 10 a2 fb       	mov    $0xfba210b2,%edx
 804a0be:	c5 ed d4 c1          	vpaddq %ymm1,%ymm2,%ymm0
 804a0c2:	c4 e3 7d 39 c1 01    	vextracti128 $0x1,%ymm0,%xmm1
 804a0c8:	c5 f9 d4 c1          	vpaddq %xmm1,%xmm0,%xmm0
 804a0cc:	c5 f9 70 c8 ee       	vpshufd $0xee,%xmm0,%xmm1
 804a0d1:	c5 f9 d4 c1          	vpaddq %xmm1,%xmm0,%xmm0
 804a0d5:	c5 f9 7e c1          	vmovd  %xmm0,%ecx
 804a0d9:	31 db                	xor    %ebx,%ebx
 804a0db:	3d c8 07 00 00       	cmp    $0x7c8,%eax
 804a0e0:	be 00 00 00 00       	mov    $0x0,%esi
 804a0e5:	0f 44 f7             	cmove  %edi,%esi
 804a0e8:	bf 00 00 00 00       	mov    $0x0,%edi
 804a0ed:	0f 44 fa             	cmove  %edx,%edi
 804a0f0:	01 cf                	add    %ecx,%edi
 804a0f2:	c4 e3 79 16 c1 01    	vpextrd $0x1,%xmm0,%ecx
 804a0f8:	11 ce                	adc    %ecx,%esi
 804a0fa:	ba e9 a7 27 74       	mov    $0x7427a7e9,%edx
 804a0ff:	3d d0 07 00 00       	cmp    $0x7d0,%eax
 804a104:	b9 00 00 00 00       	mov    $0x0,%ecx
 804a109:	0f 44 ca             	cmove  %edx,%ecx
 804a10c:	ba 3a ba 80 9d       	mov    $0x9d80ba3a,%edx
 804a111:	bd 00 00 00 00       	mov    $0x0,%ebp
 804a116:	0f 44 ea             	cmove  %edx,%ebp
 804a119:	01 fd                	add    %edi,%ebp
 804a11b:	11 f1                	adc    %esi,%ecx
 804a11d:	3d d8 07 00 00       	cmp    $0x7d8,%eax
 804a122:	ba 93 f0 bf 42       	mov    $0x42bff093,%edx
 804a127:	be 00 00 00 00       	mov    $0x0,%esi
 804a12c:	0f 44 f2             	cmove  %edx,%esi
 804a12f:	ba 21 6e 4f d1       	mov    $0xd14f6e21,%edx
 804a134:	bf 00 00 00 00       	mov    $0x0,%edi
 804a139:	0f 44 fa             	cmove  %edx,%edi
 804a13c:	01 ef                	add    %ebp,%edi
 804a13e:	11 ce                	adc    %ecx,%esi
 804a140:	3d e0 07 00 00       	cmp    $0x7e0,%eax
 804a145:	ba d9 5d 42 f8       	mov    $0xf8425dd9,%edx
 804a14a:	b9 00 00 00 00       	mov    $0x0,%ecx
 804a14f:	0f 44 ca             	cmove  %edx,%ecx
 804a152:	ba 7c 63 1f 21       	mov    $0x211f637c,%edx
 804a157:	bd 00 00 00 00       	mov    $0x0,%ebp
 804a15c:	0f 44 ea             	cmove  %edx,%ebp
 804a15f:	01 fd                	add    %edi,%ebp
 804a161:	11 f1                	adc    %esi,%ecx
 804a163:	3d e8 07 00 00       	cmp    $0x7e8,%eax
 804a168:	ba 5d 4c 86 1e       	mov    $0x1e864c5d,%edx
 804a16d:	be 00 00 00 00       	mov    $0x0,%esi
 804a172:	0f 44 f2             	cmove  %edx,%esi
 804a175:	ba 0f c5 ca 43       	mov    $0x43cac50f,%edx
 804a17a:	bf 00 00 00 00       	mov    $0x0,%edi
 804a17f:	0f 44 fa             	cmove  %edx,%edi
 804a182:	01 ef                	add    %ebp,%edi
 804a184:	11 ce                	adc    %ecx,%esi
 804a186:	3d f0 07 00 00       	cmp    $0x7f0,%eax
 804a18b:	ba da 71 db 39       	mov    $0x39db71da,%edx
 804a190:	b9 00 00 00 00       	mov    $0x0,%ecx
 804a195:	0f 44 ca             	cmove  %edx,%ecx
 804a198:	ba 92 38 aa e3       	mov    $0xe3aa3892,%edx
 804a19d:	bd 00 00 00 00       	mov    $0x0,%ebp
 804a1a2:	0f 44 ea             	cmove  %edx,%ebp
 804a1a5:	01 fd                	add    %edi,%ebp
 804a1a7:	11 f1                	adc    %esi,%ecx
 804a1a9:	3d f8 07 00 00       	cmp    $0x7f8,%eax
 804a1ae:	b8 ec d3 91 2a       	mov    $0x2a91d3ec,%eax
 804a1b3:	ba 00 00 00 00       	mov    $0x0,%edx
 804a1b8:	0f 44 d0             	cmove  %eax,%edx
 804a1bb:	b8 15 57 42 c6       	mov    $0xc6425715,%eax
 804a1c0:	0f 44 d8             	cmove  %eax,%ebx
 804a1c3:	01 eb                	add    %ebp,%ebx
 804a1c5:	89 9c 24 60 01 00 00 	mov    %ebx,0x160(%esp)
 804a1cc:	11 ca                	adc    %ecx,%edx
 804a1ce:	89 94 24 e0 01 00 00 	mov    %edx,0x1e0(%esp)
 804a1d5:	8b ac 24 80 00 00 00 	mov    0x80(%esp),%ebp
 804a1dc:	c1 ed 05             	shr    $0x5,%ebp
 804a1df:	81 e5 f8 07 00 00    	and    $0x7f8,%ebp
 804a1e5:	c5 f9 6e c5          	vmovd  %ebp,%xmm0
 804a1e9:	c4 e2 79 58 c0       	vpbroadcastd %xmm0,%xmm0
 804a1ee:	c5 f1 ef c9          	vpxor  %xmm1,%xmm1,%xmm1
 804a1f2:	c5 e9 ef d2          	vpxor  %xmm2,%xmm2,%xmm2
 804a1f6:	b9 80 fc ff ff       	mov    $0xfffffc80,%ecx
 804a1fb:	0f 1f 44 00 00       	nopl   0x0(%eax,%eax,1)
 804a200:	c5 fa 6f 99 8c 33 06 	vmovdqu 0x806338c(%ecx),%xmm3
 804a207:	08 
 804a208:	c5 fa 6f a1 9c 33 06 	vmovdqu 0x806339c(%ecx),%xmm4
 804a20f:	08 
 804a210:	c5 d5 76 ed          	vpcmpeqd %ymm5,%ymm5,%ymm5
 804a214:	c4 e2 d5 90 34 1d 08 	vpgatherdq %ymm5,0x8062008(,%xmm3,1),%ymm6
 804a21b:	20 06 08 
 804a21e:	c5 d5 76 ed          	vpcmpeqd %ymm5,%ymm5,%ymm5
 804a222:	c4 e2 d5 90 3c 25 08 	vpgatherdq %ymm5,0x8062008(,%xmm4,1),%ymm7
 804a229:	20 06 08 
 804a22c:	c5 f9 76 db          	vpcmpeqd %xmm3,%xmm0,%xmm3
 804a230:	c4 e2 7d 25 db       	vpmovsxdq %xmm3,%ymm3
 804a235:	c5 e5 db de          	vpand  %ymm6,%ymm3,%ymm3
 804a239:	c5 e5 d4 c9          	vpaddq %ymm1,%ymm3,%ymm1
 804a23d:	c5 f9 76 dc          	vpcmpeqd %xmm4,%xmm0,%xmm3
 804a241:	c4 e2 7d 25 db       	vpmovsxdq %xmm3,%ymm3
 804a246:	c5 e5 db df          	vpand  %ymm7,%ymm3,%ymm3
 804a24a:	c5 e5 d4 d2          	vpaddq %ymm2,%ymm3,%ymm2
 804a24e:	c5 fa 6f 99 ac 33 06 	vmovdqu 0x80633ac(%ecx),%xmm3
 804a255:	08 
 804a256:	c5 fa 6f a1 bc 33 06 	vmovdqu 0x80633bc(%ecx),%xmm4
 804a25d:	08 
 804a25e:	c5 d5 76 ed          	vpcmpeqd %ymm5,%ymm5,%ymm5
 804a262:	c4 e2 d5 90 34 1d 08 	vpgatherdq %ymm5,0x8062008(,%xmm3,1),%ymm6
 804a269:	20 06 08 
 804a26c:	c5 d5 76 ed          	vpcmpeqd %ymm5,%ymm5,%ymm5
 804a270:	c4 e2 d5 90 3c 25 08 	vpgatherdq %ymm5,0x8062008(,%xmm4,1),%ymm7
 804a277:	20 06 08 
 804a27a:	c5 f9 76 db          	vpcmpeqd %xmm3,%xmm0,%xmm3
 804a27e:	c4 e2 7d 25 db       	vpmovsxdq %xmm3,%ymm3
 804a283:	c5 e5 db de          	vpand  %ymm6,%ymm3,%ymm3
 804a287:	c5 f9 76 e4          	vpcmpeqd %xmm4,%xmm0,%xmm4
 804a28b:	c4 e2 7d 25 e4       	vpmovsxdq %xmm4,%ymm4
 804a290:	c5 dd db e7          	vpand  %ymm7,%ymm4,%ymm4
 804a294:	c5 fa 6f a9 cc 33 06 	vmovdqu 0x80633cc(%ecx),%xmm5
 804a29b:	08 
 804a29c:	c5 cd 76 f6          	vpcmpeqd %ymm6,%ymm6,%ymm6
 804a2a0:	c4 e2 cd 90 3c 2d 08 	vpgatherdq %ymm6,0x8062008(,%xmm5,1),%ymm7
 804a2a7:	20 06 08 
 804a2aa:	c5 f9 76 ed          	vpcmpeqd %xmm5,%xmm0,%xmm5
 804a2ae:	c4 e2 7d 25 ed       	vpmovsxdq %xmm5,%ymm5
 804a2b3:	c5 d5 db ef          	vpand  %ymm7,%ymm5,%ymm5
 804a2b7:	c5 fa 6f b1 dc 33 06 	vmovdqu 0x80633dc(%ecx),%xmm6
 804a2be:	08 
 804a2bf:	c5 e5 d4 dd          	vpaddq %ymm5,%ymm3,%ymm3
 804a2c3:	c5 d5 76 ed          	vpcmpeqd %ymm5,%ymm5,%ymm5
 804a2c7:	c5 f5 d4 cb          	vpaddq %ymm3,%ymm1,%ymm1
 804a2cb:	c4 e2 d5 90 1c 35 08 	vpgatherdq %ymm5,0x8062008(,%xmm6,1),%ymm3
 804a2d2:	20 06 08 
 804a2d5:	c5 f9 76 ee          	vpcmpeqd %xmm6,%xmm0,%xmm5
 804a2d9:	c4 e2 7d 25 ed       	vpmovsxdq %xmm5,%ymm5
 804a2de:	c5 d5 db db          	vpand  %ymm3,%ymm5,%ymm3
 804a2e2:	c5 dd d4 db          	vpaddq %ymm3,%ymm4,%ymm3
 804a2e6:	c5 ed d4 d3          	vpaddq %ymm3,%ymm2,%ymm2
 804a2ea:	85 c9                	test   %ecx,%ecx
 804a2ec:	74 56                	je     804a344 <main+0x1124>
 804a2ee:	c5 fa 6f 99 ec 33 06 	vmovdqu 0x80633ec(%ecx),%xmm3
 804a2f5:	08 
 804a2f6:	c5 fa 6f a1 fc 33 06 	vmovdqu 0x80633fc(%ecx),%xmm4
 804a2fd:	08 
 804a2fe:	c5 d5 76 ed          	vpcmpeqd %ymm5,%ymm5,%ymm5
 804a302:	c4 e2 d5 90 34 1d 08 	vpgatherdq %ymm5,0x8062008(,%xmm3,1),%ymm6
 804a309:	20 06 08 
 804a30c:	c5 d5 76 ed          	vpcmpeqd %ymm5,%ymm5,%ymm5
 804a310:	c4 e2 d5 90 3c 25 08 	vpgatherdq %ymm5,0x8062008(,%xmm4,1),%ymm7
 804a317:	20 06 08 
 804a31a:	c5 f9 76 db          	vpcmpeqd %xmm3,%xmm0,%xmm3
 804a31e:	c4 e2 7d 25 db       	vpmovsxdq %xmm3,%ymm3
 804a323:	c5 e5 db de          	vpand  %ymm6,%ymm3,%ymm3
 804a327:	c5 f9 76 e4          	vpcmpeqd %xmm4,%xmm0,%xmm4
 804a32b:	c4 e2 7d 25 e4       	vpmovsxdq %xmm4,%ymm4
 804a330:	c5 dd db e7          	vpand  %ymm7,%ymm4,%ymm4
 804a334:	c5 e5 d4 c9          	vpaddq %ymm1,%ymm3,%ymm1
 804a338:	c5 dd d4 d2          	vpaddq %ymm2,%ymm4,%ymm2
 804a33c:	83 e9 80             	sub    $0xffffff80,%ecx
 804a33f:	e9 bc fe ff ff       	jmp    804a200 <main+0xfe0>
 804a344:	ba 79 eb 49 82       	mov    $0x8249eb79,%edx
 804a349:	b8 fb a2 10 b2       	mov    $0xb210a2fb,%eax
 804a34e:	c5 ed d4 c1          	vpaddq %ymm1,%ymm2,%ymm0
 804a352:	c4 e3 7d 39 c1 01    	vextracti128 $0x1,%ymm0,%xmm1
 804a358:	c5 f9 d4 c1          	vpaddq %xmm1,%xmm0,%xmm0
 804a35c:	c5 f9 70 c8 ee       	vpshufd $0xee,%xmm0,%xmm1
 804a361:	c5 f9 d4 c1          	vpaddq %xmm1,%xmm0,%xmm0
 804a365:	c5 f9 7e c6          	vmovd  %xmm0,%esi
 804a369:	31 c9                	xor    %ecx,%ecx
 804a36b:	81 fd c8 07 00 00    	cmp    $0x7c8,%ebp
 804a371:	bf 00 00 00 00       	mov    $0x0,%edi
 804a376:	0f 44 fa             	cmove  %edx,%edi
 804a379:	ba 00 00 00 00       	mov    $0x0,%edx
 804a37e:	0f 44 d0             	cmove  %eax,%edx
 804a381:	01 f2                	add    %esi,%edx
 804a383:	c4 e3 79 16 c6 01    	vpextrd $0x1,%xmm0,%esi
 804a389:	11 f7                	adc    %esi,%edi
 804a38b:	b8 74 27 a7 e9       	mov    $0xe9a72774,%eax
 804a390:	81 fd d0 07 00 00    	cmp    $0x7d0,%ebp
 804a396:	be 00 00 00 00       	mov    $0x0,%esi
 804a39b:	0f 44 f0             	cmove  %eax,%esi
 804a39e:	b8 9d 80 ba 3a       	mov    $0x3aba809d,%eax
 804a3a3:	bb 00 00 00 00       	mov    $0x0,%ebx
 804a3a8:	0f 44 d8             	cmove  %eax,%ebx
 804a3ab:	01 d3                	add    %edx,%ebx
 804a3ad:	11 fe                	adc    %edi,%esi
 804a3af:	81 fd d8 07 00 00    	cmp    $0x7d8,%ebp
 804a3b5:	b8 42 bf f0 93       	mov    $0x93f0bf42,%eax
 804a3ba:	ba 00 00 00 00       	mov    $0x0,%edx
 804a3bf:	0f 44 d0             	cmove  %eax,%edx
 804a3c2:	b8 d1 4f 6e 21       	mov    $0x216e4fd1,%eax
 804a3c7:	bf 00 00 00 00       	mov    $0x0,%edi
 804a3cc:	0f 44 f8             	cmove  %eax,%edi
 804a3cf:	01 df                	add    %ebx,%edi
 804a3d1:	11 f2                	adc    %esi,%edx
 804a3d3:	81 fd e0 07 00 00    	cmp    $0x7e0,%ebp
 804a3d9:	b8 f8 42 5d d9       	mov    $0xd95d42f8,%eax
 804a3de:	be 00 00 00 00       	mov    $0x0,%esi
 804a3e3:	0f 44 f0             	cmove  %eax,%esi
 804a3e6:	b8 21 1f 63 7c       	mov    $0x7c631f21,%eax
 804a3eb:	bb 00 00 00 00       	mov    $0x0,%ebx
 804a3f0:	0f 44 d8             	cmove  %eax,%ebx
 804a3f3:	01 fb                	add    %edi,%ebx
 804a3f5:	11 d6                	adc    %edx,%esi
 804a3f7:	81 fd e8 07 00 00    	cmp    $0x7e8,%ebp
 804a3fd:	b8 1e 86 4c 5d       	mov    $0x5d4c861e,%eax
 804a402:	ba 00 00 00 00       	mov    $0x0,%edx
 804a407:	0f 44 d0             	cmove  %eax,%edx
 804a40a:	b8 43 ca c5 0f       	mov    $0xfc5ca43,%eax
 804a40f:	bf 00 00 00 00       	mov    $0x0,%edi
 804a414:	0f 44 f8             	cmove  %eax,%edi
 804a417:	01 df                	add    %ebx,%edi
 804a419:	11 f2                	adc    %esi,%edx
 804a41b:	81 fd f0 07 00 00    	cmp    $0x7f0,%ebp
 804a421:	b8 39 db 71 da       	mov    $0xda71db39,%eax
 804a426:	be 00 00 00 00       	mov    $0x0,%esi
 804a42b:	0f 44 f0             	cmove  %eax,%esi
 804a42e:	b8 e3 aa 38 92       	mov    $0x9238aae3,%eax
 804a433:	bb 00 00 00 00       	mov    $0x0,%ebx
 804a438:	0f 44 d8             	cmove  %eax,%ebx
 804a43b:	01 fb                	add    %edi,%ebx
 804a43d:	11 d6                	adc    %edx,%esi
 804a43f:	81 fd f8 07 00 00    	cmp    $0x7f8,%ebp
 804a445:	b8 2a 91 d3 ec       	mov    $0xecd3912a,%eax
 804a44a:	ba 00 00 00 00       	mov    $0x0,%edx
 804a44f:	0f 44 d0             	cmove  %eax,%edx
 804a452:	b8 c6 42 57 15       	mov    $0x155742c6,%eax
 804a457:	0f 44 c8             	cmove  %eax,%ecx
 804a45a:	01 d9                	add    %ebx,%ecx
 804a45c:	89 4c 24 18          	mov    %ecx,0x18(%esp)
 804a460:	11 f2                	adc    %esi,%edx
 804a462:	89 94 24 c0 01 00 00 	mov    %edx,0x1c0(%esp)
 804a469:	0f b6 b4 24 80 00 00 	movzbl 0x80(%esp),%esi
 804a470:	00 
 804a471:	c1 e6 03             	shl    $0x3,%esi
 804a474:	c5 f9 6e c6          	vmovd  %esi,%xmm0
 804a478:	c4 e2 79 58 c0       	vpbroadcastd %xmm0,%xmm0
 804a47d:	c5 f1 ef c9          	vpxor  %xmm1,%xmm1,%xmm1
 804a481:	c5 e9 ef d2          	vpxor  %xmm2,%xmm2,%xmm2
 804a485:	bf 80 fc ff ff       	mov    $0xfffffc80,%edi
 804a48a:	66 0f 1f 44 00 00    	nopw   0x0(%eax,%eax,1)
 804a490:	c5 fa 6f 9f 8c 33 06 	vmovdqu 0x806338c(%edi),%xmm3
 804a497:	08 
 804a498:	c5 fa 6f a7 9c 33 06 	vmovdqu 0x806339c(%edi),%xmm4
 804a49f:	08 
 804a4a0:	c5 d5 76 ed          	vpcmpeqd %ymm5,%ymm5,%ymm5
 804a4a4:	c4 e2 d5 90 34 1d 08 	vpgatherdq %ymm5,0x8062808(,%xmm3,1),%ymm6
 804a4ab:	28 06 08 
 804a4ae:	c5 d5 76 ed          	vpcmpeqd %ymm5,%ymm5,%ymm5
 804a4b2:	c4 e2 d5 90 3c 25 08 	vpgatherdq %ymm5,0x8062808(,%xmm4,1),%ymm7
 804a4b9:	28 06 08 
 804a4bc:	c5 f9 76 db          	vpcmpeqd %xmm3,%xmm0,%xmm3
 804a4c0:	c4 e2 7d 25 db       	vpmovsxdq %xmm3,%ymm3
 804a4c5:	c5 e5 db de          	vpand  %ymm6,%ymm3,%ymm3
 804a4c9:	c5 e5 d4 c9          	vpaddq %ymm1,%ymm3,%ymm1
 804a4cd:	c5 f9 76 dc          	vpcmpeqd %xmm4,%xmm0,%xmm3
 804a4d1:	c4 e2 7d 25 db       	vpmovsxdq %xmm3,%ymm3
 804a4d6:	c5 e5 db df          	vpand  %ymm7,%ymm3,%ymm3
 804a4da:	c5 e5 d4 d2          	vpaddq %ymm2,%ymm3,%ymm2
 804a4de:	c5 fa 6f 9f ac 33 06 	vmovdqu 0x80633ac(%edi),%xmm3
 804a4e5:	08 
 804a4e6:	c5 fa 6f a7 bc 33 06 	vmovdqu 0x80633bc(%edi),%xmm4
 804a4ed:	08 
 804a4ee:	c5 d5 76 ed          	vpcmpeqd %ymm5,%ymm5,%ymm5
 804a4f2:	c4 e2 d5 90 34 1d 08 	vpgatherdq %ymm5,0x8062808(,%xmm3,1),%ymm6
 804a4f9:	28 06 08 
 804a4fc:	c5 d5 76 ed          	vpcmpeqd %ymm5,%ymm5,%ymm5
 804a500:	c4 e2 d5 90 3c 25 08 	vpgatherdq %ymm5,0x8062808(,%xmm4,1),%ymm7
 804a507:	28 06 08 
 804a50a:	c5 f9 76 db          	vpcmpeqd %xmm3,%xmm0,%xmm3
 804a50e:	c4 e2 7d 25 db       	vpmovsxdq %xmm3,%ymm3
 804a513:	c5 e5 db de          	vpand  %ymm6,%ymm3,%ymm3
 804a517:	c5 f9 76 e4          	vpcmpeqd %xmm4,%xmm0,%xmm4
 804a51b:	c4 e2 7d 25 e4       	vpmovsxdq %xmm4,%ymm4
 804a520:	c5 dd db e7          	vpand  %ymm7,%ymm4,%ymm4
 804a524:	c5 fa 6f af cc 33 06 	vmovdqu 0x80633cc(%edi),%xmm5
 804a52b:	08 
 804a52c:	c5 cd 76 f6          	vpcmpeqd %ymm6,%ymm6,%ymm6
 804a530:	c4 e2 cd 90 3c 2d 08 	vpgatherdq %ymm6,0x8062808(,%xmm5,1),%ymm7
 804a537:	28 06 08 
 804a53a:	c5 f9 76 ed          	vpcmpeqd %xmm5,%xmm0,%xmm5
 804a53e:	c4 e2 7d 25 ed       	vpmovsxdq %xmm5,%ymm5
 804a543:	c5 d5 db ef          	vpand  %ymm7,%ymm5,%ymm5
 804a547:	c5 fa 6f b7 dc 33 06 	vmovdqu 0x80633dc(%edi),%xmm6
 804a54e:	08 
 804a54f:	c5 e5 d4 dd          	vpaddq %ymm5,%ymm3,%ymm3
 804a553:	c5 d5 76 ed          	vpcmpeqd %ymm5,%ymm5,%ymm5
 804a557:	c5 f5 d4 cb          	vpaddq %ymm3,%ymm1,%ymm1
 804a55b:	c4 e2 d5 90 1c 35 08 	vpgatherdq %ymm5,0x8062808(,%xmm6,1),%ymm3
 804a562:	28 06 08 
 804a565:	c5 f9 76 ee          	vpcmpeqd %xmm6,%xmm0,%xmm5
 804a569:	c4 e2 7d 25 ed       	vpmovsxdq %xmm5,%ymm5
 804a56e:	c5 d5 db db          	vpand  %ymm3,%ymm5,%ymm3
 804a572:	c5 dd d4 db          	vpaddq %ymm3,%ymm4,%ymm3
 804a576:	c5 ed d4 d3          	vpaddq %ymm3,%ymm2,%ymm2
 804a57a:	85 ff                	test   %edi,%edi
 804a57c:	74 56                	je     804a5d4 <main+0x13b4>
 804a57e:	c5 fa 6f 9f ec 33 06 	vmovdqu 0x80633ec(%edi),%xmm3
 804a585:	08 
 804a586:	c5 fa 6f a7 fc 33 06 	vmovdqu 0x80633fc(%edi),%xmm4
 804a58d:	08 
 804a58e:	c5 d5 76 ed          	vpcmpeqd %ymm5,%ymm5,%ymm5
 804a592:	c4 e2 d5 90 34 1d 08 	vpgatherdq %ymm5,0x8062808(,%xmm3,1),%ymm6
 804a599:	28 06 08 
 804a59c:	c5 d5 76 ed          	vpcmpeqd %ymm5,%ymm5,%ymm5
 804a5a0:	c4 e2 d5 90 3c 25 08 	vpgatherdq %ymm5,0x8062808(,%xmm4,1),%ymm7
 804a5a7:	28 06 08 
 804a5aa:	c5 f9 76 db          	vpcmpeqd %xmm3,%xmm0,%xmm3
 804a5ae:	c4 e2 7d 25 db       	vpmovsxdq %xmm3,%ymm3
 804a5b3:	c5 e5 db de          	vpand  %ymm6,%ymm3,%ymm3
 804a5b7:	c5 f9 76 e4          	vpcmpeqd %xmm4,%xmm0,%xmm4
 804a5bb:	c4 e2 7d 25 e4       	vpmovsxdq %xmm4,%ymm4
 804a5c0:	c5 dd db e7          	vpand  %ymm7,%ymm4,%ymm4
 804a5c4:	c5 e5 d4 c9          	vpaddq %ymm1,%ymm3,%ymm1
 804a5c8:	c5 dd d4 d2          	vpaddq %ymm2,%ymm4,%ymm2
 804a5cc:	83 ef 80             	sub    $0xffffff80,%edi
 804a5cf:	e9 bc fe ff ff       	jmp    804a490 <main+0x1270>
 804a5d4:	c5 ed d4 c1          	vpaddq %ymm1,%ymm2,%ymm0
 804a5d8:	c4 e3 7d 39 c1 01    	vextracti128 $0x1,%ymm0,%xmm1
 804a5de:	c5 f9 d4 c1          	vpaddq %xmm1,%xmm0,%xmm0
 804a5e2:	c5 f9 70 c8 ee       	vpshufd $0xee,%xmm0,%xmm1
 804a5e7:	c5 f9 d4 c1          	vpaddq %xmm1,%xmm0,%xmm0
 804a5eb:	31 ff                	xor    %edi,%edi
 804a5ed:	81 fe c8 07 00 00    	cmp    $0x7c8,%esi
 804a5f3:	b8 eb 79 82 49       	mov    $0x498279eb,%eax
 804a5f8:	ba 00 00 00 00       	mov    $0x0,%edx
 804a5fd:	0f 44 d0             	cmove  %eax,%edx
 804a600:	b8 a2 fb b2 10       	mov    $0x10b2fba2,%eax
 804a605:	bb 00 00 00 00       	mov    $0x0,%ebx
 804a60a:	0f 44 d8             	cmove  %eax,%ebx
 804a60d:	c5 f9 7e c0          	vmovd  %xmm0,%eax
 804a611:	01 c3                	add    %eax,%ebx
 804a613:	c4 e3 79 16 c0 01    	vpextrd $0x1,%xmm0,%eax
 804a619:	11 c2                	adc    %eax,%edx
 804a61b:	81 fe d0 07 00 00    	cmp    $0x7d0,%esi
 804a621:	b9 27 74 e9 a7       	mov    $0xa7e97427,%ecx
 804a626:	b8 00 00 00 00       	mov    $0x0,%eax
 804a62b:	0f 44 c1             	cmove  %ecx,%eax
 804a62e:	bd 80 9d 3a ba       	mov    $0xba3a9d80,%ebp
 804a633:	b9 00 00 00 00       	mov    $0x0,%ecx
 804a638:	0f 44 cd             	cmove  %ebp,%ecx
 804a63b:	01 d9                	add    %ebx,%ecx
 804a63d:	11 d0                	adc    %edx,%eax
 804a63f:	81 fe d8 07 00 00    	cmp    $0x7d8,%esi
 804a645:	bb bf 42 93 f0       	mov    $0xf09342bf,%ebx
 804a64a:	ba 00 00 00 00       	mov    $0x0,%edx
 804a64f:	0f 44 d3             	cmove  %ebx,%edx
 804a652:	bd 4f d1 21 6e       	mov    $0x6e21d14f,%ebp
 804a657:	bb 00 00 00 00       	mov    $0x0,%ebx
 804a65c:	0f 44 dd             	cmove  %ebp,%ebx
 804a65f:	01 cb                	add    %ecx,%ebx
 804a661:	11 c2                	adc    %eax,%edx
 804a663:	81 fe e0 07 00 00    	cmp    $0x7e0,%esi
 804a669:	b9 42 f8 d9 5d       	mov    $0x5dd9f842,%ecx
 804a66e:	b8 00 00 00 00       	mov    $0x0,%eax
 804a673:	0f 44 c1             	cmove  %ecx,%eax
 804a676:	bd 1f 21 7c 63       	mov    $0x637c211f,%ebp
 804a67b:	b9 00 00 00 00       	mov    $0x0,%ecx
 804a680:	0f 44 cd             	cmove  %ebp,%ecx
 804a683:	01 d9                	add    %ebx,%ecx
 804a685:	11 d0                	adc    %edx,%eax
 804a687:	81 fe e8 07 00 00    	cmp    $0x7e8,%esi
 804a68d:	bb 86 1e 5d 4c       	mov    $0x4c5d1e86,%ebx
 804a692:	ba 00 00 00 00       	mov    $0x0,%edx
 804a697:	0f 44 d3             	cmove  %ebx,%edx
 804a69a:	bd ca 43 0f c5       	mov    $0xc50f43ca,%ebp
 804a69f:	bb 00 00 00 00       	mov    $0x0,%ebx
 804a6a4:	0f 44 dd             	cmove  %ebp,%ebx
 804a6a7:	01 cb                	add    %ecx,%ebx
 804a6a9:	11 c2                	adc    %eax,%edx
 804a6ab:	81 fe f0 07 00 00    	cmp    $0x7f0,%esi
 804a6b1:	b9 db 39 da 71       	mov    $0x71da39db,%ecx
 804a6b6:	b8 00 00 00 00       	mov    $0x0,%eax
 804a6bb:	0f 44 c1             	cmove  %ecx,%eax
 804a6be:	bd aa e3 92 38       	mov    $0x3892e3aa,%ebp
 804a6c3:	b9 00 00 00 00       	mov    $0x0,%ecx
 804a6c8:	0f 44 cd             	cmove  %ebp,%ecx
 804a6cb:	01 d9                	add    %ebx,%ecx
 804a6cd:	11 d0                	adc    %edx,%eax
 804a6cf:	81 fe f8 07 00 00    	cmp    $0x7f8,%esi
 804a6d5:	ba 91 2a ec d3       	mov    $0xd3ec2a91,%edx
 804a6da:	be 00 00 00 00       	mov    $0x0,%esi
 804a6df:	0f 44 f2             	cmove  %edx,%esi
 804a6e2:	ba 42 c6 15 57       	mov    $0x5715c642,%edx
 804a6e7:	0f 44 fa             	cmove  %edx,%edi
 804a6ea:	01 cf                	add    %ecx,%edi
 804a6ec:	11 c6                	adc    %eax,%esi
 804a6ee:	8b 84 24 c0 00 00 00 	mov    0xc0(%esp),%eax
 804a6f5:	33 44 24 20          	xor    0x20(%esp),%eax
 804a6f9:	33 84 24 00 01 00 00 	xor    0x100(%esp),%eax
 804a700:	33 84 24 e0 00 00 00 	xor    0xe0(%esp),%eax
 804a707:	33 44 24 14          	xor    0x14(%esp),%eax
 804a70b:	33 84 24 80 01 00 00 	xor    0x180(%esp),%eax
 804a712:	33 84 24 60 01 00 00 	xor    0x160(%esp),%eax
 804a719:	33 44 24 18          	xor    0x18(%esp),%eax
 804a71d:	31 f8                	xor    %edi,%eax
 804a71f:	8b 54 24 0c          	mov    0xc(%esp),%edx
 804a723:	33 54 24 40          	xor    0x40(%esp),%edx
 804a727:	33 94 24 20 01 00 00 	xor    0x120(%esp),%edx
 804a72e:	33 54 24 08          	xor    0x8(%esp),%edx
 804a732:	33 94 24 a0 01 00 00 	xor    0x1a0(%esp),%edx
 804a739:	33 54 24 10          	xor    0x10(%esp),%edx
 804a73d:	33 94 24 e0 01 00 00 	xor    0x1e0(%esp),%edx
 804a744:	33 94 24 c0 01 00 00 	xor    0x1c0(%esp),%edx
 804a74b:	31 f2                	xor    %esi,%edx
 804a74d:	89 d1                	mov    %edx,%ecx
 804a74f:	81 f1 74 2f 54 ba    	xor    $0xba542f74,%ecx
 804a755:	89 84 24 c0 00 00 00 	mov    %eax,0xc0(%esp)
 804a75c:	35 4d d2 d3 53       	xor    $0x53d3d24d,%eax
 804a761:	89 44 24 20          	mov    %eax,0x20(%esp)
 804a765:	a3 c8 50 06 08       	mov    %eax,0x80650c8
 804a76a:	89 0d cc 50 06 08    	mov    %ecx,0x80650cc
 804a770:	89 4c 24 40          	mov    %ecx,0x40(%esp)
 804a774:	89 c8                	mov    %ecx,%eax
 804a776:	c1 e8 15             	shr    $0x15,%eax
 804a779:	83 e0 f8             	and    $0xfffffff8,%eax
 804a77c:	c5 f9 6e c0          	vmovd  %eax,%xmm0
 804a780:	c4 e2 79 58 c0       	vpbroadcastd %xmm0,%xmm0
 804a785:	c5 f1 ef c9          	vpxor  %xmm1,%xmm1,%xmm1
 804a789:	c5 e9 ef d2          	vpxor  %xmm2,%xmm2,%xmm2
 804a78d:	b9 80 fc ff ff       	mov    $0xfffffc80,%ecx
 804a792:	66 66 66 66 66 2e 0f 	data16 data16 data16 data16 nopw %cs:0x0(%eax,%eax,1)
 804a799:	1f 84 00 00 00 00 00 
 804a7a0:	c5 fa 6f 99 8c 33 06 	vmovdqu 0x806338c(%ecx),%xmm3
 804a7a7:	08 
 804a7a8:	c5 fa 6f a1 9c 33 06 	vmovdqu 0x806339c(%ecx),%xmm4
 804a7af:	08 
 804a7b0:	c5 d5 76 ed          	vpcmpeqd %ymm5,%ymm5,%ymm5
 804a7b4:	c4 e2 d5 90 34 1d 08 	vpgatherdq %ymm5,0x805f008(,%xmm3,1),%ymm6
 804a7bb:	f0 05 08 
 804a7be:	c5 d5 76 ed          	vpcmpeqd %ymm5,%ymm5,%ymm5
 804a7c2:	c4 e2 d5 90 3c 25 08 	vpgatherdq %ymm5,0x805f008(,%xmm4,1),%ymm7
 804a7c9:	f0 05 08 
 804a7cc:	c5 f9 76 db          	vpcmpeqd %xmm3,%xmm0,%xmm3
 804a7d0:	c4 e2 7d 25 db       	vpmovsxdq %xmm3,%ymm3
 804a7d5:	c5 e5 db de          	vpand  %ymm6,%ymm3,%ymm3
 804a7d9:	c5 e5 d4 c9          	vpaddq %ymm1,%ymm3,%ymm1
 804a7dd:	c5 f9 76 dc          	vpcmpeqd %xmm4,%xmm0,%xmm3
 804a7e1:	c4 e2 7d 25 db       	vpmovsxdq %xmm3,%ymm3
 804a7e6:	c5 e5 db df          	vpand  %ymm7,%ymm3,%ymm3
 804a7ea:	c5 e5 d4 d2          	vpaddq %ymm2,%ymm3,%ymm2
 804a7ee:	c5 fa 6f 99 ac 33 06 	vmovdqu 0x80633ac(%ecx),%xmm3
 804a7f5:	08 
 804a7f6:	c5 fa 6f a1 bc 33 06 	vmovdqu 0x80633bc(%ecx),%xmm4
 804a7fd:	08 
 804a7fe:	c5 d5 76 ed          	vpcmpeqd %ymm5,%ymm5,%ymm5
 804a802:	c4 e2 d5 90 34 1d 08 	vpgatherdq %ymm5,0x805f008(,%xmm3,1),%ymm6
 804a809:	f0 05 08 
 804a80c:	c5 d5 76 ed          	vpcmpeqd %ymm5,%ymm5,%ymm5
 804a810:	c4 e2 d5 90 3c 25 08 	vpgatherdq %ymm5,0x805f008(,%xmm4,1),%ymm7
 804a817:	f0 05 08 
 804a81a:	c5 f9 76 db          	vpcmpeqd %xmm3,%xmm0,%xmm3
 804a81e:	c4 e2 7d 25 db       	vpmovsxdq %xmm3,%ymm3
 804a823:	c5 e5 db de          	vpand  %ymm6,%ymm3,%ymm3
 804a827:	c5 f9 76 e4          	vpcmpeqd %xmm4,%xmm0,%xmm4
 804a82b:	c4 e2 7d 25 e4       	vpmovsxdq %xmm4,%ymm4
 804a830:	c5 dd db e7          	vpand  %ymm7,%ymm4,%ymm4
 804a834:	c5 fa 6f a9 cc 33 06 	vmovdqu 0x80633cc(%ecx),%xmm5
 804a83b:	08 
 804a83c:	c5 cd 76 f6          	vpcmpeqd %ymm6,%ymm6,%ymm6
 804a840:	c4 e2 cd 90 3c 2d 08 	vpgatherdq %ymm6,0x805f008(,%xmm5,1),%ymm7
 804a847:	f0 05 08 
 804a84a:	c5 f9 76 ed          	vpcmpeqd %xmm5,%xmm0,%xmm5
 804a84e:	c4 e2 7d 25 ed       	vpmovsxdq %xmm5,%ymm5
 804a853:	c5 d5 db ef          	vpand  %ymm7,%ymm5,%ymm5
 804a857:	c5 fa 6f b1 dc 33 06 	vmovdqu 0x80633dc(%ecx),%xmm6
 804a85e:	08 
 804a85f:	c5 e5 d4 dd          	vpaddq %ymm5,%ymm3,%ymm3
 804a863:	c5 d5 76 ed          	vpcmpeqd %ymm5,%ymm5,%ymm5
 804a867:	c5 f5 d4 cb          	vpaddq %ymm3,%ymm1,%ymm1
 804a86b:	c4 e2 d5 90 1c 35 08 	vpgatherdq %ymm5,0x805f008(,%xmm6,1),%ymm3
 804a872:	f0 05 08 
 804a875:	c5 f9 76 ee          	vpcmpeqd %xmm6,%xmm0,%xmm5
 804a879:	c4 e2 7d 25 ed       	vpmovsxdq %xmm5,%ymm5
 804a87e:	c5 d5 db db          	vpand  %ymm3,%ymm5,%ymm3
 804a882:	c5 dd d4 db          	vpaddq %ymm3,%ymm4,%ymm3
 804a886:	c5 ed d4 d3          	vpaddq %ymm3,%ymm2,%ymm2
 804a88a:	85 c9                	test   %ecx,%ecx
 804a88c:	74 56                	je     804a8e4 <main+0x16c4>
 804a88e:	c5 fa 6f 99 ec 33 06 	vmovdqu 0x80633ec(%ecx),%xmm3
 804a895:	08 
 804a896:	c5 fa 6f a1 fc 33 06 	vmovdqu 0x80633fc(%ecx),%xmm4
 804a89d:	08 
 804a89e:	c5 d5 76 ed          	vpcmpeqd %ymm5,%ymm5,%ymm5
 804a8a2:	c4 e2 d5 90 34 1d 08 	vpgatherdq %ymm5,0x805f008(,%xmm3,1),%ymm6
 804a8a9:	f0 05 08 
 804a8ac:	c5 d5 76 ed          	vpcmpeqd %ymm5,%ymm5,%ymm5
 804a8b0:	c4 e2 d5 90 3c 25 08 	vpgatherdq %ymm5,0x805f008(,%xmm4,1),%ymm7
 804a8b7:	f0 05 08 
 804a8ba:	c5 f9 76 db          	vpcmpeqd %xmm3,%xmm0,%xmm3
 804a8be:	c4 e2 7d 25 db       	vpmovsxdq %xmm3,%ymm3
 804a8c3:	c5 e5 db de          	vpand  %ymm6,%ymm3,%ymm3
 804a8c7:	c5 f9 76 e4          	vpcmpeqd %xmm4,%xmm0,%xmm4
 804a8cb:	c4 e2 7d 25 e4       	vpmovsxdq %xmm4,%ymm4
 804a8d0:	c5 dd db e7          	vpand  %ymm7,%ymm4,%ymm4
 804a8d4:	c5 e5 d4 c9          	vpaddq %ymm1,%ymm3,%ymm1
 804a8d8:	c5 dd d4 d2          	vpaddq %ymm2,%ymm4,%ymm2
 804a8dc:	83 e9 80             	sub    $0xffffff80,%ecx
 804a8df:	e9 bc fe ff ff       	jmp    804a7a0 <main+0x1580>
 804a8e4:	89 54 24 0c          	mov    %edx,0xc(%esp)
 804a8e8:	c5 ed d4 c1          	vpaddq %ymm1,%ymm2,%ymm0
 804a8ec:	c4 e3 7d 39 c1 01    	vextracti128 $0x1,%ymm0,%xmm1
 804a8f2:	c5 f9 d4 c1          	vpaddq %xmm1,%xmm0,%xmm0
 804a8f6:	c5 f9 70 c8 ee       	vpshufd $0xee,%xmm0,%xmm1
 804a8fb:	c5 f9 d4 c1          	vpaddq %xmm1,%xmm0,%xmm0
 804a8ff:	c4 e3 79 16 c1 01    	vpextrd $0x1,%xmm0,%ecx
 804a905:	c5 f9 7e c2          	vmovd  %xmm0,%edx
 804a909:	31 ff                	xor    %edi,%edi
 804a90b:	3d c8 07 00 00       	cmp    $0x7c8,%eax
 804a910:	be 00 00 00 00       	mov    $0x0,%esi
 804a915:	bb 10 b2 fb a2       	mov    $0xa2fbb210,%ebx
 804a91a:	0f 44 f3             	cmove  %ebx,%esi
 804a91d:	bb 00 00 00 00       	mov    $0x0,%ebx
 804a922:	bd 49 82 79 eb       	mov    $0xeb798249,%ebp
 804a927:	0f 44 dd             	cmove  %ebp,%ebx
 804a92a:	01 d3                	add    %edx,%ebx
 804a92c:	11 ce                	adc    %ecx,%esi
 804a92e:	3d d0 07 00 00       	cmp    $0x7d0,%eax
 804a933:	b9 00 00 00 00       	mov    $0x0,%ecx
 804a938:	ba ba 3a 9d 80       	mov    $0x809d3aba,%edx
 804a93d:	0f 44 ca             	cmove  %edx,%ecx
 804a940:	ba 00 00 00 00       	mov    $0x0,%edx
 804a945:	bd a7 e9 74 27       	mov    $0x2774e9a7,%ebp
 804a94a:	0f 44 d5             	cmove  %ebp,%edx
 804a94d:	01 da                	add    %ebx,%edx
 804a94f:	11 f1                	adc    %esi,%ecx
 804a951:	3d d8 07 00 00       	cmp    $0x7d8,%eax
 804a956:	be 00 00 00 00       	mov    $0x0,%esi
 804a95b:	bb 6e 21 d1 4f       	mov    $0x4fd1216e,%ebx
 804a960:	0f 44 f3             	cmove  %ebx,%esi
 804a963:	bb 00 00 00 00       	mov    $0x0,%ebx
 804a968:	bd f0 93 42 bf       	mov    $0xbf4293f0,%ebp
 804a96d:	0f 44 dd             	cmove  %ebp,%ebx
 804a970:	01 d3                	add    %edx,%ebx
 804a972:	11 ce                	adc    %ecx,%esi
 804a974:	3d e0 07 00 00       	cmp    $0x7e0,%eax
 804a979:	b9 00 00 00 00       	mov    $0x0,%ecx
 804a97e:	ba 63 7c 21 1f       	mov    $0x1f217c63,%edx
 804a983:	0f 44 ca             	cmove  %edx,%ecx
 804a986:	ba 00 00 00 00       	mov    $0x0,%edx
 804a98b:	bd 5d d9 f8 42       	mov    $0x42f8d95d,%ebp
 804a990:	0f 44 d5             	cmove  %ebp,%edx
 804a993:	01 da                	add    %ebx,%edx
 804a995:	11 f1                	adc    %esi,%ecx
 804a997:	3d e8 07 00 00       	cmp    $0x7e8,%eax
 804a99c:	be 00 00 00 00       	mov    $0x0,%esi
 804a9a1:	bb c5 0f 43 ca       	mov    $0xca430fc5,%ebx
 804a9a6:	0f 44 f3             	cmove  %ebx,%esi
 804a9a9:	bb 00 00 00 00       	mov    $0x0,%ebx
 804a9ae:	bd 4c 5d 1e 86       	mov    $0x861e5d4c,%ebp
 804a9b3:	0f 44 dd             	cmove  %ebp,%ebx
 804a9b6:	01 d3                	add    %edx,%ebx
 804a9b8:	11 ce                	adc    %ecx,%esi
 804a9ba:	3d f0 07 00 00       	cmp    $0x7f0,%eax
 804a9bf:	b9 00 00 00 00       	mov    $0x0,%ecx
 804a9c4:	ba 38 92 e3 aa       	mov    $0xaae39238,%edx
 804a9c9:	0f 44 ca             	cmove  %edx,%ecx
 804a9cc:	ba 00 00 00 00       	mov    $0x0,%edx
 804a9d1:	bd 71 da 39 db       	mov    $0xdb39da71,%ebp
 804a9d6:	0f 44 d5             	cmove  %ebp,%edx
 804a9d9:	01 da                	add    %ebx,%edx
 804a9db:	11 f1                	adc    %esi,%ecx
 804a9dd:	3d f8 07 00 00       	cmp    $0x7f8,%eax
 804a9e2:	be 00 00 00 00       	mov    $0x0,%esi
 804a9e7:	b8 57 15 c6 42       	mov    $0x42c61557,%eax
 804a9ec:	0f 44 f0             	cmove  %eax,%esi
 804a9ef:	b8 d3 ec 2a 91       	mov    $0x912aecd3,%eax
 804a9f4:	0f 44 f8             	cmove  %eax,%edi
 804a9f7:	01 d7                	add    %edx,%edi
 804a9f9:	89 bc 24 00 01 00 00 	mov    %edi,0x100(%esp)
 804aa00:	11 ce                	adc    %ecx,%esi
 804aa02:	89 b4 24 20 01 00 00 	mov    %esi,0x120(%esp)
 804aa09:	8b 44 24 40          	mov    0x40(%esp),%eax
 804aa0d:	c1 e8 0d             	shr    $0xd,%eax
 804aa10:	25 f8 07 00 00       	and    $0x7f8,%eax
 804aa15:	c5 f9 6e c0          	vmovd  %eax,%xmm0
 804aa19:	c4 e2 79 58 c0       	vpbroadcastd %xmm0,%xmm0
 804aa1e:	c5 f1 ef c9          	vpxor  %xmm1,%xmm1,%xmm1
 804aa22:	b9 80 fc ff ff       	mov    $0xfffffc80,%ecx
 804aa27:	c5 e9 ef d2          	vpxor  %xmm2,%xmm2,%xmm2
 804aa2b:	0f 1f 44 00 00       	nopl   0x0(%eax,%eax,1)
 804aa30:	c5 fa 6f 99 8c 33 06 	vmovdqu 0x806338c(%ecx),%xmm3
 804aa37:	08 
 804aa38:	c5 fa 6f a1 9c 33 06 	vmovdqu 0x806339c(%ecx),%xmm4
 804aa3f:	08 
 804aa40:	c5 d5 76 ed          	vpcmpeqd %ymm5,%ymm5,%ymm5
 804aa44:	c4 e2 d5 90 34 1d 08 	vpgatherdq %ymm5,0x805f808(,%xmm3,1),%ymm6
 804aa4b:	f8 05 08 
 804aa4e:	c5 d5 76 ed          	vpcmpeqd %ymm5,%ymm5,%ymm5
 804aa52:	c4 e2 d5 90 3c 25 08 	vpgatherdq %ymm5,0x805f808(,%xmm4,1),%ymm7
 804aa59:	f8 05 08 
 804aa5c:	c5 f9 76 db          	vpcmpeqd %xmm3,%xmm0,%xmm3
 804aa60:	c4 e2 7d 25 db       	vpmovsxdq %xmm3,%ymm3
 804aa65:	c5 e5 db de          	vpand  %ymm6,%ymm3,%ymm3
 804aa69:	c5 e5 d4 c9          	vpaddq %ymm1,%ymm3,%ymm1
 804aa6d:	c5 f9 76 dc          	vpcmpeqd %xmm4,%xmm0,%xmm3
 804aa71:	c4 e2 7d 25 db       	vpmovsxdq %xmm3,%ymm3
 804aa76:	c5 e5 db df          	vpand  %ymm7,%ymm3,%ymm3
 804aa7a:	c5 e5 d4 d2          	vpaddq %ymm2,%ymm3,%ymm2
 804aa7e:	c5 fa 6f 99 ac 33 06 	vmovdqu 0x80633ac(%ecx),%xmm3
 804aa85:	08 
 804aa86:	c5 fa 6f a1 bc 33 06 	vmovdqu 0x80633bc(%ecx),%xmm4
 804aa8d:	08 
 804aa8e:	c5 d5 76 ed          	vpcmpeqd %ymm5,%ymm5,%ymm5
 804aa92:	c4 e2 d5 90 34 1d 08 	vpgatherdq %ymm5,0x805f808(,%xmm3,1),%ymm6
 804aa99:	f8 05 08 
 804aa9c:	c5 d5 76 ed          	vpcmpeqd %ymm5,%ymm5,%ymm5
 804aaa0:	c4 e2 d5 90 3c 25 08 	vpgatherdq %ymm5,0x805f808(,%xmm4,1),%ymm7
 804aaa7:	f8 05 08 
 804aaaa:	c5 f9 76 db          	vpcmpeqd %xmm3,%xmm0,%xmm3
 804aaae:	c4 e2 7d 25 db       	vpmovsxdq %xmm3,%ymm3
 804aab3:	c5 e5 db de          	vpand  %ymm6,%ymm3,%ymm3
 804aab7:	c5 f9 76 e4          	vpcmpeqd %xmm4,%xmm0,%xmm4
 804aabb:	c4 e2 7d 25 e4       	vpmovsxdq %xmm4,%ymm4
 804aac0:	c5 dd db e7          	vpand  %ymm7,%ymm4,%ymm4
 804aac4:	c5 fa 6f a9 cc 33 06 	vmovdqu 0x80633cc(%ecx),%xmm5
 804aacb:	08 
 804aacc:	c5 cd 76 f6          	vpcmpeqd %ymm6,%ymm6,%ymm6
 804aad0:	c4 e2 cd 90 3c 2d 08 	vpgatherdq %ymm6,0x805f808(,%xmm5,1),%ymm7
 804aad7:	f8 05 08 
 804aada:	c5 f9 76 ed          	vpcmpeqd %xmm5,%xmm0,%xmm5
 804aade:	c4 e2 7d 25 ed       	vpmovsxdq %xmm5,%ymm5
 804aae3:	c5 d5 db ef          	vpand  %ymm7,%ymm5,%ymm5
 804aae7:	c5 fa 6f b1 dc 33 06 	vmovdqu 0x80633dc(%ecx),%xmm6
 804aaee:	08 
 804aaef:	c5 e5 d4 dd          	vpaddq %ymm5,%ymm3,%ymm3
 804aaf3:	c5 d5 76 ed          	vpcmpeqd %ymm5,%ymm5,%ymm5
 804aaf7:	c5 f5 d4 cb          	vpaddq %ymm3,%ymm1,%ymm1
 804aafb:	c4 e2 d5 90 1c 35 08 	vpgatherdq %ymm5,0x805f808(,%xmm6,1),%ymm3
 804ab02:	f8 05 08 
 804ab05:	c5 f9 76 ee          	vpcmpeqd %xmm6,%xmm0,%xmm5
 804ab09:	c4 e2 7d 25 ed       	vpmovsxdq %xmm5,%ymm5
 804ab0e:	c5 d5 db db          	vpand  %ymm3,%ymm5,%ymm3
 804ab12:	c5 dd d4 db          	vpaddq %ymm3,%ymm4,%ymm3
 804ab16:	c5 ed d4 d3          	vpaddq %ymm3,%ymm2,%ymm2
 804ab1a:	85 c9                	test   %ecx,%ecx
 804ab1c:	74 56                	je     804ab74 <main+0x1954>
 804ab1e:	c5 fa 6f 99 ec 33 06 	vmovdqu 0x80633ec(%ecx),%xmm3
 804ab25:	08 
 804ab26:	c5 fa 6f a1 fc 33 06 	vmovdqu 0x80633fc(%ecx),%xmm4
 804ab2d:	08 
 804ab2e:	c5 d5 76 ed          	vpcmpeqd %ymm5,%ymm5,%ymm5
 804ab32:	c4 e2 d5 90 34 1d 08 	vpgatherdq %ymm5,0x805f808(,%xmm3,1),%ymm6
 804ab39:	f8 05 08 
 804ab3c:	c5 d5 76 ed          	vpcmpeqd %ymm5,%ymm5,%ymm5
 804ab40:	c4 e2 d5 90 3c 25 08 	vpgatherdq %ymm5,0x805f808(,%xmm4,1),%ymm7
 804ab47:	f8 05 08 
 804ab4a:	c5 f9 76 db          	vpcmpeqd %xmm3,%xmm0,%xmm3
 804ab4e:	c4 e2 7d 25 db       	vpmovsxdq %xmm3,%ymm3
 804ab53:	c5 e5 db de          	vpand  %ymm6,%ymm3,%ymm3
 804ab57:	c5 f9 76 e4          	vpcmpeqd %xmm4,%xmm0,%xmm4
 804ab5b:	c4 e2 7d 25 e4       	vpmovsxdq %xmm4,%ymm4
 804ab60:	c5 dd db e7          	vpand  %ymm7,%ymm4,%ymm4
 804ab64:	c5 e5 d4 c9          	vpaddq %ymm1,%ymm3,%ymm1
 804ab68:	c5 dd d4 d2          	vpaddq %ymm2,%ymm4,%ymm2
 804ab6c:	83 e9 80             	sub    $0xffffff80,%ecx
 804ab6f:	e9 bc fe ff ff       	jmp    804aa30 <main+0x1810>
 804ab74:	c5 ed d4 c1          	vpaddq %ymm1,%ymm2,%ymm0
 804ab78:	c4 e3 7d 39 c1 01    	vextracti128 $0x1,%ymm0,%xmm1
 804ab7e:	c5 f9 d4 c1          	vpaddq %xmm1,%xmm0,%xmm0
 804ab82:	c5 f9 70 c8 ee       	vpshufd $0xee,%xmm0,%xmm1
 804ab87:	c5 f9 d4 c1          	vpaddq %xmm1,%xmm0,%xmm0
 804ab8b:	c4 e3 79 16 c1 01    	vpextrd $0x1,%xmm0,%ecx
 804ab91:	c5 f9 7e c2          	vmovd  %xmm0,%edx
 804ab95:	31 ff                	xor    %edi,%edi
 804ab97:	3d c8 07 00 00       	cmp    $0x7c8,%eax
 804ab9c:	be 00 00 00 00       	mov    $0x0,%esi
 804aba1:	bb b2 10 a2 fb       	mov    $0xfba210b2,%ebx
 804aba6:	0f 44 f3             	cmove  %ebx,%esi
 804aba9:	bb 00 00 00 00       	mov    $0x0,%ebx
 804abae:	bd 82 49 eb 79       	mov    $0x79eb4982,%ebp
 804abb3:	0f 44 dd             	cmove  %ebp,%ebx
 804abb6:	01 d3                	add    %edx,%ebx
 804abb8:	11 ce                	adc    %ecx,%esi
 804abba:	3d d0 07 00 00       	cmp    $0x7d0,%eax
 804abbf:	b9 00 00 00 00       	mov    $0x0,%ecx
 804abc4:	ba 3a ba 80 9d       	mov    $0x9d80ba3a,%edx
 804abc9:	0f 44 ca             	cmove  %edx,%ecx
 804abcc:	ba 00 00 00 00       	mov    $0x0,%edx
 804abd1:	bd e9 a7 27 74       	mov    $0x7427a7e9,%ebp
 804abd6:	0f 44 d5             	cmove  %ebp,%edx
 804abd9:	01 da                	add    %ebx,%edx
 804abdb:	11 f1                	adc    %esi,%ecx
 804abdd:	3d d8 07 00 00       	cmp    $0x7d8,%eax
 804abe2:	be 00 00 00 00       	mov    $0x0,%esi
 804abe7:	bb 21 6e 4f d1       	mov    $0xd14f6e21,%ebx
 804abec:	0f 44 f3             	cmove  %ebx,%esi
 804abef:	bb 00 00 00 00       	mov    $0x0,%ebx
 804abf4:	bd 93 f0 bf 42       	mov    $0x42bff093,%ebp
 804abf9:	0f 44 dd             	cmove  %ebp,%ebx
 804abfc:	01 d3                	add    %edx,%ebx
 804abfe:	11 ce                	adc    %ecx,%esi
 804ac00:	3d e0 07 00 00       	cmp    $0x7e0,%eax
 804ac05:	b9 00 00 00 00       	mov    $0x0,%ecx
 804ac0a:	ba 7c 63 1f 21       	mov    $0x211f637c,%edx
 804ac0f:	0f 44 ca             	cmove  %edx,%ecx
 804ac12:	ba 00 00 00 00       	mov    $0x0,%edx
 804ac17:	bd d9 5d 42 f8       	mov    $0xf8425dd9,%ebp
 804ac1c:	0f 44 d5             	cmove  %ebp,%edx
 804ac1f:	01 da                	add    %ebx,%edx
 804ac21:	11 f1                	adc    %esi,%ecx
 804ac23:	3d e8 07 00 00       	cmp    $0x7e8,%eax
 804ac28:	be 00 00 00 00       	mov    $0x0,%esi
 804ac2d:	bb 0f c5 ca 43       	mov    $0x43cac50f,%ebx
 804ac32:	0f 44 f3             	cmove  %ebx,%esi
 804ac35:	bb 00 00 00 00       	mov    $0x0,%ebx
 804ac3a:	bd 5d 4c 86 1e       	mov    $0x1e864c5d,%ebp
 804ac3f:	0f 44 dd             	cmove  %ebp,%ebx
 804ac42:	01 d3                	add    %edx,%ebx
 804ac44:	11 ce                	adc    %ecx,%esi
 804ac46:	3d f0 07 00 00       	cmp    $0x7f0,%eax
 804ac4b:	b9 00 00 00 00       	mov    $0x0,%ecx
 804ac50:	ba 92 38 aa e3       	mov    $0xe3aa3892,%edx
 804ac55:	0f 44 ca             	cmove  %edx,%ecx
 804ac58:	ba 00 00 00 00       	mov    $0x0,%edx
 804ac5d:	bd da 71 db 39       	mov    $0x39db71da,%ebp
 804ac62:	0f 44 d5             	cmove  %ebp,%edx
 804ac65:	01 da                	add    %ebx,%edx
 804ac67:	11 f1                	adc    %esi,%ecx
 804ac69:	3d f8 07 00 00       	cmp    $0x7f8,%eax
 804ac6e:	be 00 00 00 00       	mov    $0x0,%esi
 804ac73:	b8 15 57 42 c6       	mov    $0xc6425715,%eax
 804ac78:	0f 44 f0             	cmove  %eax,%esi
 804ac7b:	b8 ec d3 91 2a       	mov    $0x2a91d3ec,%eax
 804ac80:	0f 44 f8             	cmove  %eax,%edi
 804ac83:	01 d7                	add    %edx,%edi
 804ac85:	89 bc 24 e0 00 00 00 	mov    %edi,0xe0(%esp)
 804ac8c:	11 ce                	adc    %ecx,%esi
 804ac8e:	89 74 24 08          	mov    %esi,0x8(%esp)
 804ac92:	8b 44 24 40          	mov    0x40(%esp),%eax
 804ac96:	c1 e8 05             	shr    $0x5,%eax
 804ac99:	25 f8 07 00 00       	and    $0x7f8,%eax
 804ac9e:	c5 f9 6e c0          	vmovd  %eax,%xmm0
 804aca2:	c4 e2 79 58 c0       	vpbroadcastd %xmm0,%xmm0
 804aca7:	c5 f1 ef c9          	vpxor  %xmm1,%xmm1,%xmm1
 804acab:	b9 80 fc ff ff       	mov    $0xfffffc80,%ecx
 804acb0:	c5 e9 ef d2          	vpxor  %xmm2,%xmm2,%xmm2
 804acb4:	66 66 66 2e 0f 1f 84 	data16 data16 nopw %cs:0x0(%eax,%eax,1)
 804acbb:	00 00 00 00 00 
 804acc0:	c5 fa 6f 99 8c 33 06 	vmovdqu 0x806338c(%ecx),%xmm3
 804acc7:	08 
 804acc8:	c5 fa 6f a1 9c 33 06 	vmovdqu 0x806339c(%ecx),%xmm4
 804accf:	08 
 804acd0:	c5 d5 76 ed          	vpcmpeqd %ymm5,%ymm5,%ymm5
 804acd4:	c4 e2 d5 90 34 1d 08 	vpgatherdq %ymm5,0x8060008(,%xmm3,1),%ymm6
 804acdb:	00 06 08 
 804acde:	c5 d5 76 ed          	vpcmpeqd %ymm5,%ymm5,%ymm5
 804ace2:	c4 e2 d5 90 3c 25 08 	vpgatherdq %ymm5,0x8060008(,%xmm4,1),%ymm7
 804ace9:	00 06 08 
 804acec:	c5 f9 76 db          	vpcmpeqd %xmm3,%xmm0,%xmm3
 804acf0:	c4 e2 7d 25 db       	vpmovsxdq %xmm3,%ymm3
 804acf5:	c5 e5 db de          	vpand  %ymm6,%ymm3,%ymm3
 804acf9:	c5 e5 d4 c9          	vpaddq %ymm1,%ymm3,%ymm1
 804acfd:	c5 f9 76 dc          	vpcmpeqd %xmm4,%xmm0,%xmm3
 804ad01:	c4 e2 7d 25 db       	vpmovsxdq %xmm3,%ymm3
 804ad06:	c5 e5 db df          	vpand  %ymm7,%ymm3,%ymm3
 804ad0a:	c5 e5 d4 d2          	vpaddq %ymm2,%ymm3,%ymm2
 804ad0e:	c5 fa 6f 99 ac 33 06 	vmovdqu 0x80633ac(%ecx),%xmm3
 804ad15:	08 
 804ad16:	c5 fa 6f a1 bc 33 06 	vmovdqu 0x80633bc(%ecx),%xmm4
 804ad1d:	08 
 804ad1e:	c5 d5 76 ed          	vpcmpeqd %ymm5,%ymm5,%ymm5
 804ad22:	c4 e2 d5 90 34 1d 08 	vpgatherdq %ymm5,0x8060008(,%xmm3,1),%ymm6
 804ad29:	00 06 08 
 804ad2c:	c5 d5 76 ed          	vpcmpeqd %ymm5,%ymm5,%ymm5
 804ad30:	c4 e2 d5 90 3c 25 08 	vpgatherdq %ymm5,0x8060008(,%xmm4,1),%ymm7
 804ad37:	00 06 08 
 804ad3a:	c5 f9 76 db          	vpcmpeqd %xmm3,%xmm0,%xmm3
 804ad3e:	c4 e2 7d 25 db       	vpmovsxdq %xmm3,%ymm3
 804ad43:	c5 e5 db de          	vpand  %ymm6,%ymm3,%ymm3
 804ad47:	c5 f9 76 e4          	vpcmpeqd %xmm4,%xmm0,%xmm4
 804ad4b:	c4 e2 7d 25 e4       	vpmovsxdq %xmm4,%ymm4
 804ad50:	c5 dd db e7          	vpand  %ymm7,%ymm4,%ymm4
 804ad54:	c5 fa 6f a9 cc 33 06 	vmovdqu 0x80633cc(%ecx),%xmm5
 804ad5b:	08 
 804ad5c:	c5 cd 76 f6          	vpcmpeqd %ymm6,%ymm6,%ymm6
 804ad60:	c4 e2 cd 90 3c 2d 08 	vpgatherdq %ymm6,0x8060008(,%xmm5,1),%ymm7
 804ad67:	00 06 08 
 804ad6a:	c5 f9 76 ed          	vpcmpeqd %xmm5,%xmm0,%xmm5
 804ad6e:	c4 e2 7d 25 ed       	vpmovsxdq %xmm5,%ymm5
 804ad73:	c5 d5 db ef          	vpand  %ymm7,%ymm5,%ymm5
 804ad77:	c5 fa 6f b1 dc 33 06 	vmovdqu 0x80633dc(%ecx),%xmm6
 804ad7e:	08 
 804ad7f:	c5 e5 d4 dd          	vpaddq %ymm5,%ymm3,%ymm3
 804ad83:	c5 d5 76 ed          	vpcmpeqd %ymm5,%ymm5,%ymm5
 804ad87:	c5 f5 d4 cb          	vpaddq %ymm3,%ymm1,%ymm1
 804ad8b:	c4 e2 d5 90 1c 35 08 	vpgatherdq %ymm5,0x8060008(,%xmm6,1),%ymm3
 804ad92:	00 06 08 
 804ad95:	c5 f9 76 ee          	vpcmpeqd %xmm6,%xmm0,%xmm5
 804ad99:	c4 e2 7d 25 ed       	vpmovsxdq %xmm5,%ymm5
 804ad9e:	c5 d5 db db          	vpand  %ymm3,%ymm5,%ymm3
 804ada2:	c5 dd d4 db          	vpaddq %ymm3,%ymm4,%ymm3
 804ada6:	c5 ed d4 d3          	vpaddq %ymm3,%ymm2,%ymm2
 804adaa:	85 c9                	test   %ecx,%ecx
 804adac:	74 56                	je     804ae04 <main+0x1be4>
 804adae:	c5 fa 6f 99 ec 33 06 	vmovdqu 0x80633ec(%ecx),%xmm3
 804adb5:	08 
 804adb6:	c5 fa 6f a1 fc 33 06 	vmovdqu 0x80633fc(%ecx),%xmm4
 804adbd:	08 
 804adbe:	c5 d5 76 ed          	vpcmpeqd %ymm5,%ymm5,%ymm5
 804adc2:	c4 e2 d5 90 34 1d 08 	vpgatherdq %ymm5,0x8060008(,%xmm3,1),%ymm6
 804adc9:	00 06 08 
 804adcc:	c5 d5 76 ed          	vpcmpeqd %ymm5,%ymm5,%ymm5
 804add0:	c4 e2 d5 90 3c 25 08 	vpgatherdq %ymm5,0x8060008(,%xmm4,1),%ymm7
 804add7:	00 06 08 
 804adda:	c5 f9 76 db          	vpcmpeqd %xmm3,%xmm0,%xmm3
 804adde:	c4 e2 7d 25 db       	vpmovsxdq %xmm3,%ymm3
 804ade3:	c5 e5 db de          	vpand  %ymm6,%ymm3,%ymm3
 804ade7:	c5 f9 76 e4          	vpcmpeqd %xmm4,%xmm0,%xmm4
 804adeb:	c4 e2 7d 25 e4       	vpmovsxdq %xmm4,%ymm4
 804adf0:	c5 dd db e7          	vpand  %ymm7,%ymm4,%ymm4
 804adf4:	c5 e5 d4 c9          	vpaddq %ymm1,%ymm3,%ymm1
 804adf8:	c5 dd d4 d2          	vpaddq %ymm2,%ymm4,%ymm2
 804adfc:	83 e9 80             	sub    $0xffffff80,%ecx
 804adff:	e9 bc fe ff ff       	jmp    804acc0 <main+0x1aa0>
 804ae04:	c5 ed d4 c1          	vpaddq %ymm1,%ymm2,%ymm0
 804ae08:	c4 e3 7d 39 c1 01    	vextracti128 $0x1,%ymm0,%xmm1
 804ae0e:	c5 f9 d4 c1          	vpaddq %xmm1,%xmm0,%xmm0
 804ae12:	c5 f9 70 c8 ee       	vpshufd $0xee,%xmm0,%xmm1
 804ae17:	c5 f9 d4 c1          	vpaddq %xmm1,%xmm0,%xmm0
 804ae1b:	c4 e3 79 16 c1 01    	vpextrd $0x1,%xmm0,%ecx
 804ae21:	c5 f9 7e c2          	vmovd  %xmm0,%edx
 804ae25:	31 ff                	xor    %edi,%edi
 804ae27:	3d c8 07 00 00       	cmp    $0x7c8,%eax
 804ae2c:	be 00 00 00 00       	mov    $0x0,%esi
 804ae31:	bb fb a2 10 b2       	mov    $0xb210a2fb,%ebx
 804ae36:	0f 44 f3             	cmove  %ebx,%esi
 804ae39:	bb 00 00 00 00       	mov    $0x0,%ebx
 804ae3e:	bd 79 eb 49 82       	mov    $0x8249eb79,%ebp
 804ae43:	0f 44 dd             	cmove  %ebp,%ebx
 804ae46:	01 d3                	add    %edx,%ebx
 804ae48:	11 ce                	adc    %ecx,%esi
 804ae4a:	3d d0 07 00 00       	cmp    $0x7d0,%eax
 804ae4f:	b9 00 00 00 00       	mov    $0x0,%ecx
 804ae54:	ba 9d 80 ba 3a       	mov    $0x3aba809d,%edx
 804ae59:	0f 44 ca             	cmove  %edx,%ecx
 804ae5c:	ba 00 00 00 00       	mov    $0x0,%edx
 804ae61:	bd 74 27 a7 e9       	mov    $0xe9a72774,%ebp
 804ae66:	0f 44 d5             	cmove  %ebp,%edx
 804ae69:	01 da                	add    %ebx,%edx
 804ae6b:	11 f1                	adc    %esi,%ecx
 804ae6d:	3d d8 07 00 00       	cmp    $0x7d8,%eax
 804ae72:	be 00 00 00 00       	mov    $0x0,%esi
 804ae77:	bb d1 4f 6e 21       	mov    $0x216e4fd1,%ebx
 804ae7c:	0f 44 f3             	cmove  %ebx,%esi
 804ae7f:	bb 00 00 00 00       	mov    $0x0,%ebx
 804ae84:	bd 42 bf f0 93       	mov    $0x93f0bf42,%ebp
 804ae89:	0f 44 dd             	cmove  %ebp,%ebx
 804ae8c:	01 d3                	add    %edx,%ebx
 804ae8e:	11 ce                	adc    %ecx,%esi
 804ae90:	3d e0 07 00 00       	cmp    $0x7e0,%eax
 804ae95:	b9 00 00 00 00       	mov    $0x0,%ecx
 804ae9a:	ba 21 1f 63 7c       	mov    $0x7c631f21,%edx
 804ae9f:	0f 44 ca             	cmove  %edx,%ecx
 804aea2:	ba 00 00 00 00       	mov    $0x0,%edx
 804aea7:	bd f8 42 5d d9       	mov    $0xd95d42f8,%ebp
 804aeac:	0f 44 d5             	cmove  %ebp,%edx
 804aeaf:	01 da                	add    %ebx,%edx
 804aeb1:	11 f1                	adc    %esi,%ecx
 804aeb3:	3d e8 07 00 00       	cmp    $0x7e8,%eax
 804aeb8:	be 00 00 00 00       	mov    $0x0,%esi
 804aebd:	bb 43 ca c5 0f       	mov    $0xfc5ca43,%ebx
 804aec2:	0f 44 f3             	cmove  %ebx,%esi
 804aec5:	bb 00 00 00 00       	mov    $0x0,%ebx
 804aeca:	bd 1e 86 4c 5d       	mov    $0x5d4c861e,%ebp
 804aecf:	0f 44 dd             	cmove  %ebp,%ebx
 804aed2:	01 d3                	add    %edx,%ebx
 804aed4:	11 ce                	adc    %ecx,%esi
 804aed6:	3d f0 07 00 00       	cmp    $0x7f0,%eax
 804aedb:	b9 00 00 00 00       	mov    $0x0,%ecx
 804aee0:	ba e3 aa 38 92       	mov    $0x9238aae3,%edx
 804aee5:	0f 44 ca             	cmove  %edx,%ecx
 804aee8:	ba 00 00 00 00       	mov    $0x0,%edx
 804aeed:	bd 39 db 71 da       	mov    $0xda71db39,%ebp
 804aef2:	0f 44 d5             	cmove  %ebp,%edx
 804aef5:	01 da                	add    %ebx,%edx
 804aef7:	11 f1                	adc    %esi,%ecx
 804aef9:	3d f8 07 00 00       	cmp    $0x7f8,%eax
 804aefe:	be 00 00 00 00       	mov    $0x0,%esi
 804af03:	b8 c6 42 57 15       	mov    $0x155742c6,%eax
 804af08:	0f 44 f0             	cmove  %eax,%esi
 804af0b:	b8 2a 91 d3 ec       	mov    $0xecd3912a,%eax
 804af10:	0f 44 f8             	cmove  %eax,%edi
 804af13:	01 d7                	add    %edx,%edi
 804af15:	89 7c 24 14          	mov    %edi,0x14(%esp)
 804af19:	11 ce                	adc    %ecx,%esi
 804af1b:	89 b4 24 a0 01 00 00 	mov    %esi,0x1a0(%esp)
 804af22:	8b 44 24 20          	mov    0x20(%esp),%eax
 804af26:	8b 4c 24 40          	mov    0x40(%esp),%ecx
 804af2a:	0f a4 c1 03          	shld   $0x3,%eax,%ecx
 804af2e:	81 e1 f8 07 00 00    	and    $0x7f8,%ecx
 804af34:	89 ca                	mov    %ecx,%edx
 804af36:	c5 f9 6e c1          	vmovd  %ecx,%xmm0
 804af3a:	c4 e2 79 58 c0       	vpbroadcastd %xmm0,%xmm0
 804af3f:	c5 f1 ef c9          	vpxor  %xmm1,%xmm1,%xmm1
 804af43:	b8 80 fc ff ff       	mov    $0xfffffc80,%eax
 804af48:	c5 e9 ef d2          	vpxor  %xmm2,%xmm2,%xmm2
 804af4c:	0f 1f 40 00          	nopl   0x0(%eax)
 804af50:	c5 fa 6f 98 8c 33 06 	vmovdqu 0x806338c(%eax),%xmm3
 804af57:	08 
 804af58:	c5 fa 6f a0 9c 33 06 	vmovdqu 0x806339c(%eax),%xmm4
 804af5f:	08 
 804af60:	c5 d5 76 ed          	vpcmpeqd %ymm5,%ymm5,%ymm5
 804af64:	c4 e2 d5 90 34 1d 08 	vpgatherdq %ymm5,0x8060808(,%xmm3,1),%ymm6
 804af6b:	08 06 08 
 804af6e:	c5 d5 76 ed          	vpcmpeqd %ymm5,%ymm5,%ymm5
 804af72:	c4 e2 d5 90 3c 25 08 	vpgatherdq %ymm5,0x8060808(,%xmm4,1),%ymm7
 804af79:	08 06 08 
 804af7c:	c5 f9 76 db          	vpcmpeqd %xmm3,%xmm0,%xmm3
 804af80:	c4 e2 7d 25 db       	vpmovsxdq %xmm3,%ymm3
 804af85:	c5 e5 db de          	vpand  %ymm6,%ymm3,%ymm3
 804af89:	c5 e5 d4 c9          	vpaddq %ymm1,%ymm3,%ymm1
 804af8d:	c5 f9 76 dc          	vpcmpeqd %xmm4,%xmm0,%xmm3
 804af91:	c4 e2 7d 25 db       	vpmovsxdq %xmm3,%ymm3
 804af96:	c5 e5 db df          	vpand  %ymm7,%ymm3,%ymm3
 804af9a:	c5 e5 d4 d2          	vpaddq %ymm2,%ymm3,%ymm2
 804af9e:	c5 fa 6f 98 ac 33 06 	vmovdqu 0x80633ac(%eax),%xmm3
 804afa5:	08 
 804afa6:	c5 fa 6f a0 bc 33 06 	vmovdqu 0x80633bc(%eax),%xmm4
 804afad:	08 
 804afae:	c5 d5 76 ed          	vpcmpeqd %ymm5,%ymm5,%ymm5
 804afb2:	c4 e2 d5 90 34 1d 08 	vpgatherdq %ymm5,0x8060808(,%xmm3,1),%ymm6
 804afb9:	08 06 08 
 804afbc:	c5 d5 76 ed          	vpcmpeqd %ymm5,%ymm5,%ymm5
 804afc0:	c4 e2 d5 90 3c 25 08 	vpgatherdq %ymm5,0x8060808(,%xmm4,1),%ymm7
 804afc7:	08 06 08 
 804afca:	c5 f9 76 db          	vpcmpeqd %xmm3,%xmm0,%xmm3
 804afce:	c4 e2 7d 25 db       	vpmovsxdq %xmm3,%ymm3
 804afd3:	c5 e5 db de          	vpand  %ymm6,%ymm3,%ymm3
 804afd7:	c5 f9 76 e4          	vpcmpeqd %xmm4,%xmm0,%xmm4
 804afdb:	c4 e2 7d 25 e4       	vpmovsxdq %xmm4,%ymm4
 804afe0:	c5 dd db e7          	vpand  %ymm7,%ymm4,%ymm4
 804afe4:	c5 fa 6f a8 cc 33 06 	vmovdqu 0x80633cc(%eax),%xmm5
 804afeb:	08 
 804afec:	c5 cd 76 f6          	vpcmpeqd %ymm6,%ymm6,%ymm6
 804aff0:	c4 e2 cd 90 3c 2d 08 	vpgatherdq %ymm6,0x8060808(,%xmm5,1),%ymm7
 804aff7:	08 06 08 
 804affa:	c5 f9 76 ed          	vpcmpeqd %xmm5,%xmm0,%xmm5
 804affe:	c4 e2 7d 25 ed       	vpmovsxdq %xmm5,%ymm5
 804b003:	c5 d5 db ef          	vpand  %ymm7,%ymm5,%ymm5
 804b007:	c5 fa 6f b0 dc 33 06 	vmovdqu 0x80633dc(%eax),%xmm6
 804b00e:	08 
 804b00f:	c5 e5 d4 dd          	vpaddq %ymm5,%ymm3,%ymm3
 804b013:	c5 d5 76 ed          	vpcmpeqd %ymm5,%ymm5,%ymm5
 804b017:	c5 f5 d4 cb          	vpaddq %ymm3,%ymm1,%ymm1
 804b01b:	c4 e2 d5 90 1c 35 08 	vpgatherdq %ymm5,0x8060808(,%xmm6,1),%ymm3
 804b022:	08 06 08 
 804b025:	c5 f9 76 ee          	vpcmpeqd %xmm6,%xmm0,%xmm5
 804b029:	c4 e2 7d 25 ed       	vpmovsxdq %xmm5,%ymm5
 804b02e:	c5 d5 db db          	vpand  %ymm3,%ymm5,%ymm3
 804b032:	c5 dd d4 db          	vpaddq %ymm3,%ymm4,%ymm3
 804b036:	c5 ed d4 d3          	vpaddq %ymm3,%ymm2,%ymm2
 804b03a:	85 c0                	test   %eax,%eax
 804b03c:	74 56                	je     804b094 <main+0x1e74>
 804b03e:	c5 fa 6f 98 ec 33 06 	vmovdqu 0x80633ec(%eax),%xmm3
 804b045:	08 
 804b046:	c5 fa 6f a0 fc 33 06 	vmovdqu 0x80633fc(%eax),%xmm4
 804b04d:	08 
 804b04e:	c5 d5 76 ed          	vpcmpeqd %ymm5,%ymm5,%ymm5
 804b052:	c4 e2 d5 90 34 1d 08 	vpgatherdq %ymm5,0x8060808(,%xmm3,1),%ymm6
 804b059:	08 06 08 
 804b05c:	c5 d5 76 ed          	vpcmpeqd %ymm5,%ymm5,%ymm5
 804b060:	c4 e2 d5 90 3c 25 08 	vpgatherdq %ymm5,0x8060808(,%xmm4,1),%ymm7
 804b067:	08 06 08 
 804b06a:	c5 f9 76 db          	vpcmpeqd %xmm3,%xmm0,%xmm3
 804b06e:	c4 e2 7d 25 db       	vpmovsxdq %xmm3,%ymm3
 804b073:	c5 e5 db de          	vpand  %ymm6,%ymm3,%ymm3
 804b077:	c5 f9 76 e4          	vpcmpeqd %xmm4,%xmm0,%xmm4
 804b07b:	c4 e2 7d 25 e4       	vpmovsxdq %xmm4,%ymm4
 804b080:	c5 dd db e7          	vpand  %ymm7,%ymm4,%ymm4
 804b084:	c5 e5 d4 c9          	vpaddq %ymm1,%ymm3,%ymm1
 804b088:	c5 dd d4 d2          	vpaddq %ymm2,%ymm4,%ymm2
 804b08c:	83 e8 80             	sub    $0xffffff80,%eax
 804b08f:	e9 bc fe ff ff       	jmp    804af50 <main+0x1d30>
 804b094:	c5 ed d4 c1          	vpaddq %ymm1,%ymm2,%ymm0
 804b098:	c4 e3 7d 39 c1 01    	vextracti128 $0x1,%ymm0,%xmm1
 804b09e:	c5 f9 d4 c1          	vpaddq %xmm1,%xmm0,%xmm0
 804b0a2:	c5 f9 70 c8 ee       	vpshufd $0xee,%xmm0,%xmm1
 804b0a7:	c5 f9 d4 c1          	vpaddq %xmm1,%xmm0,%xmm0
 804b0ab:	c4 e3 79 16 c0 01    	vpextrd $0x1,%xmm0,%eax
 804b0b1:	c5 f9 7e c1          	vmovd  %xmm0,%ecx
 804b0b5:	31 ff                	xor    %edi,%edi
 804b0b7:	89 d5                	mov    %edx,%ebp
 804b0b9:	81 fa c8 07 00 00    	cmp    $0x7c8,%edx
 804b0bf:	ba 00 00 00 00       	mov    $0x0,%edx
 804b0c4:	be a2 fb b2 10       	mov    $0x10b2fba2,%esi
 804b0c9:	0f 44 d6             	cmove  %esi,%edx
 804b0cc:	be 00 00 00 00       	mov    $0x0,%esi
 804b0d1:	bb eb 79 82 49       	mov    $0x498279eb,%ebx
 804b0d6:	0f 44 f3             	cmove  %ebx,%esi
 804b0d9:	01 ce                	add    %ecx,%esi
 804b0db:	11 c2                	adc    %eax,%edx
 804b0dd:	81 fd d0 07 00 00    	cmp    $0x7d0,%ebp
 804b0e3:	b8 00 00 00 00       	mov    $0x0,%eax
 804b0e8:	b9 80 9d 3a ba       	mov    $0xba3a9d80,%ecx
 804b0ed:	0f 44 c1             	cmove  %ecx,%eax
 804b0f0:	b9 00 00 00 00       	mov    $0x0,%ecx
 804b0f5:	bb 27 74 e9 a7       	mov    $0xa7e97427,%ebx
 804b0fa:	0f 44 cb             	cmove  %ebx,%ecx
 804b0fd:	01 f1                	add    %esi,%ecx
 804b0ff:	11 d0                	adc    %edx,%eax
 804b101:	81 fd d8 07 00 00    	cmp    $0x7d8,%ebp
 804b107:	ba 00 00 00 00       	mov    $0x0,%edx
 804b10c:	be 4f d1 21 6e       	mov    $0x6e21d14f,%esi
 804b111:	0f 44 d6             	cmove  %esi,%edx
 804b114:	be 00 00 00 00       	mov    $0x0,%esi
 804b119:	bb bf 42 93 f0       	mov    $0xf09342bf,%ebx
 804b11e:	0f 44 f3             	cmove  %ebx,%esi
 804b121:	01 ce                	add    %ecx,%esi
 804b123:	11 c2                	adc    %eax,%edx
 804b125:	81 fd e0 07 00 00    	cmp    $0x7e0,%ebp
 804b12b:	b8 00 00 00 00       	mov    $0x0,%eax
 804b130:	b9 1f 21 7c 63       	mov    $0x637c211f,%ecx
 804b135:	0f 44 c1             	cmove  %ecx,%eax
 804b138:	b9 00 00 00 00       	mov    $0x0,%ecx
 804b13d:	bb 42 f8 d9 5d       	mov    $0x5dd9f842,%ebx
 804b142:	0f 44 cb             	cmove  %ebx,%ecx
 804b145:	01 f1                	add    %esi,%ecx
 804b147:	11 d0                	adc    %edx,%eax
 804b149:	81 fd e8 07 00 00    	cmp    $0x7e8,%ebp
 804b14f:	ba 00 00 00 00       	mov    $0x0,%edx
 804b154:	be ca 43 0f c5       	mov    $0xc50f43ca,%esi
 804b159:	0f 44 d6             	cmove  %esi,%edx
 804b15c:	be 00 00 00 00       	mov    $0x0,%esi
 804b161:	bb 86 1e 5d 4c       	mov    $0x4c5d1e86,%ebx
 804b166:	0f 44 f3             	cmove  %ebx,%esi
 804b169:	01 ce                	add    %ecx,%esi
 804b16b:	11 c2                	adc    %eax,%edx
 804b16d:	81 fd f0 07 00 00    	cmp    $0x7f0,%ebp
 804b173:	b8 00 00 00 00       	mov    $0x0,%eax
 804b178:	b9 aa e3 92 38       	mov    $0x3892e3aa,%ecx
 804b17d:	0f 44 c1             	cmove  %ecx,%eax
 804b180:	b9 00 00 00 00       	mov    $0x0,%ecx
 804b185:	bb db 39 da 71       	mov    $0x71da39db,%ebx
 804b18a:	0f 44 cb             	cmove  %ebx,%ecx
 804b18d:	01 f1                	add    %esi,%ecx
 804b18f:	11 d0                	adc    %edx,%eax
 804b191:	81 fd f8 07 00 00    	cmp    $0x7f8,%ebp
 804b197:	be 00 00 00 00       	mov    $0x0,%esi
 804b19c:	ba 42 c6 15 57       	mov    $0x5715c642,%edx
 804b1a1:	0f 44 f2             	cmove  %edx,%esi
 804b1a4:	ba 91 2a ec d3       	mov    $0xd3ec2a91,%edx
 804b1a9:	0f 44 fa             	cmove  %edx,%edi
 804b1ac:	01 cf                	add    %ecx,%edi
 804b1ae:	89 7c 24 40          	mov    %edi,0x40(%esp)
 804b1b2:	11 c6                	adc    %eax,%esi
 804b1b4:	89 b4 24 80 01 00 00 	mov    %esi,0x180(%esp)
 804b1bb:	8b 44 24 20          	mov    0x20(%esp),%eax
 804b1bf:	c1 e8 15             	shr    $0x15,%eax
 804b1c2:	83 e0 f8             	and    $0xfffffff8,%eax
 804b1c5:	c5 f9 6e c0          	vmovd  %eax,%xmm0
 804b1c9:	c4 e2 79 58 c0       	vpbroadcastd %xmm0,%xmm0
 804b1ce:	c5 f1 ef c9          	vpxor  %xmm1,%xmm1,%xmm1
 804b1d2:	b9 80 fc ff ff       	mov    $0xfffffc80,%ecx
 804b1d7:	c5 e9 ef d2          	vpxor  %xmm2,%xmm2,%xmm2
 804b1db:	0f 1f 44 00 00       	nopl   0x0(%eax,%eax,1)
 804b1e0:	c5 fa 6f 99 8c 33 06 	vmovdqu 0x806338c(%ecx),%xmm3
 804b1e7:	08 
 804b1e8:	c5 fa 6f a1 9c 33 06 	vmovdqu 0x806339c(%ecx),%xmm4
 804b1ef:	08 
 804b1f0:	c5 d5 76 ed          	vpcmpeqd %ymm5,%ymm5,%ymm5
 804b1f4:	c4 e2 d5 90 34 1d 08 	vpgatherdq %ymm5,0x8061008(,%xmm3,1),%ymm6
 804b1fb:	10 06 08 
 804b1fe:	c5 d5 76 ed          	vpcmpeqd %ymm5,%ymm5,%ymm5
 804b202:	c4 e2 d5 90 3c 25 08 	vpgatherdq %ymm5,0x8061008(,%xmm4,1),%ymm7
 804b209:	10 06 08 
 804b20c:	c5 f9 76 db          	vpcmpeqd %xmm3,%xmm0,%xmm3
 804b210:	c4 e2 7d 25 db       	vpmovsxdq %xmm3,%ymm3
 804b215:	c5 e5 db de          	vpand  %ymm6,%ymm3,%ymm3
 804b219:	c5 e5 d4 c9          	vpaddq %ymm1,%ymm3,%ymm1
 804b21d:	c5 f9 76 dc          	vpcmpeqd %xmm4,%xmm0,%xmm3
 804b221:	c4 e2 7d 25 db       	vpmovsxdq %xmm3,%ymm3
 804b226:	c5 e5 db df          	vpand  %ymm7,%ymm3,%ymm3
 804b22a:	c5 e5 d4 d2          	vpaddq %ymm2,%ymm3,%ymm2
 804b22e:	c5 fa 6f 99 ac 33 06 	vmovdqu 0x80633ac(%ecx),%xmm3
 804b235:	08 
 804b236:	c5 fa 6f a1 bc 33 06 	vmovdqu 0x80633bc(%ecx),%xmm4
 804b23d:	08 
 804b23e:	c5 d5 76 ed          	vpcmpeqd %ymm5,%ymm5,%ymm5
 804b242:	c4 e2 d5 90 34 1d 08 	vpgatherdq %ymm5,0x8061008(,%xmm3,1),%ymm6
 804b249:	10 06 08 
 804b24c:	c5 d5 76 ed          	vpcmpeqd %ymm5,%ymm5,%ymm5
 804b250:	c4 e2 d5 90 3c 25 08 	vpgatherdq %ymm5,0x8061008(,%xmm4,1),%ymm7
 804b257:	10 06 08 
 804b25a:	c5 f9 76 db          	vpcmpeqd %xmm3,%xmm0,%xmm3
 804b25e:	c4 e2 7d 25 db       	vpmovsxdq %xmm3,%ymm3
 804b263:	c5 e5 db de          	vpand  %ymm6,%ymm3,%ymm3
 804b267:	c5 f9 76 e4          	vpcmpeqd %xmm4,%xmm0,%xmm4
 804b26b:	c4 e2 7d 25 e4       	vpmovsxdq %xmm4,%ymm4
 804b270:	c5 dd db e7          	vpand  %ymm7,%ymm4,%ymm4
 804b274:	c5 fa 6f a9 cc 33 06 	vmovdqu 0x80633cc(%ecx),%xmm5
 804b27b:	08 
 804b27c:	c5 cd 76 f6          	vpcmpeqd %ymm6,%ymm6,%ymm6
 804b280:	c4 e2 cd 90 3c 2d 08 	vpgatherdq %ymm6,0x8061008(,%xmm5,1),%ymm7
 804b287:	10 06 08 
 804b28a:	c5 f9 76 ed          	vpcmpeqd %xmm5,%xmm0,%xmm5
 804b28e:	c4 e2 7d 25 ed       	vpmovsxdq %xmm5,%ymm5
 804b293:	c5 d5 db ef          	vpand  %ymm7,%ymm5,%ymm5
 804b297:	c5 fa 6f b1 dc 33 06 	vmovdqu 0x80633dc(%ecx),%xmm6
 804b29e:	08 
 804b29f:	c5 e5 d4 dd          	vpaddq %ymm5,%ymm3,%ymm3
 804b2a3:	c5 d5 76 ed          	vpcmpeqd %ymm5,%ymm5,%ymm5
 804b2a7:	c5 f5 d4 cb          	vpaddq %ymm3,%ymm1,%ymm1
 804b2ab:	c4 e2 d5 90 1c 35 08 	vpgatherdq %ymm5,0x8061008(,%xmm6,1),%ymm3
 804b2b2:	10 06 08 
 804b2b5:	c5 f9 76 ee          	vpcmpeqd %xmm6,%xmm0,%xmm5
 804b2b9:	c4 e2 7d 25 ed       	vpmovsxdq %xmm5,%ymm5
 804b2be:	c5 d5 db db          	vpand  %ymm3,%ymm5,%ymm3
 804b2c2:	c5 dd d4 db          	vpaddq %ymm3,%ymm4,%ymm3
 804b2c6:	c5 ed d4 d3          	vpaddq %ymm3,%ymm2,%ymm2
 804b2ca:	85 c9                	test   %ecx,%ecx
 804b2cc:	74 56                	je     804b324 <main+0x2104>
 804b2ce:	c5 fa 6f 99 ec 33 06 	vmovdqu 0x80633ec(%ecx),%xmm3
 804b2d5:	08 
 804b2d6:	c5 fa 6f a1 fc 33 06 	vmovdqu 0x80633fc(%ecx),%xmm4
 804b2dd:	08 
 804b2de:	c5 d5 76 ed          	vpcmpeqd %ymm5,%ymm5,%ymm5
 804b2e2:	c4 e2 d5 90 34 1d 08 	vpgatherdq %ymm5,0x8061008(,%xmm3,1),%ymm6
 804b2e9:	10 06 08 
 804b2ec:	c5 d5 76 ed          	vpcmpeqd %ymm5,%ymm5,%ymm5
 804b2f0:	c4 e2 d5 90 3c 25 08 	vpgatherdq %ymm5,0x8061008(,%xmm4,1),%ymm7
 804b2f7:	10 06 08 
 804b2fa:	c5 f9 76 db          	vpcmpeqd %xmm3,%xmm0,%xmm3
 804b2fe:	c4 e2 7d 25 db       	vpmovsxdq %xmm3,%ymm3
 804b303:	c5 e5 db de          	vpand  %ymm6,%ymm3,%ymm3
 804b307:	c5 f9 76 e4          	vpcmpeqd %xmm4,%xmm0,%xmm4
 804b30b:	c4 e2 7d 25 e4       	vpmovsxdq %xmm4,%ymm4
 804b310:	c5 dd db e7          	vpand  %ymm7,%ymm4,%ymm4
 804b314:	c5 e5 d4 c9          	vpaddq %ymm1,%ymm3,%ymm1
 804b318:	c5 dd d4 d2          	vpaddq %ymm2,%ymm4,%ymm2
 804b31c:	83 e9 80             	sub    $0xffffff80,%ecx
 804b31f:	e9 bc fe ff ff       	jmp    804b1e0 <main+0x1fc0>
 804b324:	c5 ed d4 c1          	vpaddq %ymm1,%ymm2,%ymm0
 804b328:	c4 e3 7d 39 c1 01    	vextracti128 $0x1,%ymm0,%xmm1
 804b32e:	c5 f9 d4 c1          	vpaddq %xmm1,%xmm0,%xmm0
 804b332:	c5 f9 70 c8 ee       	vpshufd $0xee,%xmm0,%xmm1
 804b337:	c5 f9 d4 c1          	vpaddq %xmm1,%xmm0,%xmm0
 804b33b:	c4 e3 79 16 c1 01    	vpextrd $0x1,%xmm0,%ecx
 804b341:	c5 f9 7e c2          	vmovd  %xmm0,%edx
 804b345:	31 ed                	xor    %ebp,%ebp
 804b347:	3d c8 07 00 00       	cmp    $0x7c8,%eax
 804b34c:	be 00 00 00 00       	mov    $0x0,%esi
 804b351:	bf 49 82 79 eb       	mov    $0xeb798249,%edi
 804b356:	0f 44 f7             	cmove  %edi,%esi
 804b359:	bf 00 00 00 00       	mov    $0x0,%edi
 804b35e:	bb 10 b2 fb a2       	mov    $0xa2fbb210,%ebx
 804b363:	0f 44 fb             	cmove  %ebx,%edi
 804b366:	01 d7                	add    %edx,%edi
 804b368:	11 ce                	adc    %ecx,%esi
 804b36a:	3d d0 07 00 00       	cmp    $0x7d0,%eax
 804b36f:	b9 00 00 00 00       	mov    $0x0,%ecx
 804b374:	ba a7 e9 74 27       	mov    $0x2774e9a7,%edx
 804b379:	0f 44 ca             	cmove  %edx,%ecx
 804b37c:	ba 00 00 00 00       	mov    $0x0,%edx
 804b381:	bb ba 3a 9d 80       	mov    $0x809d3aba,%ebx
 804b386:	0f 44 d3             	cmove  %ebx,%edx
 804b389:	01 fa                	add    %edi,%edx
 804b38b:	11 f1                	adc    %esi,%ecx
 804b38d:	3d d8 07 00 00       	cmp    $0x7d8,%eax
 804b392:	be 00 00 00 00       	mov    $0x0,%esi
 804b397:	bf f0 93 42 bf       	mov    $0xbf4293f0,%edi
 804b39c:	0f 44 f7             	cmove  %edi,%esi
 804b39f:	bf 00 00 00 00       	mov    $0x0,%edi
 804b3a4:	bb 6e 21 d1 4f       	mov    $0x4fd1216e,%ebx
 804b3a9:	0f 44 fb             	cmove  %ebx,%edi
 804b3ac:	01 d7                	add    %edx,%edi
 804b3ae:	11 ce                	adc    %ecx,%esi
 804b3b0:	3d e0 07 00 00       	cmp    $0x7e0,%eax
 804b3b5:	b9 00 00 00 00       	mov    $0x0,%ecx
 804b3ba:	ba 5d d9 f8 42       	mov    $0x42f8d95d,%edx
 804b3bf:	0f 44 ca             	cmove  %edx,%ecx
 804b3c2:	ba 00 00 00 00       	mov    $0x0,%edx
 804b3c7:	bb 63 7c 21 1f       	mov    $0x1f217c63,%ebx
 804b3cc:	0f 44 d3             	cmove  %ebx,%edx
 804b3cf:	01 fa                	add    %edi,%edx
 804b3d1:	11 f1                	adc    %esi,%ecx
 804b3d3:	3d e8 07 00 00       	cmp    $0x7e8,%eax
 804b3d8:	be 00 00 00 00       	mov    $0x0,%esi
 804b3dd:	bf 4c 5d 1e 86       	mov    $0x861e5d4c,%edi
 804b3e2:	0f 44 f7             	cmove  %edi,%esi
 804b3e5:	bf 00 00 00 00       	mov    $0x0,%edi
 804b3ea:	bb c5 0f 43 ca       	mov    $0xca430fc5,%ebx
 804b3ef:	0f 44 fb             	cmove  %ebx,%edi
 804b3f2:	01 d7                	add    %edx,%edi
 804b3f4:	11 ce                	adc    %ecx,%esi
 804b3f6:	3d f0 07 00 00       	cmp    $0x7f0,%eax
 804b3fb:	b9 00 00 00 00       	mov    $0x0,%ecx
 804b400:	ba 71 da 39 db       	mov    $0xdb39da71,%edx
 804b405:	0f 44 ca             	cmove  %edx,%ecx
 804b408:	ba 00 00 00 00       	mov    $0x0,%edx
 804b40d:	bb 38 92 e3 aa       	mov    $0xaae39238,%ebx
 804b412:	0f 44 d3             	cmove  %ebx,%edx
 804b415:	01 fa                	add    %edi,%edx
 804b417:	11 f1                	adc    %esi,%ecx
 804b419:	3d f8 07 00 00       	cmp    $0x7f8,%eax
 804b41e:	be 00 00 00 00       	mov    $0x0,%esi
 804b423:	b8 d3 ec 2a 91       	mov    $0x912aecd3,%eax
 804b428:	0f 44 f0             	cmove  %eax,%esi
 804b42b:	b8 57 15 c6 42       	mov    $0x42c61557,%eax
 804b430:	0f 44 e8             	cmove  %eax,%ebp
 804b433:	01 d5                	add    %edx,%ebp
 804b435:	89 6c 24 10          	mov    %ebp,0x10(%esp)
 804b439:	11 ce                	adc    %ecx,%esi
 804b43b:	89 b4 24 60 01 00 00 	mov    %esi,0x160(%esp)
 804b442:	8b 54 24 20          	mov    0x20(%esp),%edx
 804b446:	c1 ea 0d             	shr    $0xd,%edx
 804b449:	81 e2 f8 07 00 00    	and    $0x7f8,%edx
 804b44f:	c5 f9 6e c2          	vmovd  %edx,%xmm0
 804b453:	c4 e2 79 58 c0       	vpbroadcastd %xmm0,%xmm0
 804b458:	c5 f1 ef c9          	vpxor  %xmm1,%xmm1,%xmm1
 804b45c:	b8 80 fc ff ff       	mov    $0xfffffc80,%eax
 804b461:	c5 e9 ef d2          	vpxor  %xmm2,%xmm2,%xmm2
 804b465:	66 66 2e 0f 1f 84 00 	data16 nopw %cs:0x0(%eax,%eax,1)
 804b46c:	00 00 00 00 
 804b470:	c5 fa 6f 98 8c 33 06 	vmovdqu 0x806338c(%eax),%xmm3
 804b477:	08 
 804b478:	c5 fa 6f a0 9c 33 06 	vmovdqu 0x806339c(%eax),%xmm4
 804b47f:	08 
 804b480:	c5 d5 76 ed          	vpcmpeqd %ymm5,%ymm5,%ymm5
 804b484:	c4 e2 d5 90 34 1d 08 	vpgatherdq %ymm5,0x8061808(,%xmm3,1),%ymm6
 804b48b:	18 06 08 
 804b48e:	c5 d5 76 ed          	vpcmpeqd %ymm5,%ymm5,%ymm5
 804b492:	c4 e2 d5 90 3c 25 08 	vpgatherdq %ymm5,0x8061808(,%xmm4,1),%ymm7
 804b499:	18 06 08 
 804b49c:	c5 f9 76 db          	vpcmpeqd %xmm3,%xmm0,%xmm3
 804b4a0:	c4 e2 7d 25 db       	vpmovsxdq %xmm3,%ymm3
 804b4a5:	c5 e5 db de          	vpand  %ymm6,%ymm3,%ymm3
 804b4a9:	c5 e5 d4 c9          	vpaddq %ymm1,%ymm3,%ymm1
 804b4ad:	c5 f9 76 dc          	vpcmpeqd %xmm4,%xmm0,%xmm3
 804b4b1:	c4 e2 7d 25 db       	vpmovsxdq %xmm3,%ymm3
 804b4b6:	c5 e5 db df          	vpand  %ymm7,%ymm3,%ymm3
 804b4ba:	c5 e5 d4 d2          	vpaddq %ymm2,%ymm3,%ymm2
 804b4be:	c5 fa 6f 98 ac 33 06 	vmovdqu 0x80633ac(%eax),%xmm3
 804b4c5:	08 
 804b4c6:	c5 fa 6f a0 bc 33 06 	vmovdqu 0x80633bc(%eax),%xmm4
 804b4cd:	08 
 804b4ce:	c5 d5 76 ed          	vpcmpeqd %ymm5,%ymm5,%ymm5
 804b4d2:	c4 e2 d5 90 34 1d 08 	vpgatherdq %ymm5,0x8061808(,%xmm3,1),%ymm6
 804b4d9:	18 06 08 
 804b4dc:	c5 d5 76 ed          	vpcmpeqd %ymm5,%ymm5,%ymm5
 804b4e0:	c4 e2 d5 90 3c 25 08 	vpgatherdq %ymm5,0x8061808(,%xmm4,1),%ymm7
 804b4e7:	18 06 08 
 804b4ea:	c5 f9 76 db          	vpcmpeqd %xmm3,%xmm0,%xmm3
 804b4ee:	c4 e2 7d 25 db       	vpmovsxdq %xmm3,%ymm3
 804b4f3:	c5 e5 db de          	vpand  %ymm6,%ymm3,%ymm3
 804b4f7:	c5 f9 76 e4          	vpcmpeqd %xmm4,%xmm0,%xmm4
 804b4fb:	c4 e2 7d 25 e4       	vpmovsxdq %xmm4,%ymm4
 804b500:	c5 dd db e7          	vpand  %ymm7,%ymm4,%ymm4
 804b504:	c5 fa 6f a8 cc 33 06 	vmovdqu 0x80633cc(%eax),%xmm5
 804b50b:	08 
 804b50c:	c5 cd 76 f6          	vpcmpeqd %ymm6,%ymm6,%ymm6
 804b510:	c4 e2 cd 90 3c 2d 08 	vpgatherdq %ymm6,0x8061808(,%xmm5,1),%ymm7
 804b517:	18 06 08 
 804b51a:	c5 f9 76 ed          	vpcmpeqd %xmm5,%xmm0,%xmm5
 804b51e:	c4 e2 7d 25 ed       	vpmovsxdq %xmm5,%ymm5
 804b523:	c5 d5 db ef          	vpand  %ymm7,%ymm5,%ymm5
 804b527:	c5 fa 6f b0 dc 33 06 	vmovdqu 0x80633dc(%eax),%xmm6
 804b52e:	08 
 804b52f:	c5 e5 d4 dd          	vpaddq %ymm5,%ymm3,%ymm3
 804b533:	c5 d5 76 ed          	vpcmpeqd %ymm5,%ymm5,%ymm5
 804b537:	c5 f5 d4 cb          	vpaddq %ymm3,%ymm1,%ymm1
 804b53b:	c4 e2 d5 90 1c 35 08 	vpgatherdq %ymm5,0x8061808(,%xmm6,1),%ymm3
 804b542:	18 06 08 
 804b545:	c5 f9 76 ee          	vpcmpeqd %xmm6,%xmm0,%xmm5
 804b549:	c4 e2 7d 25 ed       	vpmovsxdq %xmm5,%ymm5
 804b54e:	c5 d5 db db          	vpand  %ymm3,%ymm5,%ymm3
 804b552:	c5 dd d4 db          	vpaddq %ymm3,%ymm4,%ymm3
 804b556:	c5 ed d4 d3          	vpaddq %ymm3,%ymm2,%ymm2
 804b55a:	85 c0                	test   %eax,%eax
 804b55c:	74 56                	je     804b5b4 <main+0x2394>
 804b55e:	c5 fa 6f 98 ec 33 06 	vmovdqu 0x80633ec(%eax),%xmm3
 804b565:	08 
 804b566:	c5 fa 6f a0 fc 33 06 	vmovdqu 0x80633fc(%eax),%xmm4
 804b56d:	08 
 804b56e:	c5 d5 76 ed          	vpcmpeqd %ymm5,%ymm5,%ymm5
 804b572:	c4 e2 d5 90 34 1d 08 	vpgatherdq %ymm5,0x8061808(,%xmm3,1),%ymm6
 804b579:	18 06 08 
 804b57c:	c5 d5 76 ed          	vpcmpeqd %ymm5,%ymm5,%ymm5
 804b580:	c4 e2 d5 90 3c 25 08 	vpgatherdq %ymm5,0x8061808(,%xmm4,1),%ymm7
 804b587:	18 06 08 
 804b58a:	c5 f9 76 db          	vpcmpeqd %xmm3,%xmm0,%xmm3
 804b58e:	c4 e2 7d 25 db       	vpmovsxdq %xmm3,%ymm3
 804b593:	c5 e5 db de          	vpand  %ymm6,%ymm3,%ymm3
 804b597:	c5 f9 76 e4          	vpcmpeqd %xmm4,%xmm0,%xmm4
 804b59b:	c4 e2 7d 25 e4       	vpmovsxdq %xmm4,%ymm4
 804b5a0:	c5 dd db e7          	vpand  %ymm7,%ymm4,%ymm4
 804b5a4:	c5 e5 d4 c9          	vpaddq %ymm1,%ymm3,%ymm1
 804b5a8:	c5 dd d4 d2          	vpaddq %ymm2,%ymm4,%ymm2
 804b5ac:	83 e8 80             	sub    $0xffffff80,%eax
 804b5af:	e9 bc fe ff ff       	jmp    804b470 <main+0x2250>
 804b5b4:	c5 ed d4 c1          	vpaddq %ymm1,%ymm2,%ymm0
 804b5b8:	c4 e3 7d 39 c1 01    	vextracti128 $0x1,%ymm0,%xmm1
 804b5be:	c5 f9 d4 c1          	vpaddq %xmm1,%xmm0,%xmm0
 804b5c2:	c5 f9 70 c8 ee       	vpshufd $0xee,%xmm0,%xmm1
 804b5c7:	c5 f9 d4 c1          	vpaddq %xmm1,%xmm0,%xmm0
 804b5cb:	c4 e3 79 16 c1 01    	vpextrd $0x1,%xmm0,%ecx
 804b5d1:	c5 f9 7e c6          	vmovd  %xmm0,%esi
 804b5d5:	31 db                	xor    %ebx,%ebx
 804b5d7:	81 fa c8 07 00 00    	cmp    $0x7c8,%edx
 804b5dd:	bf 00 00 00 00       	mov    $0x0,%edi
 804b5e2:	b8 82 49 eb 79       	mov    $0x79eb4982,%eax
 804b5e7:	0f 44 f8             	cmove  %eax,%edi
 804b5ea:	bd 00 00 00 00       	mov    $0x0,%ebp
 804b5ef:	b8 b2 10 a2 fb       	mov    $0xfba210b2,%eax
 804b5f4:	0f 44 e8             	cmove  %eax,%ebp
 804b5f7:	01 f5                	add    %esi,%ebp
 804b5f9:	11 cf                	adc    %ecx,%edi
 804b5fb:	81 fa d0 07 00 00    	cmp    $0x7d0,%edx
 804b601:	b9 00 00 00 00       	mov    $0x0,%ecx
 804b606:	b8 e9 a7 27 74       	mov    $0x7427a7e9,%eax
 804b60b:	0f 44 c8             	cmove  %eax,%ecx
 804b60e:	be 00 00 00 00       	mov    $0x0,%esi
 804b613:	b8 3a ba 80 9d       	mov    $0x9d80ba3a,%eax
 804b618:	0f 44 f0             	cmove  %eax,%esi
 804b61b:	01 ee                	add    %ebp,%esi
 804b61d:	11 f9                	adc    %edi,%ecx
 804b61f:	81 fa d8 07 00 00    	cmp    $0x7d8,%edx
 804b625:	bf 00 00 00 00       	mov    $0x0,%edi
 804b62a:	b8 93 f0 bf 42       	mov    $0x42bff093,%eax
 804b62f:	0f 44 f8             	cmove  %eax,%edi
 804b632:	bd 00 00 00 00       	mov    $0x0,%ebp
 804b637:	b8 21 6e 4f d1       	mov    $0xd14f6e21,%eax
 804b63c:	0f 44 e8             	cmove  %eax,%ebp
 804b63f:	01 f5                	add    %esi,%ebp
 804b641:	11 cf                	adc    %ecx,%edi
 804b643:	81 fa e0 07 00 00    	cmp    $0x7e0,%edx
 804b649:	b9 00 00 00 00       	mov    $0x0,%ecx
 804b64e:	b8 d9 5d 42 f8       	mov    $0xf8425dd9,%eax
 804b653:	0f 44 c8             	cmove  %eax,%ecx
 804b656:	be 00 00 00 00       	mov    $0x0,%esi
 804b65b:	b8 7c 63 1f 21       	mov    $0x211f637c,%eax
 804b660:	0f 44 f0             	cmove  %eax,%esi
 804b663:	01 ee                	add    %ebp,%esi
 804b665:	11 f9                	adc    %edi,%ecx
 804b667:	81 fa e8 07 00 00    	cmp    $0x7e8,%edx
 804b66d:	bf 00 00 00 00       	mov    $0x0,%edi
 804b672:	b8 5d 4c 86 1e       	mov    $0x1e864c5d,%eax
 804b677:	0f 44 f8             	cmove  %eax,%edi
 804b67a:	bd 00 00 00 00       	mov    $0x0,%ebp
 804b67f:	b8 0f c5 ca 43       	mov    $0x43cac50f,%eax
 804b684:	0f 44 e8             	cmove  %eax,%ebp
 804b687:	01 f5                	add    %esi,%ebp
 804b689:	11 cf                	adc    %ecx,%edi
 804b68b:	81 fa f0 07 00 00    	cmp    $0x7f0,%edx
 804b691:	b9 00 00 00 00       	mov    $0x0,%ecx
 804b696:	b8 da 71 db 39       	mov    $0x39db71da,%eax
 804b69b:	0f 44 c8             	cmove  %eax,%ecx
 804b69e:	be 00 00 00 00       	mov    $0x0,%esi
 804b6a3:	b8 92 38 aa e3       	mov    $0xe3aa3892,%eax
 804b6a8:	0f 44 f0             	cmove  %eax,%esi
 804b6ab:	01 ee                	add    %ebp,%esi
 804b6ad:	11 f9                	adc    %edi,%ecx
 804b6af:	81 fa f8 07 00 00    	cmp    $0x7f8,%edx
 804b6b5:	ba 00 00 00 00       	mov    $0x0,%edx
 804b6ba:	b8 ec d3 91 2a       	mov    $0x2a91d3ec,%eax
 804b6bf:	0f 44 d0             	cmove  %eax,%edx
 804b6c2:	b8 15 57 42 c6       	mov    $0xc6425715,%eax
 804b6c7:	0f 44 d8             	cmove  %eax,%ebx
 804b6ca:	01 f3                	add    %esi,%ebx
 804b6cc:	89 9c 24 e0 01 00 00 	mov    %ebx,0x1e0(%esp)
 804b6d3:	11 ca                	adc    %ecx,%edx
 804b6d5:	89 54 24 18          	mov    %edx,0x18(%esp)
 804b6d9:	8b 74 24 20          	mov    0x20(%esp),%esi
 804b6dd:	c1 ee 05             	shr    $0x5,%esi
 804b6e0:	81 e6 f8 07 00 00    	and    $0x7f8,%esi
 804b6e6:	c5 f9 6e c6          	vmovd  %esi,%xmm0
 804b6ea:	c4 e2 79 58 c0       	vpbroadcastd %xmm0,%xmm0
 804b6ef:	c5 f1 ef c9          	vpxor  %xmm1,%xmm1,%xmm1
 804b6f3:	b9 80 fc ff ff       	mov    $0xfffffc80,%ecx
 804b6f8:	c5 e9 ef d2          	vpxor  %xmm2,%xmm2,%xmm2
 804b6fc:	0f 1f 40 00          	nopl   0x0(%eax)
 804b700:	c5 fa 6f 99 8c 33 06 	vmovdqu 0x806338c(%ecx),%xmm3
 804b707:	08 
 804b708:	c5 fa 6f a1 9c 33 06 	vmovdqu 0x806339c(%ecx),%xmm4
 804b70f:	08 
 804b710:	c5 d5 76 ed          	vpcmpeqd %ymm5,%ymm5,%ymm5
 804b714:	c4 e2 d5 90 34 1d 08 	vpgatherdq %ymm5,0x8062008(,%xmm3,1),%ymm6
 804b71b:	20 06 08 
 804b71e:	c5 d5 76 ed          	vpcmpeqd %ymm5,%ymm5,%ymm5
 804b722:	c4 e2 d5 90 3c 25 08 	vpgatherdq %ymm5,0x8062008(,%xmm4,1),%ymm7
 804b729:	20 06 08 
 804b72c:	c5 f9 76 db          	vpcmpeqd %xmm3,%xmm0,%xmm3
 804b730:	c4 e2 7d 25 db       	vpmovsxdq %xmm3,%ymm3
 804b735:	c5 e5 db de          	vpand  %ymm6,%ymm3,%ymm3
 804b739:	c5 e5 d4 c9          	vpaddq %ymm1,%ymm3,%ymm1
 804b73d:	c5 f9 76 dc          	vpcmpeqd %xmm4,%xmm0,%xmm3
 804b741:	c4 e2 7d 25 db       	vpmovsxdq %xmm3,%ymm3
 804b746:	c5 e5 db df          	vpand  %ymm7,%ymm3,%ymm3
 804b74a:	c5 e5 d4 d2          	vpaddq %ymm2,%ymm3,%ymm2
 804b74e:	c5 fa 6f 99 ac 33 06 	vmovdqu 0x80633ac(%ecx),%xmm3
 804b755:	08 
 804b756:	c5 fa 6f a1 bc 33 06 	vmovdqu 0x80633bc(%ecx),%xmm4
 804b75d:	08 
 804b75e:	c5 d5 76 ed          	vpcmpeqd %ymm5,%ymm5,%ymm5
 804b762:	c4 e2 d5 90 34 1d 08 	vpgatherdq %ymm5,0x8062008(,%xmm3,1),%ymm6
 804b769:	20 06 08 
 804b76c:	c5 d5 76 ed          	vpcmpeqd %ymm5,%ymm5,%ymm5
 804b770:	c4 e2 d5 90 3c 25 08 	vpgatherdq %ymm5,0x8062008(,%xmm4,1),%ymm7
 804b777:	20 06 08 
 804b77a:	c5 f9 76 db          	vpcmpeqd %xmm3,%xmm0,%xmm3
 804b77e:	c4 e2 7d 25 db       	vpmovsxdq %xmm3,%ymm3
 804b783:	c5 e5 db de          	vpand  %ymm6,%ymm3,%ymm3
 804b787:	c5 f9 76 e4          	vpcmpeqd %xmm4,%xmm0,%xmm4
 804b78b:	c4 e2 7d 25 e4       	vpmovsxdq %xmm4,%ymm4
 804b790:	c5 dd db e7          	vpand  %ymm7,%ymm4,%ymm4
 804b794:	c5 fa 6f a9 cc 33 06 	vmovdqu 0x80633cc(%ecx),%xmm5
 804b79b:	08 
 804b79c:	c5 cd 76 f6          	vpcmpeqd %ymm6,%ymm6,%ymm6
 804b7a0:	c4 e2 cd 90 3c 2d 08 	vpgatherdq %ymm6,0x8062008(,%xmm5,1),%ymm7
 804b7a7:	20 06 08 
 804b7aa:	c5 f9 76 ed          	vpcmpeqd %xmm5,%xmm0,%xmm5
 804b7ae:	c4 e2 7d 25 ed       	vpmovsxdq %xmm5,%ymm5
 804b7b3:	c5 d5 db ef          	vpand  %ymm7,%ymm5,%ymm5
 804b7b7:	c5 fa 6f b1 dc 33 06 	vmovdqu 0x80633dc(%ecx),%xmm6
 804b7be:	08 
 804b7bf:	c5 e5 d4 dd          	vpaddq %ymm5,%ymm3,%ymm3
 804b7c3:	c5 d5 76 ed          	vpcmpeqd %ymm5,%ymm5,%ymm5
 804b7c7:	c5 f5 d4 cb          	vpaddq %ymm3,%ymm1,%ymm1
 804b7cb:	c4 e2 d5 90 1c 35 08 	vpgatherdq %ymm5,0x8062008(,%xmm6,1),%ymm3
 804b7d2:	20 06 08 
 804b7d5:	c5 f9 76 ee          	vpcmpeqd %xmm6,%xmm0,%xmm5
 804b7d9:	c4 e2 7d 25 ed       	vpmovsxdq %xmm5,%ymm5
 804b7de:	c5 d5 db db          	vpand  %ymm3,%ymm5,%ymm3
 804b7e2:	c5 dd d4 db          	vpaddq %ymm3,%ymm4,%ymm3
 804b7e6:	c5 ed d4 d3          	vpaddq %ymm3,%ymm2,%ymm2
 804b7ea:	85 c9                	test   %ecx,%ecx
 804b7ec:	74 56                	je     804b844 <main+0x2624>
 804b7ee:	c5 fa 6f 99 ec 33 06 	vmovdqu 0x80633ec(%ecx),%xmm3
 804b7f5:	08 
 804b7f6:	c5 fa 6f a1 fc 33 06 	vmovdqu 0x80633fc(%ecx),%xmm4
 804b7fd:	08 
 804b7fe:	c5 d5 76 ed          	vpcmpeqd %ymm5,%ymm5,%ymm5
 804b802:	c4 e2 d5 90 34 1d 08 	vpgatherdq %ymm5,0x8062008(,%xmm3,1),%ymm6
 804b809:	20 06 08 
 804b80c:	c5 d5 76 ed          	vpcmpeqd %ymm5,%ymm5,%ymm5
 804b810:	c4 e2 d5 90 3c 25 08 	vpgatherdq %ymm5,0x8062008(,%xmm4,1),%ymm7
 804b817:	20 06 08 
 804b81a:	c5 f9 76 db          	vpcmpeqd %xmm3,%xmm0,%xmm3
 804b81e:	c4 e2 7d 25 db       	vpmovsxdq %xmm3,%ymm3
 804b823:	c5 e5 db de          	vpand  %ymm6,%ymm3,%ymm3
 804b827:	c5 f9 76 e4          	vpcmpeqd %xmm4,%xmm0,%xmm4
 804b82b:	c4 e2 7d 25 e4       	vpmovsxdq %xmm4,%ymm4
 804b830:	c5 dd db e7          	vpand  %ymm7,%ymm4,%ymm4
 804b834:	c5 e5 d4 c9          	vpaddq %ymm1,%ymm3,%ymm1
 804b838:	c5 dd d4 d2          	vpaddq %ymm2,%ymm4,%ymm2
 804b83c:	83 e9 80             	sub    $0xffffff80,%ecx
 804b83f:	e9 bc fe ff ff       	jmp    804b700 <main+0x24e0>
 804b844:	c5 ed d4 c1          	vpaddq %ymm1,%ymm2,%ymm0
 804b848:	c4 e3 7d 39 c1 01    	vextracti128 $0x1,%ymm0,%xmm1
 804b84e:	c5 f9 d4 c1          	vpaddq %xmm1,%xmm0,%xmm0
 804b852:	c5 f9 70 c8 ee       	vpshufd $0xee,%xmm0,%xmm1
 804b857:	c5 f9 d4 c1          	vpaddq %xmm1,%xmm0,%xmm0
 804b85b:	c4 e3 79 16 c1 01    	vpextrd $0x1,%xmm0,%ecx
 804b861:	c5 f9 7e c7          	vmovd  %xmm0,%edi
 804b865:	31 ed                	xor    %ebp,%ebp
 804b867:	81 fe c8 07 00 00    	cmp    $0x7c8,%esi
 804b86d:	bb 00 00 00 00       	mov    $0x0,%ebx
 804b872:	b8 79 eb 49 82       	mov    $0x8249eb79,%eax
 804b877:	0f 44 d8             	cmove  %eax,%ebx
 804b87a:	b8 00 00 00 00       	mov    $0x0,%eax
 804b87f:	ba fb a2 10 b2       	mov    $0xb210a2fb,%edx
 804b884:	0f 44 c2             	cmove  %edx,%eax
 804b887:	01 f8                	add    %edi,%eax
 804b889:	11 cb                	adc    %ecx,%ebx
 804b88b:	81 fe d0 07 00 00    	cmp    $0x7d0,%esi
 804b891:	b9 00 00 00 00       	mov    $0x0,%ecx
 804b896:	ba 74 27 a7 e9       	mov    $0xe9a72774,%edx
 804b89b:	0f 44 ca             	cmove  %edx,%ecx
 804b89e:	bf 00 00 00 00       	mov    $0x0,%edi
 804b8a3:	ba 9d 80 ba 3a       	mov    $0x3aba809d,%edx
 804b8a8:	0f 44 fa             	cmove  %edx,%edi
 804b8ab:	01 c7                	add    %eax,%edi
 804b8ad:	11 d9                	adc    %ebx,%ecx
 804b8af:	81 fe d8 07 00 00    	cmp    $0x7d8,%esi
 804b8b5:	b8 00 00 00 00       	mov    $0x0,%eax
 804b8ba:	ba 42 bf f0 93       	mov    $0x93f0bf42,%edx
 804b8bf:	0f 44 c2             	cmove  %edx,%eax
 804b8c2:	bb 00 00 00 00       	mov    $0x0,%ebx
 804b8c7:	ba d1 4f 6e 21       	mov    $0x216e4fd1,%edx
 804b8cc:	0f 44 da             	cmove  %edx,%ebx
 804b8cf:	01 fb                	add    %edi,%ebx
 804b8d1:	11 c8                	adc    %ecx,%eax
 804b8d3:	81 fe e0 07 00 00    	cmp    $0x7e0,%esi
 804b8d9:	b9 00 00 00 00       	mov    $0x0,%ecx
 804b8de:	ba f8 42 5d d9       	mov    $0xd95d42f8,%edx
 804b8e3:	0f 44 ca             	cmove  %edx,%ecx
 804b8e6:	bf 00 00 00 00       	mov    $0x0,%edi
 804b8eb:	ba 21 1f 63 7c       	mov    $0x7c631f21,%edx
 804b8f0:	0f 44 fa             	cmove  %edx,%edi
 804b8f3:	01 df                	add    %ebx,%edi
 804b8f5:	11 c1                	adc    %eax,%ecx
 804b8f7:	81 fe e8 07 00 00    	cmp    $0x7e8,%esi
 804b8fd:	b8 00 00 00 00       	mov    $0x0,%eax
 804b902:	ba 1e 86 4c 5d       	mov    $0x5d4c861e,%edx
 804b907:	0f 44 c2             	cmove  %edx,%eax
 804b90a:	bb 00 00 00 00       	mov    $0x0,%ebx
 804b90f:	ba 43 ca c5 0f       	mov    $0xfc5ca43,%edx
 804b914:	0f 44 da             	cmove  %edx,%ebx
 804b917:	01 fb                	add    %edi,%ebx
 804b919:	11 c8                	adc    %ecx,%eax
 804b91b:	81 fe f0 07 00 00    	cmp    $0x7f0,%esi
 804b921:	b9 00 00 00 00       	mov    $0x0,%ecx
 804b926:	ba 39 db 71 da       	mov    $0xda71db39,%edx
 804b92b:	0f 44 ca             	cmove  %edx,%ecx
 804b92e:	ba 00 00 00 00       	mov    $0x0,%edx
 804b933:	bf e3 aa 38 92       	mov    $0x9238aae3,%edi
 804b938:	0f 44 d7             	cmove  %edi,%edx
 804b93b:	01 da                	add    %ebx,%edx
 804b93d:	11 c1                	adc    %eax,%ecx
 804b93f:	81 fe f8 07 00 00    	cmp    $0x7f8,%esi
 804b945:	be 00 00 00 00       	mov    $0x0,%esi
 804b94a:	b8 2a 91 d3 ec       	mov    $0xecd3912a,%eax
 804b94f:	0f 44 f0             	cmove  %eax,%esi
 804b952:	b8 c6 42 57 15       	mov    $0x155742c6,%eax
 804b957:	0f 44 e8             	cmove  %eax,%ebp
 804b95a:	01 d5                	add    %edx,%ebp
 804b95c:	89 ac 24 c0 01 00 00 	mov    %ebp,0x1c0(%esp)
 804b963:	11 ce                	adc    %ecx,%esi
 804b965:	89 b4 24 00 02 00 00 	mov    %esi,0x200(%esp)
 804b96c:	0f b6 74 24 20       	movzbl 0x20(%esp),%esi
 804b971:	c1 e6 03             	shl    $0x3,%esi
 804b974:	c5 f9 6e c6          	vmovd  %esi,%xmm0
 804b978:	c4 e2 79 58 c0       	vpbroadcastd %xmm0,%xmm0
 804b97d:	c5 f1 ef c9          	vpxor  %xmm1,%xmm1,%xmm1
 804b981:	b9 80 fc ff ff       	mov    $0xfffffc80,%ecx
 804b986:	c5 e9 ef d2          	vpxor  %xmm2,%xmm2,%xmm2
 804b98a:	66 0f 1f 44 00 00    	nopw   0x0(%eax,%eax,1)
 804b990:	c5 fa 6f 99 8c 33 06 	vmovdqu 0x806338c(%ecx),%xmm3
 804b997:	08 
 804b998:	c5 fa 6f a1 9c 33 06 	vmovdqu 0x806339c(%ecx),%xmm4
 804b99f:	08 
 804b9a0:	c5 d5 76 ed          	vpcmpeqd %ymm5,%ymm5,%ymm5
 804b9a4:	c4 e2 d5 90 34 1d 08 	vpgatherdq %ymm5,0x8062808(,%xmm3,1),%ymm6
 804b9ab:	28 06 08 
 804b9ae:	c5 d5 76 ed          	vpcmpeqd %ymm5,%ymm5,%ymm5
 804b9b2:	c4 e2 d5 90 3c 25 08 	vpgatherdq %ymm5,0x8062808(,%xmm4,1),%ymm7
 804b9b9:	28 06 08 
 804b9bc:	c5 f9 76 db          	vpcmpeqd %xmm3,%xmm0,%xmm3
 804b9c0:	c4 e2 7d 25 db       	vpmovsxdq %xmm3,%ymm3
 804b9c5:	c5 e5 db de          	vpand  %ymm6,%ymm3,%ymm3
 804b9c9:	c5 e5 d4 c9          	vpaddq %ymm1,%ymm3,%ymm1
 804b9cd:	c5 f9 76 dc          	vpcmpeqd %xmm4,%xmm0,%xmm3
 804b9d1:	c4 e2 7d 25 db       	vpmovsxdq %xmm3,%ymm3
 804b9d6:	c5 e5 db df          	vpand  %ymm7,%ymm3,%ymm3
 804b9da:	c5 e5 d4 d2          	vpaddq %ymm2,%ymm3,%ymm2
 804b9de:	c5 fa 6f 99 ac 33 06 	vmovdqu 0x80633ac(%ecx),%xmm3
 804b9e5:	08 
 804b9e6:	c5 fa 6f a1 bc 33 06 	vmovdqu 0x80633bc(%ecx),%xmm4
 804b9ed:	08 
 804b9ee:	c5 d5 76 ed          	vpcmpeqd %ymm5,%ymm5,%ymm5
 804b9f2:	c4 e2 d5 90 34 1d 08 	vpgatherdq %ymm5,0x8062808(,%xmm3,1),%ymm6
 804b9f9:	28 06 08 
 804b9fc:	c5 d5 76 ed          	vpcmpeqd %ymm5,%ymm5,%ymm5
 804ba00:	c4 e2 d5 90 3c 25 08 	vpgatherdq %ymm5,0x8062808(,%xmm4,1),%ymm7
 804ba07:	28 06 08 
 804ba0a:	c5 f9 76 db          	vpcmpeqd %xmm3,%xmm0,%xmm3
 804ba0e:	c4 e2 7d 25 db       	vpmovsxdq %xmm3,%ymm3
 804ba13:	c5 e5 db de          	vpand  %ymm6,%ymm3,%ymm3
 804ba17:	c5 f9 76 e4          	vpcmpeqd %xmm4,%xmm0,%xmm4
 804ba1b:	c4 e2 7d 25 e4       	vpmovsxdq %xmm4,%ymm4
 804ba20:	c5 dd db e7          	vpand  %ymm7,%ymm4,%ymm4
 804ba24:	c5 fa 6f a9 cc 33 06 	vmovdqu 0x80633cc(%ecx),%xmm5
 804ba2b:	08 
 804ba2c:	c5 cd 76 f6          	vpcmpeqd %ymm6,%ymm6,%ymm6
 804ba30:	c4 e2 cd 90 3c 2d 08 	vpgatherdq %ymm6,0x8062808(,%xmm5,1),%ymm7
 804ba37:	28 06 08 
 804ba3a:	c5 f9 76 ed          	vpcmpeqd %xmm5,%xmm0,%xmm5
 804ba3e:	c4 e2 7d 25 ed       	vpmovsxdq %xmm5,%ymm5
 804ba43:	c5 d5 db ef          	vpand  %ymm7,%ymm5,%ymm5
 804ba47:	c5 fa 6f b1 dc 33 06 	vmovdqu 0x80633dc(%ecx),%xmm6
 804ba4e:	08 
 804ba4f:	c5 e5 d4 dd          	vpaddq %ymm5,%ymm3,%ymm3
 804ba53:	c5 d5 76 ed          	vpcmpeqd %ymm5,%ymm5,%ymm5
 804ba57:	c5 f5 d4 cb          	vpaddq %ymm3,%ymm1,%ymm1
 804ba5b:	c4 e2 d5 90 1c 35 08 	vpgatherdq %ymm5,0x8062808(,%xmm6,1),%ymm3
 804ba62:	28 06 08 
 804ba65:	c5 f9 76 ee          	vpcmpeqd %xmm6,%xmm0,%xmm5
 804ba69:	c4 e2 7d 25 ed       	vpmovsxdq %xmm5,%ymm5
 804ba6e:	c5 d5 db db          	vpand  %ymm3,%ymm5,%ymm3
 804ba72:	c5 dd d4 db          	vpaddq %ymm3,%ymm4,%ymm3
 804ba76:	c5 ed d4 d3          	vpaddq %ymm3,%ymm2,%ymm2
 804ba7a:	85 c9                	test   %ecx,%ecx
 804ba7c:	74 56                	je     804bad4 <main+0x28b4>
 804ba7e:	c5 fa 6f 99 ec 33 06 	vmovdqu 0x80633ec(%ecx),%xmm3
 804ba85:	08 
 804ba86:	c5 fa 6f a1 fc 33 06 	vmovdqu 0x80633fc(%ecx),%xmm4
 804ba8d:	08 
 804ba8e:	c5 d5 76 ed          	vpcmpeqd %ymm5,%ymm5,%ymm5
 804ba92:	c4 e2 d5 90 34 1d 08 	vpgatherdq %ymm5,0x8062808(,%xmm3,1),%ymm6
 804ba99:	28 06 08 
 804ba9c:	c5 d5 76 ed          	vpcmpeqd %ymm5,%ymm5,%ymm5
 804baa0:	c4 e2 d5 90 3c 25 08 	vpgatherdq %ymm5,0x8062808(,%xmm4,1),%ymm7
 804baa7:	28 06 08 
 804baaa:	c5 f9 76 db          	vpcmpeqd %xmm3,%xmm0,%xmm3
 804baae:	c4 e2 7d 25 db       	vpmovsxdq %xmm3,%ymm3
 804bab3:	c5 e5 db de          	vpand  %ymm6,%ymm3,%ymm3
 804bab7:	c5 f9 76 e4          	vpcmpeqd %xmm4,%xmm0,%xmm4
 804babb:	c4 e2 7d 25 e4       	vpmovsxdq %xmm4,%ymm4
 804bac0:	c5 dd db e7          	vpand  %ymm7,%ymm4,%ymm4
 804bac4:	c5 e5 d4 c9          	vpaddq %ymm1,%ymm3,%ymm1
 804bac8:	c5 dd d4 d2          	vpaddq %ymm2,%ymm4,%ymm2
 804bacc:	83 e9 80             	sub    $0xffffff80,%ecx
 804bacf:	e9 bc fe ff ff       	jmp    804b990 <main+0x2770>
 804bad4:	c5 ed d4 c1          	vpaddq %ymm1,%ymm2,%ymm0
 804bad8:	c4 e3 7d 39 c1 01    	vextracti128 $0x1,%ymm0,%xmm1
 804bade:	c5 f9 d4 c1          	vpaddq %xmm1,%xmm0,%xmm0
 804bae2:	c5 f9 70 c8 ee       	vpshufd $0xee,%xmm0,%xmm1
 804bae7:	c5 f9 d4 c1          	vpaddq %xmm1,%xmm0,%xmm0
 804baeb:	31 c9                	xor    %ecx,%ecx
 804baed:	81 fe c8 07 00 00    	cmp    $0x7c8,%esi
 804baf3:	b8 00 00 00 00       	mov    $0x0,%eax
 804baf8:	ba eb 79 82 49       	mov    $0x498279eb,%edx
 804bafd:	0f 44 c2             	cmove  %edx,%eax
 804bb00:	ba 00 00 00 00       	mov    $0x0,%edx
 804bb05:	bb a2 fb b2 10       	mov    $0x10b2fba2,%ebx
 804bb0a:	0f 44 d3             	cmove  %ebx,%edx
 804bb0d:	c5 f9 7e c3          	vmovd  %xmm0,%ebx
 804bb11:	01 da                	add    %ebx,%edx
 804bb13:	c4 e3 79 16 c3 01    	vpextrd $0x1,%xmm0,%ebx
 804bb19:	11 d8                	adc    %ebx,%eax
 804bb1b:	81 fe d0 07 00 00    	cmp    $0x7d0,%esi
 804bb21:	bb 00 00 00 00       	mov    $0x0,%ebx
 804bb26:	bf 27 74 e9 a7       	mov    $0xa7e97427,%edi
 804bb2b:	0f 44 df             	cmove  %edi,%ebx
 804bb2e:	bd 00 00 00 00       	mov    $0x0,%ebp
 804bb33:	bf 80 9d 3a ba       	mov    $0xba3a9d80,%edi
 804bb38:	0f 44 ef             	cmove  %edi,%ebp
 804bb3b:	01 d5                	add    %edx,%ebp
 804bb3d:	11 c3                	adc    %eax,%ebx
 804bb3f:	81 fe d8 07 00 00    	cmp    $0x7d8,%esi
 804bb45:	b8 00 00 00 00       	mov    $0x0,%eax
 804bb4a:	ba bf 42 93 f0       	mov    $0xf09342bf,%edx
 804bb4f:	0f 44 c2             	cmove  %edx,%eax
 804bb52:	ba 00 00 00 00       	mov    $0x0,%edx
 804bb57:	bf 4f d1 21 6e       	mov    $0x6e21d14f,%edi
 804bb5c:	0f 44 d7             	cmove  %edi,%edx
 804bb5f:	01 ea                	add    %ebp,%edx
 804bb61:	11 d8                	adc    %ebx,%eax
 804bb63:	81 fe e0 07 00 00    	cmp    $0x7e0,%esi
 804bb69:	bb 00 00 00 00       	mov    $0x0,%ebx
 804bb6e:	bf 42 f8 d9 5d       	mov    $0x5dd9f842,%edi
 804bb73:	0f 44 df             	cmove  %edi,%ebx
 804bb76:	bd 00 00 00 00       	mov    $0x0,%ebp
 804bb7b:	bf 1f 21 7c 63       	mov    $0x637c211f,%edi
 804bb80:	0f 44 ef             	cmove  %edi,%ebp
 804bb83:	01 d5                	add    %edx,%ebp
 804bb85:	11 c3                	adc    %eax,%ebx
 804bb87:	81 fe e8 07 00 00    	cmp    $0x7e8,%esi
 804bb8d:	b8 00 00 00 00       	mov    $0x0,%eax
 804bb92:	ba 86 1e 5d 4c       	mov    $0x4c5d1e86,%edx
 804bb97:	0f 44 c2             	cmove  %edx,%eax
 804bb9a:	ba 00 00 00 00       	mov    $0x0,%edx
 804bb9f:	bf ca 43 0f c5       	mov    $0xc50f43ca,%edi
 804bba4:	0f 44 d7             	cmove  %edi,%edx
 804bba7:	01 ea                	add    %ebp,%edx
 804bba9:	11 d8                	adc    %ebx,%eax
 804bbab:	81 fe f0 07 00 00    	cmp    $0x7f0,%esi
 804bbb1:	bb 00 00 00 00       	mov    $0x0,%ebx
 804bbb6:	bf db 39 da 71       	mov    $0x71da39db,%edi
 804bbbb:	0f 44 df             	cmove  %edi,%ebx
 804bbbe:	bd 00 00 00 00       	mov    $0x0,%ebp
 804bbc3:	bf aa e3 92 38       	mov    $0x3892e3aa,%edi
 804bbc8:	0f 44 ef             	cmove  %edi,%ebp
 804bbcb:	01 d5                	add    %edx,%ebp
 804bbcd:	11 c3                	adc    %eax,%ebx
 804bbcf:	81 fe f8 07 00 00    	cmp    $0x7f8,%esi
 804bbd5:	be 00 00 00 00       	mov    $0x0,%esi
 804bbda:	b8 91 2a ec d3       	mov    $0xd3ec2a91,%eax
 804bbdf:	0f 44 f0             	cmove  %eax,%esi
 804bbe2:	b8 42 c6 15 57       	mov    $0x5715c642,%eax
 804bbe7:	0f 44 c8             	cmove  %eax,%ecx
 804bbea:	01 e9                	add    %ebp,%ecx
 804bbec:	11 de                	adc    %ebx,%esi
 804bbee:	8b 84 24 80 00 00 00 	mov    0x80(%esp),%eax
 804bbf5:	33 84 24 00 01 00 00 	xor    0x100(%esp),%eax
 804bbfc:	33 84 24 e0 00 00 00 	xor    0xe0(%esp),%eax
 804bc03:	33 44 24 14          	xor    0x14(%esp),%eax
 804bc07:	33 44 24 40          	xor    0x40(%esp),%eax
 804bc0b:	33 44 24 10          	xor    0x10(%esp),%eax
 804bc0f:	33 84 24 e0 01 00 00 	xor    0x1e0(%esp),%eax
 804bc16:	33 84 24 c0 01 00 00 	xor    0x1c0(%esp),%eax
 804bc1d:	31 c8                	xor    %ecx,%eax
 804bc1f:	8b bc 24 40 01 00 00 	mov    0x140(%esp),%edi
 804bc26:	33 bc 24 20 01 00 00 	xor    0x120(%esp),%edi
 804bc2d:	33 7c 24 08          	xor    0x8(%esp),%edi
 804bc31:	33 bc 24 a0 01 00 00 	xor    0x1a0(%esp),%edi
 804bc38:	33 bc 24 80 01 00 00 	xor    0x180(%esp),%edi
 804bc3f:	33 bc 24 60 01 00 00 	xor    0x160(%esp),%edi
 804bc46:	33 7c 24 18          	xor    0x18(%esp),%edi
 804bc4a:	33 bc 24 00 02 00 00 	xor    0x200(%esp),%edi
 804bc51:	31 f7                	xor    %esi,%edi
 804bc53:	89 bc 24 40 01 00 00 	mov    %edi,0x140(%esp)
 804bc5a:	81 f7 bf 8d ac 50    	xor    $0x50ac8dbf,%edi
 804bc60:	89 84 24 80 00 00 00 	mov    %eax,0x80(%esp)
 804bc67:	35 4c 9a 52 70       	xor    $0x70529a4c,%eax
 804bc6c:	89 44 24 20          	mov    %eax,0x20(%esp)
 804bc70:	a3 d0 50 06 08       	mov    %eax,0x80650d0
 804bc75:	89 3d d4 50 06 08    	mov    %edi,0x80650d4
 804bc7b:	89 7c 24 40          	mov    %edi,0x40(%esp)
 804bc7f:	89 f8                	mov    %edi,%eax
 804bc81:	c1 e8 15             	shr    $0x15,%eax
 804bc84:	83 e0 f8             	and    $0xfffffff8,%eax
 804bc87:	c5 f9 6e c0          	vmovd  %eax,%xmm0
 804bc8b:	c4 e2 79 58 c0       	vpbroadcastd %xmm0,%xmm0
 804bc90:	c5 f1 ef c9          	vpxor  %xmm1,%xmm1,%xmm1
 804bc94:	b9 80 fc ff ff       	mov    $0xfffffc80,%ecx
 804bc99:	c5 e9 ef d2          	vpxor  %xmm2,%xmm2,%xmm2
 804bc9d:	0f 1f 00             	nopl   (%eax)
 804bca0:	c5 fa 6f 99 8c 33 06 	vmovdqu 0x806338c(%ecx),%xmm3
 804bca7:	08 
 804bca8:	c5 fa 6f a1 9c 33 06 	vmovdqu 0x806339c(%ecx),%xmm4
 804bcaf:	08 
 804bcb0:	c5 d5 76 ed          	vpcmpeqd %ymm5,%ymm5,%ymm5
 804bcb4:	c4 e2 d5 90 34 1d 08 	vpgatherdq %ymm5,0x805f008(,%xmm3,1),%ymm6
 804bcbb:	f0 05 08 
 804bcbe:	c5 d5 76 ed          	vpcmpeqd %ymm5,%ymm5,%ymm5
 804bcc2:	c4 e2 d5 90 3c 25 08 	vpgatherdq %ymm5,0x805f008(,%xmm4,1),%ymm7
 804bcc9:	f0 05 08 
 804bccc:	c5 f9 76 db          	vpcmpeqd %xmm3,%xmm0,%xmm3
 804bcd0:	c4 e2 7d 25 db       	vpmovsxdq %xmm3,%ymm3
 804bcd5:	c5 e5 db de          	vpand  %ymm6,%ymm3,%ymm3
 804bcd9:	c5 e5 d4 c9          	vpaddq %ymm1,%ymm3,%ymm1
 804bcdd:	c5 f9 76 dc          	vpcmpeqd %xmm4,%xmm0,%xmm3
 804bce1:	c4 e2 7d 25 db       	vpmovsxdq %xmm3,%ymm3
 804bce6:	c5 e5 db df          	vpand  %ymm7,%ymm3,%ymm3
 804bcea:	c5 e5 d4 d2          	vpaddq %ymm2,%ymm3,%ymm2
 804bcee:	c5 fa 6f 99 ac 33 06 	vmovdqu 0x80633ac(%ecx),%xmm3
 804bcf5:	08 
 804bcf6:	c5 fa 6f a1 bc 33 06 	vmovdqu 0x80633bc(%ecx),%xmm4
 804bcfd:	08 
 804bcfe:	c5 d5 76 ed          	vpcmpeqd %ymm5,%ymm5,%ymm5
 804bd02:	c4 e2 d5 90 34 1d 08 	vpgatherdq %ymm5,0x805f008(,%xmm3,1),%ymm6
 804bd09:	f0 05 08 
 804bd0c:	c5 d5 76 ed          	vpcmpeqd %ymm5,%ymm5,%ymm5
 804bd10:	c4 e2 d5 90 3c 25 08 	vpgatherdq %ymm5,0x805f008(,%xmm4,1),%ymm7
 804bd17:	f0 05 08 
 804bd1a:	c5 f9 76 db          	vpcmpeqd %xmm3,%xmm0,%xmm3
 804bd1e:	c4 e2 7d 25 db       	vpmovsxdq %xmm3,%ymm3
 804bd23:	c5 e5 db de          	vpand  %ymm6,%ymm3,%ymm3
 804bd27:	c5 f9 76 e4          	vpcmpeqd %xmm4,%xmm0,%xmm4
 804bd2b:	c4 e2 7d 25 e4       	vpmovsxdq %xmm4,%ymm4
 804bd30:	c5 dd db e7          	vpand  %ymm7,%ymm4,%ymm4
 804bd34:	c5 fa 6f a9 cc 33 06 	vmovdqu 0x80633cc(%ecx),%xmm5
 804bd3b:	08 
 804bd3c:	c5 cd 76 f6          	vpcmpeqd %ymm6,%ymm6,%ymm6
 804bd40:	c4 e2 cd 90 3c 2d 08 	vpgatherdq %ymm6,0x805f008(,%xmm5,1),%ymm7
 804bd47:	f0 05 08 
 804bd4a:	c5 f9 76 ed          	vpcmpeqd %xmm5,%xmm0,%xmm5
 804bd4e:	c4 e2 7d 25 ed       	vpmovsxdq %xmm5,%ymm5
 804bd53:	c5 d5 db ef          	vpand  %ymm7,%ymm5,%ymm5
 804bd57:	c5 fa 6f b1 dc 33 06 	vmovdqu 0x80633dc(%ecx),%xmm6
 804bd5e:	08 
 804bd5f:	c5 e5 d4 dd          	vpaddq %ymm5,%ymm3,%ymm3
 804bd63:	c5 d5 76 ed          	vpcmpeqd %ymm5,%ymm5,%ymm5
 804bd67:	c5 f5 d4 cb          	vpaddq %ymm3,%ymm1,%ymm1
 804bd6b:	c4 e2 d5 90 1c 35 08 	vpgatherdq %ymm5,0x805f008(,%xmm6,1),%ymm3
 804bd72:	f0 05 08 
 804bd75:	c5 f9 76 ee          	vpcmpeqd %xmm6,%xmm0,%xmm5
 804bd79:	c4 e2 7d 25 ed       	vpmovsxdq %xmm5,%ymm5
 804bd7e:	c5 d5 db db          	vpand  %ymm3,%ymm5,%ymm3
 804bd82:	c5 dd d4 db          	vpaddq %ymm3,%ymm4,%ymm3
 804bd86:	c5 ed d4 d3          	vpaddq %ymm3,%ymm2,%ymm2
 804bd8a:	85 c9                	test   %ecx,%ecx
 804bd8c:	74 56                	je     804bde4 <main+0x2bc4>
 804bd8e:	c5 fa 6f 99 ec 33 06 	vmovdqu 0x80633ec(%ecx),%xmm3
 804bd95:	08 
 804bd96:	c5 fa 6f a1 fc 33 06 	vmovdqu 0x80633fc(%ecx),%xmm4
 804bd9d:	08 
 804bd9e:	c5 d5 76 ed          	vpcmpeqd %ymm5,%ymm5,%ymm5
 804bda2:	c4 e2 d5 90 34 1d 08 	vpgatherdq %ymm5,0x805f008(,%xmm3,1),%ymm6
 804bda9:	f0 05 08 
 804bdac:	c5 d5 76 ed          	vpcmpeqd %ymm5,%ymm5,%ymm5
 804bdb0:	c4 e2 d5 90 3c 25 08 	vpgatherdq %ymm5,0x805f008(,%xmm4,1),%ymm7
 804bdb7:	f0 05 08 
 804bdba:	c5 f9 76 db          	vpcmpeqd %xmm3,%xmm0,%xmm3
 804bdbe:	c4 e2 7d 25 db       	vpmovsxdq %xmm3,%ymm3
 804bdc3:	c5 e5 db de          	vpand  %ymm6,%ymm3,%ymm3
 804bdc7:	c5 f9 76 e4          	vpcmpeqd %xmm4,%xmm0,%xmm4
 804bdcb:	c4 e2 7d 25 e4       	vpmovsxdq %xmm4,%ymm4
 804bdd0:	c5 dd db e7          	vpand  %ymm7,%ymm4,%ymm4
 804bdd4:	c5 e5 d4 c9          	vpaddq %ymm1,%ymm3,%ymm1
 804bdd8:	c5 dd d4 d2          	vpaddq %ymm2,%ymm4,%ymm2
 804bddc:	83 e9 80             	sub    $0xffffff80,%ecx
 804bddf:	e9 bc fe ff ff       	jmp    804bca0 <main+0x2a80>
 804bde4:	c5 ed d4 c1          	vpaddq %ymm1,%ymm2,%ymm0
 804bde8:	c4 e3 7d 39 c1 01    	vextracti128 $0x1,%ymm0,%xmm1
 804bdee:	c5 f9 d4 c1          	vpaddq %xmm1,%xmm0,%xmm0
 804bdf2:	c5 f9 70 c8 ee       	vpshufd $0xee,%xmm0,%xmm1
 804bdf7:	c5 f9 d4 c1          	vpaddq %xmm1,%xmm0,%xmm0
 804bdfb:	c4 e3 79 16 c1 01    	vpextrd $0x1,%xmm0,%ecx
 804be01:	c5 f9 7e c2          	vmovd  %xmm0,%edx
 804be05:	31 ff                	xor    %edi,%edi
 804be07:	3d c8 07 00 00       	cmp    $0x7c8,%eax
 804be0c:	be 00 00 00 00       	mov    $0x0,%esi
 804be11:	bb 10 b2 fb a2       	mov    $0xa2fbb210,%ebx
 804be16:	0f 44 f3             	cmove  %ebx,%esi
 804be19:	bb 00 00 00 00       	mov    $0x0,%ebx
 804be1e:	bd 49 82 79 eb       	mov    $0xeb798249,%ebp
 804be23:	0f 44 dd             	cmove  %ebp,%ebx
 804be26:	01 d3                	add    %edx,%ebx
 804be28:	11 ce                	adc    %ecx,%esi
 804be2a:	3d d0 07 00 00       	cmp    $0x7d0,%eax
 804be2f:	b9 00 00 00 00       	mov    $0x0,%ecx
 804be34:	ba ba 3a 9d 80       	mov    $0x809d3aba,%edx
 804be39:	0f 44 ca             	cmove  %edx,%ecx
 804be3c:	ba 00 00 00 00       	mov    $0x0,%edx
 804be41:	bd a7 e9 74 27       	mov    $0x2774e9a7,%ebp
 804be46:	0f 44 d5             	cmove  %ebp,%edx
 804be49:	01 da                	add    %ebx,%edx
 804be4b:	11 f1                	adc    %esi,%ecx
 804be4d:	3d d8 07 00 00       	cmp    $0x7d8,%eax
 804be52:	be 00 00 00 00       	mov    $0x0,%esi
 804be57:	bb 6e 21 d1 4f       	mov    $0x4fd1216e,%ebx
 804be5c:	0f 44 f3             	cmove  %ebx,%esi
 804be5f:	bb 00 00 00 00       	mov    $0x0,%ebx
 804be64:	bd f0 93 42 bf       	mov    $0xbf4293f0,%ebp
 804be69:	0f 44 dd             	cmove  %ebp,%ebx
 804be6c:	01 d3                	add    %edx,%ebx
 804be6e:	11 ce                	adc    %ecx,%esi
 804be70:	3d e0 07 00 00       	cmp    $0x7e0,%eax
 804be75:	b9 00 00 00 00       	mov    $0x0,%ecx
 804be7a:	ba 63 7c 21 1f       	mov    $0x1f217c63,%edx
 804be7f:	0f 44 ca             	cmove  %edx,%ecx
 804be82:	ba 00 00 00 00       	mov    $0x0,%edx
 804be87:	bd 5d d9 f8 42       	mov    $0x42f8d95d,%ebp
 804be8c:	0f 44 d5             	cmove  %ebp,%edx
 804be8f:	01 da                	add    %ebx,%edx
 804be91:	11 f1                	adc    %esi,%ecx
 804be93:	3d e8 07 00 00       	cmp    $0x7e8,%eax
 804be98:	be 00 00 00 00       	mov    $0x0,%esi
 804be9d:	bb c5 0f 43 ca       	mov    $0xca430fc5,%ebx
 804bea2:	0f 44 f3             	cmove  %ebx,%esi
 804bea5:	bb 00 00 00 00       	mov    $0x0,%ebx
 804beaa:	bd 4c 5d 1e 86       	mov    $0x861e5d4c,%ebp
 804beaf:	0f 44 dd             	cmove  %ebp,%ebx
 804beb2:	01 d3                	add    %edx,%ebx
 804beb4:	11 ce                	adc    %ecx,%esi
 804beb6:	3d f0 07 00 00       	cmp    $0x7f0,%eax
 804bebb:	b9 00 00 00 00       	mov    $0x0,%ecx
 804bec0:	ba 38 92 e3 aa       	mov    $0xaae39238,%edx
 804bec5:	0f 44 ca             	cmove  %edx,%ecx
 804bec8:	ba 00 00 00 00       	mov    $0x0,%edx
 804becd:	bd 71 da 39 db       	mov    $0xdb39da71,%ebp
 804bed2:	0f 44 d5             	cmove  %ebp,%edx
 804bed5:	01 da                	add    %ebx,%edx
 804bed7:	11 f1                	adc    %esi,%ecx
 804bed9:	3d f8 07 00 00       	cmp    $0x7f8,%eax
 804bede:	be 00 00 00 00       	mov    $0x0,%esi
 804bee3:	b8 57 15 c6 42       	mov    $0x42c61557,%eax
 804bee8:	0f 44 f0             	cmove  %eax,%esi
 804beeb:	b8 d3 ec 2a 91       	mov    $0x912aecd3,%eax
 804bef0:	0f 44 f8             	cmove  %eax,%edi
 804bef3:	01 d7                	add    %edx,%edi
 804bef5:	89 bc 24 00 01 00 00 	mov    %edi,0x100(%esp)
 804befc:	11 ce                	adc    %ecx,%esi
 804befe:	89 b4 24 20 01 00 00 	mov    %esi,0x120(%esp)
 804bf05:	8b 44 24 40          	mov    0x40(%esp),%eax
 804bf09:	c1 e8 0d             	shr    $0xd,%eax
 804bf0c:	25 f8 07 00 00       	and    $0x7f8,%eax
 804bf11:	c5 f9 6e c0          	vmovd  %eax,%xmm0
 804bf15:	c4 e2 79 58 c0       	vpbroadcastd %xmm0,%xmm0
 804bf1a:	c5 f1 ef c9          	vpxor  %xmm1,%xmm1,%xmm1
 804bf1e:	b9 80 fc ff ff       	mov    $0xfffffc80,%ecx
 804bf23:	c5 e9 ef d2          	vpxor  %xmm2,%xmm2,%xmm2
 804bf27:	66 0f 1f 84 00 00 00 	nopw   0x0(%eax,%eax,1)
 804bf2e:	00 00 
 804bf30:	c5 fa 6f 99 8c 33 06 	vmovdqu 0x806338c(%ecx),%xmm3
 804bf37:	08 
 804bf38:	c5 fa 6f a1 9c 33 06 	vmovdqu 0x806339c(%ecx),%xmm4
 804bf3f:	08 
 804bf40:	c5 d5 76 ed          	vpcmpeqd %ymm5,%ymm5,%ymm5
 804bf44:	c4 e2 d5 90 34 1d 08 	vpgatherdq %ymm5,0x805f808(,%xmm3,1),%ymm6
 804bf4b:	f8 05 08 
 804bf4e:	c5 d5 76 ed          	vpcmpeqd %ymm5,%ymm5,%ymm5
 804bf52:	c4 e2 d5 90 3c 25 08 	vpgatherdq %ymm5,0x805f808(,%xmm4,1),%ymm7
 804bf59:	f8 05 08 
 804bf5c:	c5 f9 76 db          	vpcmpeqd %xmm3,%xmm0,%xmm3
 804bf60:	c4 e2 7d 25 db       	vpmovsxdq %xmm3,%ymm3
 804bf65:	c5 e5 db de          	vpand  %ymm6,%ymm3,%ymm3
 804bf69:	c5 e5 d4 c9          	vpaddq %ymm1,%ymm3,%ymm1
 804bf6d:	c5 f9 76 dc          	vpcmpeqd %xmm4,%xmm0,%xmm3
 804bf71:	c4 e2 7d 25 db       	vpmovsxdq %xmm3,%ymm3
 804bf76:	c5 e5 db df          	vpand  %ymm7,%ymm3,%ymm3
 804bf7a:	c5 e5 d4 d2          	vpaddq %ymm2,%ymm3,%ymm2
 804bf7e:	c5 fa 6f 99 ac 33 06 	vmovdqu 0x80633ac(%ecx),%xmm3
 804bf85:	08 
 804bf86:	c5 fa 6f a1 bc 33 06 	vmovdqu 0x80633bc(%ecx),%xmm4
 804bf8d:	08 
 804bf8e:	c5 d5 76 ed          	vpcmpeqd %ymm5,%ymm5,%ymm5
 804bf92:	c4 e2 d5 90 34 1d 08 	vpgatherdq %ymm5,0x805f808(,%xmm3,1),%ymm6
 804bf99:	f8 05 08 
 804bf9c:	c5 d5 76 ed          	vpcmpeqd %ymm5,%ymm5,%ymm5
 804bfa0:	c4 e2 d5 90 3c 25 08 	vpgatherdq %ymm5,0x805f808(,%xmm4,1),%ymm7
 804bfa7:	f8 05 08 
 804bfaa:	c5 f9 76 db          	vpcmpeqd %xmm3,%xmm0,%xmm3
 804bfae:	c4 e2 7d 25 db       	vpmovsxdq %xmm3,%ymm3
 804bfb3:	c5 e5 db de          	vpand  %ymm6,%ymm3,%ymm3
 804bfb7:	c5 f9 76 e4          	vpcmpeqd %xmm4,%xmm0,%xmm4
 804bfbb:	c4 e2 7d 25 e4       	vpmovsxdq %xmm4,%ymm4
 804bfc0:	c5 dd db e7          	vpand  %ymm7,%ymm4,%ymm4
 804bfc4:	c5 fa 6f a9 cc 33 06 	vmovdqu 0x80633cc(%ecx),%xmm5
 804bfcb:	08 
 804bfcc:	c5 cd 76 f6          	vpcmpeqd %ymm6,%ymm6,%ymm6
 804bfd0:	c4 e2 cd 90 3c 2d 08 	vpgatherdq %ymm6,0x805f808(,%xmm5,1),%ymm7
 804bfd7:	f8 05 08 
 804bfda:	c5 f9 76 ed          	vpcmpeqd %xmm5,%xmm0,%xmm5
 804bfde:	c4 e2 7d 25 ed       	vpmovsxdq %xmm5,%ymm5
 804bfe3:	c5 d5 db ef          	vpand  %ymm7,%ymm5,%ymm5
 804bfe7:	c5 fa 6f b1 dc 33 06 	vmovdqu 0x80633dc(%ecx),%xmm6
 804bfee:	08 
 804bfef:	c5 e5 d4 dd          	vpaddq %ymm5,%ymm3,%ymm3
 804bff3:	c5 d5 76 ed          	vpcmpeqd %ymm5,%ymm5,%ymm5
 804bff7:	c5 f5 d4 cb          	vpaddq %ymm3,%ymm1,%ymm1
 804bffb:	c4 e2 d5 90 1c 35 08 	vpgatherdq %ymm5,0x805f808(,%xmm6,1),%ymm3
 804c002:	f8 05 08 
 804c005:	c5 f9 76 ee          	vpcmpeqd %xmm6,%xmm0,%xmm5
 804c009:	c4 e2 7d 25 ed       	vpmovsxdq %xmm5,%ymm5
 804c00e:	c5 d5 db db          	vpand  %ymm3,%ymm5,%ymm3
 804c012:	c5 dd d4 db          	vpaddq %ymm3,%ymm4,%ymm3
 804c016:	c5 ed d4 d3          	vpaddq %ymm3,%ymm2,%ymm2
 804c01a:	85 c9                	test   %ecx,%ecx
 804c01c:	74 56                	je     804c074 <main+0x2e54>
 804c01e:	c5 fa 6f 99 ec 33 06 	vmovdqu 0x80633ec(%ecx),%xmm3
 804c025:	08 
 804c026:	c5 fa 6f a1 fc 33 06 	vmovdqu 0x80633fc(%ecx),%xmm4
 804c02d:	08 
 804c02e:	c5 d5 76 ed          	vpcmpeqd %ymm5,%ymm5,%ymm5
 804c032:	c4 e2 d5 90 34 1d 08 	vpgatherdq %ymm5,0x805f808(,%xmm3,1),%ymm6
 804c039:	f8 05 08 
 804c03c:	c5 d5 76 ed          	vpcmpeqd %ymm5,%ymm5,%ymm5
 804c040:	c4 e2 d5 90 3c 25 08 	vpgatherdq %ymm5,0x805f808(,%xmm4,1),%ymm7
 804c047:	f8 05 08 
 804c04a:	c5 f9 76 db          	vpcmpeqd %xmm3,%xmm0,%xmm3
 804c04e:	c4 e2 7d 25 db       	vpmovsxdq %xmm3,%ymm3
 804c053:	c5 e5 db de          	vpand  %ymm6,%ymm3,%ymm3
 804c057:	c5 f9 76 e4          	vpcmpeqd %xmm4,%xmm0,%xmm4
 804c05b:	c4 e2 7d 25 e4       	vpmovsxdq %xmm4,%ymm4
 804c060:	c5 dd db e7          	vpand  %ymm7,%ymm4,%ymm4
 804c064:	c5 e5 d4 c9          	vpaddq %ymm1,%ymm3,%ymm1
 804c068:	c5 dd d4 d2          	vpaddq %ymm2,%ymm4,%ymm2
 804c06c:	83 e9 80             	sub    $0xffffff80,%ecx
 804c06f:	e9 bc fe ff ff       	jmp    804bf30 <main+0x2d10>
 804c074:	c5 ed d4 c1          	vpaddq %ymm1,%ymm2,%ymm0
 804c078:	c4 e3 7d 39 c1 01    	vextracti128 $0x1,%ymm0,%xmm1
 804c07e:	c5 f9 d4 c1          	vpaddq %xmm1,%xmm0,%xmm0
 804c082:	c5 f9 70 c8 ee       	vpshufd $0xee,%xmm0,%xmm1
 804c087:	c5 f9 d4 c1          	vpaddq %xmm1,%xmm0,%xmm0
 804c08b:	c4 e3 79 16 c1 01    	vpextrd $0x1,%xmm0,%ecx
 804c091:	c5 f9 7e c2          	vmovd  %xmm0,%edx
 804c095:	31 ff                	xor    %edi,%edi
 804c097:	3d c8 07 00 00       	cmp    $0x7c8,%eax
 804c09c:	be 00 00 00 00       	mov    $0x0,%esi
 804c0a1:	bb b2 10 a2 fb       	mov    $0xfba210b2,%ebx
 804c0a6:	0f 44 f3             	cmove  %ebx,%esi
 804c0a9:	bb 00 00 00 00       	mov    $0x0,%ebx
 804c0ae:	bd 82 49 eb 79       	mov    $0x79eb4982,%ebp
 804c0b3:	0f 44 dd             	cmove  %ebp,%ebx
 804c0b6:	01 d3                	add    %edx,%ebx
 804c0b8:	11 ce                	adc    %ecx,%esi
 804c0ba:	3d d0 07 00 00       	cmp    $0x7d0,%eax
 804c0bf:	b9 00 00 00 00       	mov    $0x0,%ecx
 804c0c4:	ba 3a ba 80 9d       	mov    $0x9d80ba3a,%edx
 804c0c9:	0f 44 ca             	cmove  %edx,%ecx
 804c0cc:	ba 00 00 00 00       	mov    $0x0,%edx
 804c0d1:	bd e9 a7 27 74       	mov    $0x7427a7e9,%ebp
 804c0d6:	0f 44 d5             	cmove  %ebp,%edx
 804c0d9:	01 da                	add    %ebx,%edx
 804c0db:	11 f1                	adc    %esi,%ecx
 804c0dd:	3d d8 07 00 00       	cmp    $0x7d8,%eax
 804c0e2:	be 00 00 00 00       	mov    $0x0,%esi
 804c0e7:	bb 21 6e 4f d1       	mov    $0xd14f6e21,%ebx
 804c0ec:	0f 44 f3             	cmove  %ebx,%esi
 804c0ef:	bb 00 00 00 00       	mov    $0x0,%ebx
 804c0f4:	bd 93 f0 bf 42       	mov    $0x42bff093,%ebp
 804c0f9:	0f 44 dd             	cmove  %ebp,%ebx
 804c0fc:	01 d3                	add    %edx,%ebx
 804c0fe:	11 ce                	adc    %ecx,%esi
 804c100:	3d e0 07 00 00       	cmp    $0x7e0,%eax
 804c105:	b9 00 00 00 00       	mov    $0x0,%ecx
 804c10a:	ba 7c 63 1f 21       	mov    $0x211f637c,%edx
 804c10f:	0f 44 ca             	cmove  %edx,%ecx
 804c112:	ba 00 00 00 00       	mov    $0x0,%edx
 804c117:	bd d9 5d 42 f8       	mov    $0xf8425dd9,%ebp
 804c11c:	0f 44 d5             	cmove  %ebp,%edx
 804c11f:	01 da                	add    %ebx,%edx
 804c121:	11 f1                	adc    %esi,%ecx
 804c123:	3d e8 07 00 00       	cmp    $0x7e8,%eax
 804c128:	be 00 00 00 00       	mov    $0x0,%esi
 804c12d:	bb 0f c5 ca 43       	mov    $0x43cac50f,%ebx
 804c132:	0f 44 f3             	cmove  %ebx,%esi
 804c135:	bb 00 00 00 00       	mov    $0x0,%ebx
 804c13a:	bd 5d 4c 86 1e       	mov    $0x1e864c5d,%ebp
 804c13f:	0f 44 dd             	cmove  %ebp,%ebx
 804c142:	01 d3                	add    %edx,%ebx
 804c144:	11 ce                	adc    %ecx,%esi
 804c146:	3d f0 07 00 00       	cmp    $0x7f0,%eax
 804c14b:	b9 00 00 00 00       	mov    $0x0,%ecx
 804c150:	ba 92 38 aa e3       	mov    $0xe3aa3892,%edx
 804c155:	0f 44 ca             	cmove  %edx,%ecx
 804c158:	ba 00 00 00 00       	mov    $0x0,%edx
 804c15d:	bd da 71 db 39       	mov    $0x39db71da,%ebp
 804c162:	0f 44 d5             	cmove  %ebp,%edx
 804c165:	01 da                	add    %ebx,%edx
 804c167:	11 f1                	adc    %esi,%ecx
 804c169:	3d f8 07 00 00       	cmp    $0x7f8,%eax
 804c16e:	be 00 00 00 00       	mov    $0x0,%esi
 804c173:	b8 15 57 42 c6       	mov    $0xc6425715,%eax
 804c178:	0f 44 f0             	cmove  %eax,%esi
 804c17b:	b8 ec d3 91 2a       	mov    $0x2a91d3ec,%eax
 804c180:	0f 44 f8             	cmove  %eax,%edi
 804c183:	01 d7                	add    %edx,%edi
 804c185:	89 bc 24 e0 00 00 00 	mov    %edi,0xe0(%esp)
 804c18c:	11 ce                	adc    %ecx,%esi
 804c18e:	89 74 24 08          	mov    %esi,0x8(%esp)
 804c192:	8b 44 24 40          	mov    0x40(%esp),%eax
 804c196:	c1 e8 05             	shr    $0x5,%eax
 804c199:	25 f8 07 00 00       	and    $0x7f8,%eax
 804c19e:	c5 f9 6e c0          	vmovd  %eax,%xmm0
 804c1a2:	c4 e2 79 58 c0       	vpbroadcastd %xmm0,%xmm0
 804c1a7:	c5 f1 ef c9          	vpxor  %xmm1,%xmm1,%xmm1
 804c1ab:	b9 80 fc ff ff       	mov    $0xfffffc80,%ecx
 804c1b0:	c5 e9 ef d2          	vpxor  %xmm2,%xmm2,%xmm2
 804c1b4:	66 66 66 2e 0f 1f 84 	data16 data16 nopw %cs:0x0(%eax,%eax,1)
 804c1bb:	00 00 00 00 00 
 804c1c0:	c5 fa 6f 99 8c 33 06 	vmovdqu 0x806338c(%ecx),%xmm3
 804c1c7:	08 
 804c1c8:	c5 fa 6f a1 9c 33 06 	vmovdqu 0x806339c(%ecx),%xmm4
 804c1cf:	08 
 804c1d0:	c5 d5 76 ed          	vpcmpeqd %ymm5,%ymm5,%ymm5
 804c1d4:	c4 e2 d5 90 34 1d 08 	vpgatherdq %ymm5,0x8060008(,%xmm3,1),%ymm6
 804c1db:	00 06 08 
 804c1de:	c5 d5 76 ed          	vpcmpeqd %ymm5,%ymm5,%ymm5
 804c1e2:	c4 e2 d5 90 3c 25 08 	vpgatherdq %ymm5,0x8060008(,%xmm4,1),%ymm7
 804c1e9:	00 06 08 
 804c1ec:	c5 f9 76 db          	vpcmpeqd %xmm3,%xmm0,%xmm3
 804c1f0:	c4 e2 7d 25 db       	vpmovsxdq %xmm3,%ymm3
 804c1f5:	c5 e5 db de          	vpand  %ymm6,%ymm3,%ymm3
 804c1f9:	c5 e5 d4 c9          	vpaddq %ymm1,%ymm3,%ymm1
 804c1fd:	c5 f9 76 dc          	vpcmpeqd %xmm4,%xmm0,%xmm3
 804c201:	c4 e2 7d 25 db       	vpmovsxdq %xmm3,%ymm3
 804c206:	c5 e5 db df          	vpand  %ymm7,%ymm3,%ymm3
 804c20a:	c5 e5 d4 d2          	vpaddq %ymm2,%ymm3,%ymm2
 804c20e:	c5 fa 6f 99 ac 33 06 	vmovdqu 0x80633ac(%ecx),%xmm3
 804c215:	08 
 804c216:	c5 fa 6f a1 bc 33 06 	vmovdqu 0x80633bc(%ecx),%xmm4
 804c21d:	08 
 804c21e:	c5 d5 76 ed          	vpcmpeqd %ymm5,%ymm5,%ymm5
 804c222:	c4 e2 d5 90 34 1d 08 	vpgatherdq %ymm5,0x8060008(,%xmm3,1),%ymm6
 804c229:	00 06 08 
 804c22c:	c5 d5 76 ed          	vpcmpeqd %ymm5,%ymm5,%ymm5
 804c230:	c4 e2 d5 90 3c 25 08 	vpgatherdq %ymm5,0x8060008(,%xmm4,1),%ymm7
 804c237:	00 06 08 
 804c23a:	c5 f9 76 db          	vpcmpeqd %xmm3,%xmm0,%xmm3
 804c23e:	c4 e2 7d 25 db       	vpmovsxdq %xmm3,%ymm3
 804c243:	c5 e5 db de          	vpand  %ymm6,%ymm3,%ymm3
 804c247:	c5 f9 76 e4          	vpcmpeqd %xmm4,%xmm0,%xmm4
 804c24b:	c4 e2 7d 25 e4       	vpmovsxdq %xmm4,%ymm4
 804c250:	c5 dd db e7          	vpand  %ymm7,%ymm4,%ymm4
 804c254:	c5 fa 6f a9 cc 33 06 	vmovdqu 0x80633cc(%ecx),%xmm5
 804c25b:	08 
 804c25c:	c5 cd 76 f6          	vpcmpeqd %ymm6,%ymm6,%ymm6
 804c260:	c4 e2 cd 90 3c 2d 08 	vpgatherdq %ymm6,0x8060008(,%xmm5,1),%ymm7
 804c267:	00 06 08 
 804c26a:	c5 f9 76 ed          	vpcmpeqd %xmm5,%xmm0,%xmm5
 804c26e:	c4 e2 7d 25 ed       	vpmovsxdq %xmm5,%ymm5
 804c273:	c5 d5 db ef          	vpand  %ymm7,%ymm5,%ymm5
 804c277:	c5 fa 6f b1 dc 33 06 	vmovdqu 0x80633dc(%ecx),%xmm6
 804c27e:	08 
 804c27f:	c5 e5 d4 dd          	vpaddq %ymm5,%ymm3,%ymm3
 804c283:	c5 d5 76 ed          	vpcmpeqd %ymm5,%ymm5,%ymm5
 804c287:	c5 f5 d4 cb          	vpaddq %ymm3,%ymm1,%ymm1
 804c28b:	c4 e2 d5 90 1c 35 08 	vpgatherdq %ymm5,0x8060008(,%xmm6,1),%ymm3
 804c292:	00 06 08 
 804c295:	c5 f9 76 ee          	vpcmpeqd %xmm6,%xmm0,%xmm5
 804c299:	c4 e2 7d 25 ed       	vpmovsxdq %xmm5,%ymm5
 804c29e:	c5 d5 db db          	vpand  %ymm3,%ymm5,%ymm3
 804c2a2:	c5 dd d4 db          	vpaddq %ymm3,%ymm4,%ymm3
 804c2a6:	c5 ed d4 d3          	vpaddq %ymm3,%ymm2,%ymm2
 804c2aa:	85 c9                	test   %ecx,%ecx
 804c2ac:	74 56                	je     804c304 <main+0x30e4>
 804c2ae:	c5 fa 6f 99 ec 33 06 	vmovdqu 0x80633ec(%ecx),%xmm3
 804c2b5:	08 
 804c2b6:	c5 fa 6f a1 fc 33 06 	vmovdqu 0x80633fc(%ecx),%xmm4
 804c2bd:	08 
 804c2be:	c5 d5 76 ed          	vpcmpeqd %ymm5,%ymm5,%ymm5
 804c2c2:	c4 e2 d5 90 34 1d 08 	vpgatherdq %ymm5,0x8060008(,%xmm3,1),%ymm6
 804c2c9:	00 06 08 
 804c2cc:	c5 d5 76 ed          	vpcmpeqd %ymm5,%ymm5,%ymm5
 804c2d0:	c4 e2 d5 90 3c 25 08 	vpgatherdq %ymm5,0x8060008(,%xmm4,1),%ymm7
 804c2d7:	00 06 08 
 804c2da:	c5 f9 76 db          	vpcmpeqd %xmm3,%xmm0,%xmm3
 804c2de:	c4 e2 7d 25 db       	vpmovsxdq %xmm3,%ymm3
 804c2e3:	c5 e5 db de          	vpand  %ymm6,%ymm3,%ymm3
 804c2e7:	c5 f9 76 e4          	vpcmpeqd %xmm4,%xmm0,%xmm4
 804c2eb:	c4 e2 7d 25 e4       	vpmovsxdq %xmm4,%ymm4
 804c2f0:	c5 dd db e7          	vpand  %ymm7,%ymm4,%ymm4
 804c2f4:	c5 e5 d4 c9          	vpaddq %ymm1,%ymm3,%ymm1
 804c2f8:	c5 dd d4 d2          	vpaddq %ymm2,%ymm4,%ymm2
 804c2fc:	83 e9 80             	sub    $0xffffff80,%ecx
 804c2ff:	e9 bc fe ff ff       	jmp    804c1c0 <main+0x2fa0>
 804c304:	c5 ed d4 c1          	vpaddq %ymm1,%ymm2,%ymm0
 804c308:	c4 e3 7d 39 c1 01    	vextracti128 $0x1,%ymm0,%xmm1
 804c30e:	c5 f9 d4 c1          	vpaddq %xmm1,%xmm0,%xmm0
 804c312:	c5 f9 70 c8 ee       	vpshufd $0xee,%xmm0,%xmm1
 804c317:	c5 f9 d4 c1          	vpaddq %xmm1,%xmm0,%xmm0
 804c31b:	c4 e3 79 16 c1 01    	vpextrd $0x1,%xmm0,%ecx
 804c321:	c5 f9 7e c2          	vmovd  %xmm0,%edx
 804c325:	31 ff                	xor    %edi,%edi
 804c327:	3d c8 07 00 00       	cmp    $0x7c8,%eax
 804c32c:	be 00 00 00 00       	mov    $0x0,%esi
 804c331:	bb fb a2 10 b2       	mov    $0xb210a2fb,%ebx
 804c336:	0f 44 f3             	cmove  %ebx,%esi
 804c339:	bb 00 00 00 00       	mov    $0x0,%ebx
 804c33e:	bd 79 eb 49 82       	mov    $0x8249eb79,%ebp
 804c343:	0f 44 dd             	cmove  %ebp,%ebx
 804c346:	01 d3                	add    %edx,%ebx
 804c348:	11 ce                	adc    %ecx,%esi
 804c34a:	3d d0 07 00 00       	cmp    $0x7d0,%eax
 804c34f:	b9 00 00 00 00       	mov    $0x0,%ecx
 804c354:	ba 9d 80 ba 3a       	mov    $0x3aba809d,%edx
 804c359:	0f 44 ca             	cmove  %edx,%ecx
 804c35c:	ba 00 00 00 00       	mov    $0x0,%edx
 804c361:	bd 74 27 a7 e9       	mov    $0xe9a72774,%ebp
 804c366:	0f 44 d5             	cmove  %ebp,%edx
 804c369:	01 da                	add    %ebx,%edx
 804c36b:	11 f1                	adc    %esi,%ecx
 804c36d:	3d d8 07 00 00       	cmp    $0x7d8,%eax
 804c372:	be 00 00 00 00       	mov    $0x0,%esi
 804c377:	bb d1 4f 6e 21       	mov    $0x216e4fd1,%ebx
 804c37c:	0f 44 f3             	cmove  %ebx,%esi
 804c37f:	bb 00 00 00 00       	mov    $0x0,%ebx
 804c384:	bd 42 bf f0 93       	mov    $0x93f0bf42,%ebp
 804c389:	0f 44 dd             	cmove  %ebp,%ebx
 804c38c:	01 d3                	add    %edx,%ebx
 804c38e:	11 ce                	adc    %ecx,%esi
 804c390:	3d e0 07 00 00       	cmp    $0x7e0,%eax
 804c395:	b9 00 00 00 00       	mov    $0x0,%ecx
 804c39a:	ba 21 1f 63 7c       	mov    $0x7c631f21,%edx
 804c39f:	0f 44 ca             	cmove  %edx,%ecx
 804c3a2:	ba 00 00 00 00       	mov    $0x0,%edx
 804c3a7:	bd f8 42 5d d9       	mov    $0xd95d42f8,%ebp
 804c3ac:	0f 44 d5             	cmove  %ebp,%edx
 804c3af:	01 da                	add    %ebx,%edx
 804c3b1:	11 f1                	adc    %esi,%ecx
 804c3b3:	3d e8 07 00 00       	cmp    $0x7e8,%eax
 804c3b8:	be 00 00 00 00       	mov    $0x0,%esi
 804c3bd:	bb 43 ca c5 0f       	mov    $0xfc5ca43,%ebx
 804c3c2:	0f 44 f3             	cmove  %ebx,%esi
 804c3c5:	bb 00 00 00 00       	mov    $0x0,%ebx
 804c3ca:	bd 1e 86 4c 5d       	mov    $0x5d4c861e,%ebp
 804c3cf:	0f 44 dd             	cmove  %ebp,%ebx
 804c3d2:	01 d3                	add    %edx,%ebx
 804c3d4:	11 ce                	adc    %ecx,%esi
 804c3d6:	3d f0 07 00 00       	cmp    $0x7f0,%eax
 804c3db:	b9 00 00 00 00       	mov    $0x0,%ecx
 804c3e0:	ba e3 aa 38 92       	mov    $0x9238aae3,%edx
 804c3e5:	0f 44 ca             	cmove  %edx,%ecx
 804c3e8:	ba 00 00 00 00       	mov    $0x0,%edx
 804c3ed:	bd 39 db 71 da       	mov    $0xda71db39,%ebp
 804c3f2:	0f 44 d5             	cmove  %ebp,%edx
 804c3f5:	01 da                	add    %ebx,%edx
 804c3f7:	11 f1                	adc    %esi,%ecx
 804c3f9:	3d f8 07 00 00       	cmp    $0x7f8,%eax
 804c3fe:	be 00 00 00 00       	mov    $0x0,%esi
 804c403:	b8 c6 42 57 15       	mov    $0x155742c6,%eax
 804c408:	0f 44 f0             	cmove  %eax,%esi
 804c40b:	b8 2a 91 d3 ec       	mov    $0xecd3912a,%eax
 804c410:	0f 44 f8             	cmove  %eax,%edi
 804c413:	01 d7                	add    %edx,%edi
 804c415:	89 7c 24 14          	mov    %edi,0x14(%esp)
 804c419:	11 ce                	adc    %ecx,%esi
 804c41b:	89 b4 24 a0 01 00 00 	mov    %esi,0x1a0(%esp)
 804c422:	8b 44 24 20          	mov    0x20(%esp),%eax
 804c426:	8b 4c 24 40          	mov    0x40(%esp),%ecx
 804c42a:	0f a4 c1 03          	shld   $0x3,%eax,%ecx
 804c42e:	81 e1 f8 07 00 00    	and    $0x7f8,%ecx
 804c434:	89 ca                	mov    %ecx,%edx
 804c436:	c5 f9 6e c1          	vmovd  %ecx,%xmm0
 804c43a:	c4 e2 79 58 c0       	vpbroadcastd %xmm0,%xmm0
 804c43f:	c5 f1 ef c9          	vpxor  %xmm1,%xmm1,%xmm1
 804c443:	b8 80 fc ff ff       	mov    $0xfffffc80,%eax
 804c448:	c5 e9 ef d2          	vpxor  %xmm2,%xmm2,%xmm2
 804c44c:	0f 1f 40 00          	nopl   0x0(%eax)
 804c450:	c5 fa 6f 98 8c 33 06 	vmovdqu 0x806338c(%eax),%xmm3
 804c457:	08 
 804c458:	c5 fa 6f a0 9c 33 06 	vmovdqu 0x806339c(%eax),%xmm4
 804c45f:	08 
 804c460:	c5 d5 76 ed          	vpcmpeqd %ymm5,%ymm5,%ymm5
 804c464:	c4 e2 d5 90 34 1d 08 	vpgatherdq %ymm5,0x8060808(,%xmm3,1),%ymm6
 804c46b:	08 06 08 
 804c46e:	c5 d5 76 ed          	vpcmpeqd %ymm5,%ymm5,%ymm5
 804c472:	c4 e2 d5 90 3c 25 08 	vpgatherdq %ymm5,0x8060808(,%xmm4,1),%ymm7
 804c479:	08 06 08 
 804c47c:	c5 f9 76 db          	vpcmpeqd %xmm3,%xmm0,%xmm3
 804c480:	c4 e2 7d 25 db       	vpmovsxdq %xmm3,%ymm3
 804c485:	c5 e5 db de          	vpand  %ymm6,%ymm3,%ymm3
 804c489:	c5 e5 d4 c9          	vpaddq %ymm1,%ymm3,%ymm1
 804c48d:	c5 f9 76 dc          	vpcmpeqd %xmm4,%xmm0,%xmm3
 804c491:	c4 e2 7d 25 db       	vpmovsxdq %xmm3,%ymm3
 804c496:	c5 e5 db df          	vpand  %ymm7,%ymm3,%ymm3
 804c49a:	c5 e5 d4 d2          	vpaddq %ymm2,%ymm3,%ymm2
 804c49e:	c5 fa 6f 98 ac 33 06 	vmovdqu 0x80633ac(%eax),%xmm3
 804c4a5:	08 
 804c4a6:	c5 fa 6f a0 bc 33 06 	vmovdqu 0x80633bc(%eax),%xmm4
 804c4ad:	08 
 804c4ae:	c5 d5 76 ed          	vpcmpeqd %ymm5,%ymm5,%ymm5
 804c4b2:	c4 e2 d5 90 34 1d 08 	vpgatherdq %ymm5,0x8060808(,%xmm3,1),%ymm6
 804c4b9:	08 06 08 
 804c4bc:	c5 d5 76 ed          	vpcmpeqd %ymm5,%ymm5,%ymm5
 804c4c0:	c4 e2 d5 90 3c 25 08 	vpgatherdq %ymm5,0x8060808(,%xmm4,1),%ymm7
 804c4c7:	08 06 08 
 804c4ca:	c5 f9 76 db          	vpcmpeqd %xmm3,%xmm0,%xmm3
 804c4ce:	c4 e2 7d 25 db       	vpmovsxdq %xmm3,%ymm3
 804c4d3:	c5 e5 db de          	vpand  %ymm6,%ymm3,%ymm3
 804c4d7:	c5 f9 76 e4          	vpcmpeqd %xmm4,%xmm0,%xmm4
 804c4db:	c4 e2 7d 25 e4       	vpmovsxdq %xmm4,%ymm4
 804c4e0:	c5 dd db e7          	vpand  %ymm7,%ymm4,%ymm4
 804c4e4:	c5 fa 6f a8 cc 33 06 	vmovdqu 0x80633cc(%eax),%xmm5
 804c4eb:	08 
 804c4ec:	c5 cd 76 f6          	vpcmpeqd %ymm6,%ymm6,%ymm6
 804c4f0:	c4 e2 cd 90 3c 2d 08 	vpgatherdq %ymm6,0x8060808(,%xmm5,1),%ymm7
 804c4f7:	08 06 08 
 804c4fa:	c5 f9 76 ed          	vpcmpeqd %xmm5,%xmm0,%xmm5
 804c4fe:	c4 e2 7d 25 ed       	vpmovsxdq %xmm5,%ymm5
 804c503:	c5 d5 db ef          	vpand  %ymm7,%ymm5,%ymm5
 804c507:	c5 fa 6f b0 dc 33 06 	vmovdqu 0x80633dc(%eax),%xmm6
 804c50e:	08 
 804c50f:	c5 e5 d4 dd          	vpaddq %ymm5,%ymm3,%ymm3
 804c513:	c5 d5 76 ed          	vpcmpeqd %ymm5,%ymm5,%ymm5
 804c517:	c5 f5 d4 cb          	vpaddq %ymm3,%ymm1,%ymm1
 804c51b:	c4 e2 d5 90 1c 35 08 	vpgatherdq %ymm5,0x8060808(,%xmm6,1),%ymm3
 804c522:	08 06 08 
 804c525:	c5 f9 76 ee          	vpcmpeqd %xmm6,%xmm0,%xmm5
 804c529:	c4 e2 7d 25 ed       	vpmovsxdq %xmm5,%ymm5
 804c52e:	c5 d5 db db          	vpand  %ymm3,%ymm5,%ymm3
 804c532:	c5 dd d4 db          	vpaddq %ymm3,%ymm4,%ymm3
 804c536:	c5 ed d4 d3          	vpaddq %ymm3,%ymm2,%ymm2
 804c53a:	85 c0                	test   %eax,%eax
 804c53c:	74 56                	je     804c594 <main+0x3374>
 804c53e:	c5 fa 6f 98 ec 33 06 	vmovdqu 0x80633ec(%eax),%xmm3
 804c545:	08 
 804c546:	c5 fa 6f a0 fc 33 06 	vmovdqu 0x80633fc(%eax),%xmm4
 804c54d:	08 
 804c54e:	c5 d5 76 ed          	vpcmpeqd %ymm5,%ymm5,%ymm5
 804c552:	c4 e2 d5 90 34 1d 08 	vpgatherdq %ymm5,0x8060808(,%xmm3,1),%ymm6
 804c559:	08 06 08 
 804c55c:	c5 d5 76 ed          	vpcmpeqd %ymm5,%ymm5,%ymm5
 804c560:	c4 e2 d5 90 3c 25 08 	vpgatherdq %ymm5,0x8060808(,%xmm4,1),%ymm7
 804c567:	08 06 08 
 804c56a:	c5 f9 76 db          	vpcmpeqd %xmm3,%xmm0,%xmm3
 804c56e:	c4 e2 7d 25 db       	vpmovsxdq %xmm3,%ymm3
 804c573:	c5 e5 db de          	vpand  %ymm6,%ymm3,%ymm3
 804c577:	c5 f9 76 e4          	vpcmpeqd %xmm4,%xmm0,%xmm4
 804c57b:	c4 e2 7d 25 e4       	vpmovsxdq %xmm4,%ymm4
 804c580:	c5 dd db e7          	vpand  %ymm7,%ymm4,%ymm4
 804c584:	c5 e5 d4 c9          	vpaddq %ymm1,%ymm3,%ymm1
 804c588:	c5 dd d4 d2          	vpaddq %ymm2,%ymm4,%ymm2
 804c58c:	83 e8 80             	sub    $0xffffff80,%eax
 804c58f:	e9 bc fe ff ff       	jmp    804c450 <main+0x3230>
 804c594:	c5 ed d4 c1          	vpaddq %ymm1,%ymm2,%ymm0
 804c598:	c4 e3 7d 39 c1 01    	vextracti128 $0x1,%ymm0,%xmm1
 804c59e:	c5 f9 d4 c1          	vpaddq %xmm1,%xmm0,%xmm0
 804c5a2:	c5 f9 70 c8 ee       	vpshufd $0xee,%xmm0,%xmm1
 804c5a7:	c5 f9 d4 c1          	vpaddq %xmm1,%xmm0,%xmm0
 804c5ab:	c4 e3 79 16 c0 01    	vpextrd $0x1,%xmm0,%eax
 804c5b1:	c5 f9 7e c1          	vmovd  %xmm0,%ecx
 804c5b5:	31 ff                	xor    %edi,%edi
 804c5b7:	89 d5                	mov    %edx,%ebp
 804c5b9:	81 fa c8 07 00 00    	cmp    $0x7c8,%edx
 804c5bf:	ba 00 00 00 00       	mov    $0x0,%edx
 804c5c4:	be a2 fb b2 10       	mov    $0x10b2fba2,%esi
 804c5c9:	0f 44 d6             	cmove  %esi,%edx
 804c5cc:	be 00 00 00 00       	mov    $0x0,%esi
 804c5d1:	bb eb 79 82 49       	mov    $0x498279eb,%ebx
 804c5d6:	0f 44 f3             	cmove  %ebx,%esi
 804c5d9:	01 ce                	add    %ecx,%esi
 804c5db:	11 c2                	adc    %eax,%edx
 804c5dd:	81 fd d0 07 00 00    	cmp    $0x7d0,%ebp
 804c5e3:	b8 00 00 00 00       	mov    $0x0,%eax
 804c5e8:	b9 80 9d 3a ba       	mov    $0xba3a9d80,%ecx
 804c5ed:	0f 44 c1             	cmove  %ecx,%eax
 804c5f0:	b9 00 00 00 00       	mov    $0x0,%ecx
 804c5f5:	bb 27 74 e9 a7       	mov    $0xa7e97427,%ebx
 804c5fa:	0f 44 cb             	cmove  %ebx,%ecx
 804c5fd:	01 f1                	add    %esi,%ecx
 804c5ff:	11 d0                	adc    %edx,%eax
 804c601:	81 fd d8 07 00 00    	cmp    $0x7d8,%ebp
 804c607:	ba 00 00 00 00       	mov    $0x0,%edx
 804c60c:	be 4f d1 21 6e       	mov    $0x6e21d14f,%esi
 804c611:	0f 44 d6             	cmove  %esi,%edx
 804c614:	be 00 00 00 00       	mov    $0x0,%esi
 804c619:	bb bf 42 93 f0       	mov    $0xf09342bf,%ebx
 804c61e:	0f 44 f3             	cmove  %ebx,%esi
 804c621:	01 ce                	add    %ecx,%esi
 804c623:	11 c2                	adc    %eax,%edx
 804c625:	81 fd e0 07 00 00    	cmp    $0x7e0,%ebp
 804c62b:	b8 00 00 00 00       	mov    $0x0,%eax
 804c630:	b9 1f 21 7c 63       	mov    $0x637c211f,%ecx
 804c635:	0f 44 c1             	cmove  %ecx,%eax
 804c638:	b9 00 00 00 00       	mov    $0x0,%ecx
 804c63d:	bb 42 f8 d9 5d       	mov    $0x5dd9f842,%ebx
 804c642:	0f 44 cb             	cmove  %ebx,%ecx
 804c645:	01 f1                	add    %esi,%ecx
 804c647:	11 d0                	adc    %edx,%eax
 804c649:	81 fd e8 07 00 00    	cmp    $0x7e8,%ebp
 804c64f:	ba 00 00 00 00       	mov    $0x0,%edx
 804c654:	be ca 43 0f c5       	mov    $0xc50f43ca,%esi
 804c659:	0f 44 d6             	cmove  %esi,%edx
 804c65c:	be 00 00 00 00       	mov    $0x0,%esi
 804c661:	bb 86 1e 5d 4c       	mov    $0x4c5d1e86,%ebx
 804c666:	0f 44 f3             	cmove  %ebx,%esi
 804c669:	01 ce                	add    %ecx,%esi
 804c66b:	11 c2                	adc    %eax,%edx
 804c66d:	81 fd f0 07 00 00    	cmp    $0x7f0,%ebp
 804c673:	b8 00 00 00 00       	mov    $0x0,%eax
 804c678:	b9 aa e3 92 38       	mov    $0x3892e3aa,%ecx
 804c67d:	0f 44 c1             	cmove  %ecx,%eax
 804c680:	b9 00 00 00 00       	mov    $0x0,%ecx
 804c685:	bb db 39 da 71       	mov    $0x71da39db,%ebx
 804c68a:	0f 44 cb             	cmove  %ebx,%ecx
 804c68d:	01 f1                	add    %esi,%ecx
 804c68f:	11 d0                	adc    %edx,%eax
 804c691:	81 fd f8 07 00 00    	cmp    $0x7f8,%ebp
 804c697:	be 00 00 00 00       	mov    $0x0,%esi
 804c69c:	ba 42 c6 15 57       	mov    $0x5715c642,%edx
 804c6a1:	0f 44 f2             	cmove  %edx,%esi
 804c6a4:	ba 91 2a ec d3       	mov    $0xd3ec2a91,%edx
 804c6a9:	0f 44 fa             	cmove  %edx,%edi
 804c6ac:	01 cf                	add    %ecx,%edi
 804c6ae:	89 7c 24 40          	mov    %edi,0x40(%esp)
 804c6b2:	11 c6                	adc    %eax,%esi
 804c6b4:	89 b4 24 80 01 00 00 	mov    %esi,0x180(%esp)
 804c6bb:	8b 44 24 20          	mov    0x20(%esp),%eax
 804c6bf:	c1 e8 15             	shr    $0x15,%eax
 804c6c2:	83 e0 f8             	and    $0xfffffff8,%eax
 804c6c5:	c5 f9 6e c0          	vmovd  %eax,%xmm0
 804c6c9:	c4 e2 79 58 c0       	vpbroadcastd %xmm0,%xmm0
 804c6ce:	c5 f1 ef c9          	vpxor  %xmm1,%xmm1,%xmm1
 804c6d2:	b9 80 fc ff ff       	mov    $0xfffffc80,%ecx
 804c6d7:	c5 e9 ef d2          	vpxor  %xmm2,%xmm2,%xmm2
 804c6db:	0f 1f 44 00 00       	nopl   0x0(%eax,%eax,1)
 804c6e0:	c5 fa 6f 99 8c 33 06 	vmovdqu 0x806338c(%ecx),%xmm3
 804c6e7:	08 
 804c6e8:	c5 fa 6f a1 9c 33 06 	vmovdqu 0x806339c(%ecx),%xmm4
 804c6ef:	08 
 804c6f0:	c5 d5 76 ed          	vpcmpeqd %ymm5,%ymm5,%ymm5
 804c6f4:	c4 e2 d5 90 34 1d 08 	vpgatherdq %ymm5,0x8061008(,%xmm3,1),%ymm6
 804c6fb:	10 06 08 
 804c6fe:	c5 d5 76 ed          	vpcmpeqd %ymm5,%ymm5,%ymm5
 804c702:	c4 e2 d5 90 3c 25 08 	vpgatherdq %ymm5,0x8061008(,%xmm4,1),%ymm7
 804c709:	10 06 08 
 804c70c:	c5 f9 76 db          	vpcmpeqd %xmm3,%xmm0,%xmm3
 804c710:	c4 e2 7d 25 db       	vpmovsxdq %xmm3,%ymm3
 804c715:	c5 e5 db de          	vpand  %ymm6,%ymm3,%ymm3
 804c719:	c5 e5 d4 c9          	vpaddq %ymm1,%ymm3,%ymm1
 804c71d:	c5 f9 76 dc          	vpcmpeqd %xmm4,%xmm0,%xmm3
 804c721:	c4 e2 7d 25 db       	vpmovsxdq %xmm3,%ymm3
 804c726:	c5 e5 db df          	vpand  %ymm7,%ymm3,%ymm3
 804c72a:	c5 e5 d4 d2          	vpaddq %ymm2,%ymm3,%ymm2
 804c72e:	c5 fa 6f 99 ac 33 06 	vmovdqu 0x80633ac(%ecx),%xmm3
 804c735:	08 
 804c736:	c5 fa 6f a1 bc 33 06 	vmovdqu 0x80633bc(%ecx),%xmm4
 804c73d:	08 
 804c73e:	c5 d5 76 ed          	vpcmpeqd %ymm5,%ymm5,%ymm5
 804c742:	c4 e2 d5 90 34 1d 08 	vpgatherdq %ymm5,0x8061008(,%xmm3,1),%ymm6
 804c749:	10 06 08 
 804c74c:	c5 d5 76 ed          	vpcmpeqd %ymm5,%ymm5,%ymm5
 804c750:	c4 e2 d5 90 3c 25 08 	vpgatherdq %ymm5,0x8061008(,%xmm4,1),%ymm7
 804c757:	10 06 08 
 804c75a:	c5 f9 76 db          	vpcmpeqd %xmm3,%xmm0,%xmm3
 804c75e:	c4 e2 7d 25 db       	vpmovsxdq %xmm3,%ymm3
 804c763:	c5 e5 db de          	vpand  %ymm6,%ymm3,%ymm3
 804c767:	c5 f9 76 e4          	vpcmpeqd %xmm4,%xmm0,%xmm4
 804c76b:	c4 e2 7d 25 e4       	vpmovsxdq %xmm4,%ymm4
 804c770:	c5 dd db e7          	vpand  %ymm7,%ymm4,%ymm4
 804c774:	c5 fa 6f a9 cc 33 06 	vmovdqu 0x80633cc(%ecx),%xmm5
 804c77b:	08 
 804c77c:	c5 cd 76 f6          	vpcmpeqd %ymm6,%ymm6,%ymm6
 804c780:	c4 e2 cd 90 3c 2d 08 	vpgatherdq %ymm6,0x8061008(,%xmm5,1),%ymm7
 804c787:	10 06 08 
 804c78a:	c5 f9 76 ed          	vpcmpeqd %xmm5,%xmm0,%xmm5
 804c78e:	c4 e2 7d 25 ed       	vpmovsxdq %xmm5,%ymm5
 804c793:	c5 d5 db ef          	vpand  %ymm7,%ymm5,%ymm5
 804c797:	c5 fa 6f b1 dc 33 06 	vmovdqu 0x80633dc(%ecx),%xmm6
 804c79e:	08 
 804c79f:	c5 e5 d4 dd          	vpaddq %ymm5,%ymm3,%ymm3
 804c7a3:	c5 d5 76 ed          	vpcmpeqd %ymm5,%ymm5,%ymm5
 804c7a7:	c5 f5 d4 cb          	vpaddq %ymm3,%ymm1,%ymm1
 804c7ab:	c4 e2 d5 90 1c 35 08 	vpgatherdq %ymm5,0x8061008(,%xmm6,1),%ymm3
 804c7b2:	10 06 08 
 804c7b5:	c5 f9 76 ee          	vpcmpeqd %xmm6,%xmm0,%xmm5
 804c7b9:	c4 e2 7d 25 ed       	vpmovsxdq %xmm5,%ymm5
 804c7be:	c5 d5 db db          	vpand  %ymm3,%ymm5,%ymm3
 804c7c2:	c5 dd d4 db          	vpaddq %ymm3,%ymm4,%ymm3
 804c7c6:	c5 ed d4 d3          	vpaddq %ymm3,%ymm2,%ymm2
 804c7ca:	85 c9                	test   %ecx,%ecx
 804c7cc:	74 56                	je     804c824 <main+0x3604>
 804c7ce:	c5 fa 6f 99 ec 33 06 	vmovdqu 0x80633ec(%ecx),%xmm3
 804c7d5:	08 
 804c7d6:	c5 fa 6f a1 fc 33 06 	vmovdqu 0x80633fc(%ecx),%xmm4
 804c7dd:	08 
 804c7de:	c5 d5 76 ed          	vpcmpeqd %ymm5,%ymm5,%ymm5
 804c7e2:	c4 e2 d5 90 34 1d 08 	vpgatherdq %ymm5,0x8061008(,%xmm3,1),%ymm6
 804c7e9:	10 06 08 
 804c7ec:	c5 d5 76 ed          	vpcmpeqd %ymm5,%ymm5,%ymm5
 804c7f0:	c4 e2 d5 90 3c 25 08 	vpgatherdq %ymm5,0x8061008(,%xmm4,1),%ymm7
 804c7f7:	10 06 08 
 804c7fa:	c5 f9 76 db          	vpcmpeqd %xmm3,%xmm0,%xmm3
 804c7fe:	c4 e2 7d 25 db       	vpmovsxdq %xmm3,%ymm3
 804c803:	c5 e5 db de          	vpand  %ymm6,%ymm3,%ymm3
 804c807:	c5 f9 76 e4          	vpcmpeqd %xmm4,%xmm0,%xmm4
 804c80b:	c4 e2 7d 25 e4       	vpmovsxdq %xmm4,%ymm4
 804c810:	c5 dd db e7          	vpand  %ymm7,%ymm4,%ymm4
 804c814:	c5 e5 d4 c9          	vpaddq %ymm1,%ymm3,%ymm1
 804c818:	c5 dd d4 d2          	vpaddq %ymm2,%ymm4,%ymm2
 804c81c:	83 e9 80             	sub    $0xffffff80,%ecx
 804c81f:	e9 bc fe ff ff       	jmp    804c6e0 <main+0x34c0>
 804c824:	c5 ed d4 c1          	vpaddq %ymm1,%ymm2,%ymm0
 804c828:	c4 e3 7d 39 c1 01    	vextracti128 $0x1,%ymm0,%xmm1
 804c82e:	c5 f9 d4 c1          	vpaddq %xmm1,%xmm0,%xmm0
 804c832:	c5 f9 70 c8 ee       	vpshufd $0xee,%xmm0,%xmm1
 804c837:	c5 f9 d4 c1          	vpaddq %xmm1,%xmm0,%xmm0
 804c83b:	c4 e3 79 16 c1 01    	vpextrd $0x1,%xmm0,%ecx
 804c841:	c5 f9 7e c2          	vmovd  %xmm0,%edx
 804c845:	31 ed                	xor    %ebp,%ebp
 804c847:	3d c8 07 00 00       	cmp    $0x7c8,%eax
 804c84c:	be 00 00 00 00       	mov    $0x0,%esi
 804c851:	bf 49 82 79 eb       	mov    $0xeb798249,%edi
 804c856:	0f 44 f7             	cmove  %edi,%esi
 804c859:	bf 00 00 00 00       	mov    $0x0,%edi
 804c85e:	bb 10 b2 fb a2       	mov    $0xa2fbb210,%ebx
 804c863:	0f 44 fb             	cmove  %ebx,%edi
 804c866:	01 d7                	add    %edx,%edi
 804c868:	11 ce                	adc    %ecx,%esi
 804c86a:	3d d0 07 00 00       	cmp    $0x7d0,%eax
 804c86f:	b9 00 00 00 00       	mov    $0x0,%ecx
 804c874:	ba a7 e9 74 27       	mov    $0x2774e9a7,%edx
 804c879:	0f 44 ca             	cmove  %edx,%ecx
 804c87c:	ba 00 00 00 00       	mov    $0x0,%edx
 804c881:	bb ba 3a 9d 80       	mov    $0x809d3aba,%ebx
 804c886:	0f 44 d3             	cmove  %ebx,%edx
 804c889:	01 fa                	add    %edi,%edx
 804c88b:	11 f1                	adc    %esi,%ecx
 804c88d:	3d d8 07 00 00       	cmp    $0x7d8,%eax
 804c892:	be 00 00 00 00       	mov    $0x0,%esi
 804c897:	bf f0 93 42 bf       	mov    $0xbf4293f0,%edi
 804c89c:	0f 44 f7             	cmove  %edi,%esi
 804c89f:	bf 00 00 00 00       	mov    $0x0,%edi
 804c8a4:	bb 6e 21 d1 4f       	mov    $0x4fd1216e,%ebx
 804c8a9:	0f 44 fb             	cmove  %ebx,%edi
 804c8ac:	01 d7                	add    %edx,%edi
 804c8ae:	11 ce                	adc    %ecx,%esi
 804c8b0:	3d e0 07 00 00       	cmp    $0x7e0,%eax
 804c8b5:	b9 00 00 00 00       	mov    $0x0,%ecx
 804c8ba:	ba 5d d9 f8 42       	mov    $0x42f8d95d,%edx
 804c8bf:	0f 44 ca             	cmove  %edx,%ecx
 804c8c2:	ba 00 00 00 00       	mov    $0x0,%edx
 804c8c7:	bb 63 7c 21 1f       	mov    $0x1f217c63,%ebx
 804c8cc:	0f 44 d3             	cmove  %ebx,%edx
 804c8cf:	01 fa                	add    %edi,%edx
 804c8d1:	11 f1                	adc    %esi,%ecx
 804c8d3:	3d e8 07 00 00       	cmp    $0x7e8,%eax
 804c8d8:	be 00 00 00 00       	mov    $0x0,%esi
 804c8dd:	bf 4c 5d 1e 86       	mov    $0x861e5d4c,%edi
 804c8e2:	0f 44 f7             	cmove  %edi,%esi
 804c8e5:	bf 00 00 00 00       	mov    $0x0,%edi
 804c8ea:	bb c5 0f 43 ca       	mov    $0xca430fc5,%ebx
 804c8ef:	0f 44 fb             	cmove  %ebx,%edi
 804c8f2:	01 d7                	add    %edx,%edi
 804c8f4:	11 ce                	adc    %ecx,%esi
 804c8f6:	3d f0 07 00 00       	cmp    $0x7f0,%eax
 804c8fb:	b9 00 00 00 00       	mov    $0x0,%ecx
 804c900:	ba 71 da 39 db       	mov    $0xdb39da71,%edx
 804c905:	0f 44 ca             	cmove  %edx,%ecx
 804c908:	ba 00 00 00 00       	mov    $0x0,%edx
 804c90d:	bb 38 92 e3 aa       	mov    $0xaae39238,%ebx
 804c912:	0f 44 d3             	cmove  %ebx,%edx
 804c915:	01 fa                	add    %edi,%edx
 804c917:	11 f1                	adc    %esi,%ecx
 804c919:	3d f8 07 00 00       	cmp    $0x7f8,%eax
 804c91e:	be 00 00 00 00       	mov    $0x0,%esi
 804c923:	b8 d3 ec 2a 91       	mov    $0x912aecd3,%eax
 804c928:	0f 44 f0             	cmove  %eax,%esi
 804c92b:	b8 57 15 c6 42       	mov    $0x42c61557,%eax
 804c930:	0f 44 e8             	cmove  %eax,%ebp
 804c933:	01 d5                	add    %edx,%ebp
 804c935:	89 6c 24 10          	mov    %ebp,0x10(%esp)
 804c939:	11 ce                	adc    %ecx,%esi
 804c93b:	89 b4 24 60 01 00 00 	mov    %esi,0x160(%esp)
 804c942:	8b 4c 24 20          	mov    0x20(%esp),%ecx
 804c946:	c1 e9 0d             	shr    $0xd,%ecx
 804c949:	81 e1 f8 07 00 00    	and    $0x7f8,%ecx
 804c94f:	c5 f9 6e c1          	vmovd  %ecx,%xmm0
 804c953:	c4 e2 79 58 c0       	vpbroadcastd %xmm0,%xmm0
 804c958:	c5 f1 ef c9          	vpxor  %xmm1,%xmm1,%xmm1
 804c95c:	b8 80 fc ff ff       	mov    $0xfffffc80,%eax
 804c961:	c5 e9 ef d2          	vpxor  %xmm2,%xmm2,%xmm2
 804c965:	66 66 2e 0f 1f 84 00 	data16 nopw %cs:0x0(%eax,%eax,1)
 804c96c:	00 00 00 00 
 804c970:	c5 fa 6f 98 8c 33 06 	vmovdqu 0x806338c(%eax),%xmm3
 804c977:	08 
 804c978:	c5 fa 6f a0 9c 33 06 	vmovdqu 0x806339c(%eax),%xmm4
 804c97f:	08 
 804c980:	c5 d5 76 ed          	vpcmpeqd %ymm5,%ymm5,%ymm5
 804c984:	c4 e2 d5 90 34 1d 08 	vpgatherdq %ymm5,0x8061808(,%xmm3,1),%ymm6
 804c98b:	18 06 08 
 804c98e:	c5 d5 76 ed          	vpcmpeqd %ymm5,%ymm5,%ymm5
 804c992:	c4 e2 d5 90 3c 25 08 	vpgatherdq %ymm5,0x8061808(,%xmm4,1),%ymm7
 804c999:	18 06 08 
 804c99c:	c5 f9 76 db          	vpcmpeqd %xmm3,%xmm0,%xmm3
 804c9a0:	c4 e2 7d 25 db       	vpmovsxdq %xmm3,%ymm3
 804c9a5:	c5 e5 db de          	vpand  %ymm6,%ymm3,%ymm3
 804c9a9:	c5 e5 d4 c9          	vpaddq %ymm1,%ymm3,%ymm1
 804c9ad:	c5 f9 76 dc          	vpcmpeqd %xmm4,%xmm0,%xmm3
 804c9b1:	c4 e2 7d 25 db       	vpmovsxdq %xmm3,%ymm3
 804c9b6:	c5 e5 db df          	vpand  %ymm7,%ymm3,%ymm3
 804c9ba:	c5 e5 d4 d2          	vpaddq %ymm2,%ymm3,%ymm2
 804c9be:	c5 fa 6f 98 ac 33 06 	vmovdqu 0x80633ac(%eax),%xmm3
 804c9c5:	08 
 804c9c6:	c5 fa 6f a0 bc 33 06 	vmovdqu 0x80633bc(%eax),%xmm4
 804c9cd:	08 
 804c9ce:	c5 d5 76 ed          	vpcmpeqd %ymm5,%ymm5,%ymm5
 804c9d2:	c4 e2 d5 90 34 1d 08 	vpgatherdq %ymm5,0x8061808(,%xmm3,1),%ymm6
 804c9d9:	18 06 08 
 804c9dc:	c5 d5 76 ed          	vpcmpeqd %ymm5,%ymm5,%ymm5
 804c9e0:	c4 e2 d5 90 3c 25 08 	vpgatherdq %ymm5,0x8061808(,%xmm4,1),%ymm7
 804c9e7:	18 06 08 
 804c9ea:	c5 f9 76 db          	vpcmpeqd %xmm3,%xmm0,%xmm3
 804c9ee:	c4 e2 7d 25 db       	vpmovsxdq %xmm3,%ymm3
 804c9f3:	c5 e5 db de          	vpand  %ymm6,%ymm3,%ymm3
 804c9f7:	c5 f9 76 e4          	vpcmpeqd %xmm4,%xmm0,%xmm4
 804c9fb:	c4 e2 7d 25 e4       	vpmovsxdq %xmm4,%ymm4
 804ca00:	c5 dd db e7          	vpand  %ymm7,%ymm4,%ymm4
 804ca04:	c5 fa 6f a8 cc 33 06 	vmovdqu 0x80633cc(%eax),%xmm5
 804ca0b:	08 
 804ca0c:	c5 cd 76 f6          	vpcmpeqd %ymm6,%ymm6,%ymm6
 804ca10:	c4 e2 cd 90 3c 2d 08 	vpgatherdq %ymm6,0x8061808(,%xmm5,1),%ymm7
 804ca17:	18 06 08 
 804ca1a:	c5 f9 76 ed          	vpcmpeqd %xmm5,%xmm0,%xmm5
 804ca1e:	c4 e2 7d 25 ed       	vpmovsxdq %xmm5,%ymm5
 804ca23:	c5 d5 db ef          	vpand  %ymm7,%ymm5,%ymm5
 804ca27:	c5 fa 6f b0 dc 33 06 	vmovdqu 0x80633dc(%eax),%xmm6
 804ca2e:	08 
 804ca2f:	c5 e5 d4 dd          	vpaddq %ymm5,%ymm3,%ymm3
 804ca33:	c5 d5 76 ed          	vpcmpeqd %ymm5,%ymm5,%ymm5
 804ca37:	c5 f5 d4 cb          	vpaddq %ymm3,%ymm1,%ymm1
 804ca3b:	c4 e2 d5 90 1c 35 08 	vpgatherdq %ymm5,0x8061808(,%xmm6,1),%ymm3
 804ca42:	18 06 08 
 804ca45:	c5 f9 76 ee          	vpcmpeqd %xmm6,%xmm0,%xmm5
 804ca49:	c4 e2 7d 25 ed       	vpmovsxdq %xmm5,%ymm5
 804ca4e:	c5 d5 db db          	vpand  %ymm3,%ymm5,%ymm3
 804ca52:	c5 dd d4 db          	vpaddq %ymm3,%ymm4,%ymm3
 804ca56:	c5 ed d4 d3          	vpaddq %ymm3,%ymm2,%ymm2
 804ca5a:	85 c0                	test   %eax,%eax
 804ca5c:	74 56                	je     804cab4 <main+0x3894>
 804ca5e:	c5 fa 6f 98 ec 33 06 	vmovdqu 0x80633ec(%eax),%xmm3
 804ca65:	08 
 804ca66:	c5 fa 6f a0 fc 33 06 	vmovdqu 0x80633fc(%eax),%xmm4
 804ca6d:	08 
 804ca6e:	c5 d5 76 ed          	vpcmpeqd %ymm5,%ymm5,%ymm5
 804ca72:	c4 e2 d5 90 34 1d 08 	vpgatherdq %ymm5,0x8061808(,%xmm3,1),%ymm6
 804ca79:	18 06 08 
 804ca7c:	c5 d5 76 ed          	vpcmpeqd %ymm5,%ymm5,%ymm5
 804ca80:	c4 e2 d5 90 3c 25 08 	vpgatherdq %ymm5,0x8061808(,%xmm4,1),%ymm7
 804ca87:	18 06 08 
 804ca8a:	c5 f9 76 db          	vpcmpeqd %xmm3,%xmm0,%xmm3
 804ca8e:	c4 e2 7d 25 db       	vpmovsxdq %xmm3,%ymm3
 804ca93:	c5 e5 db de          	vpand  %ymm6,%ymm3,%ymm3
 804ca97:	c5 f9 76 e4          	vpcmpeqd %xmm4,%xmm0,%xmm4
 804ca9b:	c4 e2 7d 25 e4       	vpmovsxdq %xmm4,%ymm4
 804caa0:	c5 dd db e7          	vpand  %ymm7,%ymm4,%ymm4
 804caa4:	c5 e5 d4 c9          	vpaddq %ymm1,%ymm3,%ymm1
 804caa8:	c5 dd d4 d2          	vpaddq %ymm2,%ymm4,%ymm2
 804caac:	83 e8 80             	sub    $0xffffff80,%eax
 804caaf:	e9 bc fe ff ff       	jmp    804c970 <main+0x3750>
 804cab4:	c5 ed d4 c1          	vpaddq %ymm1,%ymm2,%ymm0
 804cab8:	c4 e3 7d 39 c1 01    	vextracti128 $0x1,%ymm0,%xmm1
 804cabe:	c5 f9 d4 c1          	vpaddq %xmm1,%xmm0,%xmm0
 804cac2:	c5 f9 70 c8 ee       	vpshufd $0xee,%xmm0,%xmm1
 804cac7:	c5 f9 d4 c1          	vpaddq %xmm1,%xmm0,%xmm0
 804cacb:	c4 e3 79 16 c2 01    	vpextrd $0x1,%xmm0,%edx
 804cad1:	c5 f9 7e c6          	vmovd  %xmm0,%esi
 804cad5:	31 db                	xor    %ebx,%ebx
 804cad7:	81 f9 c8 07 00 00    	cmp    $0x7c8,%ecx
 804cadd:	bf 00 00 00 00       	mov    $0x0,%edi
 804cae2:	b8 82 49 eb 79       	mov    $0x79eb4982,%eax
 804cae7:	0f 44 f8             	cmove  %eax,%edi
 804caea:	bd 00 00 00 00       	mov    $0x0,%ebp
 804caef:	b8 b2 10 a2 fb       	mov    $0xfba210b2,%eax
 804caf4:	0f 44 e8             	cmove  %eax,%ebp
 804caf7:	01 f5                	add    %esi,%ebp
 804caf9:	11 d7                	adc    %edx,%edi
 804cafb:	81 f9 d0 07 00 00    	cmp    $0x7d0,%ecx
 804cb01:	ba 00 00 00 00       	mov    $0x0,%edx
 804cb06:	b8 e9 a7 27 74       	mov    $0x7427a7e9,%eax
 804cb0b:	0f 44 d0             	cmove  %eax,%edx
 804cb0e:	be 00 00 00 00       	mov    $0x0,%esi
 804cb13:	b8 3a ba 80 9d       	mov    $0x9d80ba3a,%eax
 804cb18:	0f 44 f0             	cmove  %eax,%esi
 804cb1b:	01 ee                	add    %ebp,%esi
 804cb1d:	11 fa                	adc    %edi,%edx
 804cb1f:	81 f9 d8 07 00 00    	cmp    $0x7d8,%ecx
 804cb25:	bf 00 00 00 00       	mov    $0x0,%edi
 804cb2a:	b8 93 f0 bf 42       	mov    $0x42bff093,%eax
 804cb2f:	0f 44 f8             	cmove  %eax,%edi
 804cb32:	bd 00 00 00 00       	mov    $0x0,%ebp
 804cb37:	b8 21 6e 4f d1       	mov    $0xd14f6e21,%eax
 804cb3c:	0f 44 e8             	cmove  %eax,%ebp
 804cb3f:	01 f5                	add    %esi,%ebp
 804cb41:	11 d7                	adc    %edx,%edi
 804cb43:	81 f9 e0 07 00 00    	cmp    $0x7e0,%ecx
 804cb49:	ba 00 00 00 00       	mov    $0x0,%edx
 804cb4e:	b8 d9 5d 42 f8       	mov    $0xf8425dd9,%eax
 804cb53:	0f 44 d0             	cmove  %eax,%edx
 804cb56:	be 00 00 00 00       	mov    $0x0,%esi
 804cb5b:	b8 7c 63 1f 21       	mov    $0x211f637c,%eax
 804cb60:	0f 44 f0             	cmove  %eax,%esi
 804cb63:	01 ee                	add    %ebp,%esi
 804cb65:	11 fa                	adc    %edi,%edx
 804cb67:	81 f9 e8 07 00 00    	cmp    $0x7e8,%ecx
 804cb6d:	bf 00 00 00 00       	mov    $0x0,%edi
 804cb72:	b8 5d 4c 86 1e       	mov    $0x1e864c5d,%eax
 804cb77:	0f 44 f8             	cmove  %eax,%edi
 804cb7a:	bd 00 00 00 00       	mov    $0x0,%ebp
 804cb7f:	b8 0f c5 ca 43       	mov    $0x43cac50f,%eax
 804cb84:	0f 44 e8             	cmove  %eax,%ebp
 804cb87:	01 f5                	add    %esi,%ebp
 804cb89:	11 d7                	adc    %edx,%edi
 804cb8b:	81 f9 f0 07 00 00    	cmp    $0x7f0,%ecx
 804cb91:	ba 00 00 00 00       	mov    $0x0,%edx
 804cb96:	b8 da 71 db 39       	mov    $0x39db71da,%eax
 804cb9b:	0f 44 d0             	cmove  %eax,%edx
 804cb9e:	be 00 00 00 00       	mov    $0x0,%esi
 804cba3:	b8 92 38 aa e3       	mov    $0xe3aa3892,%eax
 804cba8:	0f 44 f0             	cmove  %eax,%esi
 804cbab:	01 ee                	add    %ebp,%esi
 804cbad:	11 fa                	adc    %edi,%edx
 804cbaf:	81 f9 f8 07 00 00    	cmp    $0x7f8,%ecx
 804cbb5:	b9 00 00 00 00       	mov    $0x0,%ecx
 804cbba:	b8 ec d3 91 2a       	mov    $0x2a91d3ec,%eax
 804cbbf:	0f 44 c8             	cmove  %eax,%ecx
 804cbc2:	b8 15 57 42 c6       	mov    $0xc6425715,%eax
 804cbc7:	0f 44 d8             	cmove  %eax,%ebx
 804cbca:	01 f3                	add    %esi,%ebx
 804cbcc:	89 9c 24 e0 01 00 00 	mov    %ebx,0x1e0(%esp)
 804cbd3:	11 d1                	adc    %edx,%ecx
 804cbd5:	89 4c 24 18          	mov    %ecx,0x18(%esp)
 804cbd9:	8b 74 24 20          	mov    0x20(%esp),%esi
 804cbdd:	c1 ee 05             	shr    $0x5,%esi
 804cbe0:	81 e6 f8 07 00 00    	and    $0x7f8,%esi
 804cbe6:	c5 f9 6e c6          	vmovd  %esi,%xmm0
 804cbea:	c4 e2 79 58 c0       	vpbroadcastd %xmm0,%xmm0
 804cbef:	c5 f1 ef c9          	vpxor  %xmm1,%xmm1,%xmm1
 804cbf3:	ba 80 fc ff ff       	mov    $0xfffffc80,%edx
 804cbf8:	c5 e9 ef d2          	vpxor  %xmm2,%xmm2,%xmm2
 804cbfc:	0f 1f 40 00          	nopl   0x0(%eax)
 804cc00:	c5 fa 6f 9a 8c 33 06 	vmovdqu 0x806338c(%edx),%xmm3
 804cc07:	08 
 804cc08:	c5 fa 6f a2 9c 33 06 	vmovdqu 0x806339c(%edx),%xmm4
 804cc0f:	08 
 804cc10:	c5 d5 76 ed          	vpcmpeqd %ymm5,%ymm5,%ymm5
 804cc14:	c4 e2 d5 90 34 1d 08 	vpgatherdq %ymm5,0x8062008(,%xmm3,1),%ymm6
 804cc1b:	20 06 08 
 804cc1e:	c5 d5 76 ed          	vpcmpeqd %ymm5,%ymm5,%ymm5
 804cc22:	c4 e2 d5 90 3c 25 08 	vpgatherdq %ymm5,0x8062008(,%xmm4,1),%ymm7
 804cc29:	20 06 08 
 804cc2c:	c5 f9 76 db          	vpcmpeqd %xmm3,%xmm0,%xmm3
 804cc30:	c4 e2 7d 25 db       	vpmovsxdq %xmm3,%ymm3
 804cc35:	c5 e5 db de          	vpand  %ymm6,%ymm3,%ymm3
 804cc39:	c5 e5 d4 c9          	vpaddq %ymm1,%ymm3,%ymm1
 804cc3d:	c5 f9 76 dc          	vpcmpeqd %xmm4,%xmm0,%xmm3
 804cc41:	c4 e2 7d 25 db       	vpmovsxdq %xmm3,%ymm3
 804cc46:	c5 e5 db df          	vpand  %ymm7,%ymm3,%ymm3
 804cc4a:	c5 e5 d4 d2          	vpaddq %ymm2,%ymm3,%ymm2
 804cc4e:	c5 fa 6f 9a ac 33 06 	vmovdqu 0x80633ac(%edx),%xmm3
 804cc55:	08 
 804cc56:	c5 fa 6f a2 bc 33 06 	vmovdqu 0x80633bc(%edx),%xmm4
 804cc5d:	08 
 804cc5e:	c5 d5 76 ed          	vpcmpeqd %ymm5,%ymm5,%ymm5
 804cc62:	c4 e2 d5 90 34 1d 08 	vpgatherdq %ymm5,0x8062008(,%xmm3,1),%ymm6
 804cc69:	20 06 08 
 804cc6c:	c5 d5 76 ed          	vpcmpeqd %ymm5,%ymm5,%ymm5
 804cc70:	c4 e2 d5 90 3c 25 08 	vpgatherdq %ymm5,0x8062008(,%xmm4,1),%ymm7
 804cc77:	20 06 08 
 804cc7a:	c5 f9 76 db          	vpcmpeqd %xmm3,%xmm0,%xmm3
 804cc7e:	c4 e2 7d 25 db       	vpmovsxdq %xmm3,%ymm3
 804cc83:	c5 e5 db de          	vpand  %ymm6,%ymm3,%ymm3
 804cc87:	c5 f9 76 e4          	vpcmpeqd %xmm4,%xmm0,%xmm4
 804cc8b:	c4 e2 7d 25 e4       	vpmovsxdq %xmm4,%ymm4
 804cc90:	c5 dd db e7          	vpand  %ymm7,%ymm4,%ymm4
 804cc94:	c5 fa 6f aa cc 33 06 	vmovdqu 0x80633cc(%edx),%xmm5
 804cc9b:	08 
 804cc9c:	c5 cd 76 f6          	vpcmpeqd %ymm6,%ymm6,%ymm6
 804cca0:	c4 e2 cd 90 3c 2d 08 	vpgatherdq %ymm6,0x8062008(,%xmm5,1),%ymm7
 804cca7:	20 06 08 
 804ccaa:	c5 f9 76 ed          	vpcmpeqd %xmm5,%xmm0,%xmm5
 804ccae:	c4 e2 7d 25 ed       	vpmovsxdq %xmm5,%ymm5
 804ccb3:	c5 d5 db ef          	vpand  %ymm7,%ymm5,%ymm5
 804ccb7:	c5 fa 6f b2 dc 33 06 	vmovdqu 0x80633dc(%edx),%xmm6
 804ccbe:	08 
 804ccbf:	c5 e5 d4 dd          	vpaddq %ymm5,%ymm3,%ymm3
 804ccc3:	c5 d5 76 ed          	vpcmpeqd %ymm5,%ymm5,%ymm5
 804ccc7:	c5 f5 d4 cb          	vpaddq %ymm3,%ymm1,%ymm1
 804cccb:	c4 e2 d5 90 1c 35 08 	vpgatherdq %ymm5,0x8062008(,%xmm6,1),%ymm3
 804ccd2:	20 06 08 
 804ccd5:	c5 f9 76 ee          	vpcmpeqd %xmm6,%xmm0,%xmm5
 804ccd9:	c4 e2 7d 25 ed       	vpmovsxdq %xmm5,%ymm5
 804ccde:	c5 d5 db db          	vpand  %ymm3,%ymm5,%ymm3
 804cce2:	c5 dd d4 db          	vpaddq %ymm3,%ymm4,%ymm3
 804cce6:	c5 ed d4 d3          	vpaddq %ymm3,%ymm2,%ymm2
 804ccea:	85 d2                	test   %edx,%edx
 804ccec:	74 56                	je     804cd44 <main+0x3b24>
 804ccee:	c5 fa 6f 9a ec 33 06 	vmovdqu 0x80633ec(%edx),%xmm3
 804ccf5:	08 
 804ccf6:	c5 fa 6f a2 fc 33 06 	vmovdqu 0x80633fc(%edx),%xmm4
 804ccfd:	08 
 804ccfe:	c5 d5 76 ed          	vpcmpeqd %ymm5,%ymm5,%ymm5
 804cd02:	c4 e2 d5 90 34 1d 08 	vpgatherdq %ymm5,0x8062008(,%xmm3,1),%ymm6
 804cd09:	20 06 08 
 804cd0c:	c5 d5 76 ed          	vpcmpeqd %ymm5,%ymm5,%ymm5
 804cd10:	c4 e2 d5 90 3c 25 08 	vpgatherdq %ymm5,0x8062008(,%xmm4,1),%ymm7
 804cd17:	20 06 08 
 804cd1a:	c5 f9 76 db          	vpcmpeqd %xmm3,%xmm0,%xmm3
 804cd1e:	c4 e2 7d 25 db       	vpmovsxdq %xmm3,%ymm3
 804cd23:	c5 e5 db de          	vpand  %ymm6,%ymm3,%ymm3
 804cd27:	c5 f9 76 e4          	vpcmpeqd %xmm4,%xmm0,%xmm4
 804cd2b:	c4 e2 7d 25 e4       	vpmovsxdq %xmm4,%ymm4
 804cd30:	c5 dd db e7          	vpand  %ymm7,%ymm4,%ymm4
 804cd34:	c5 e5 d4 c9          	vpaddq %ymm1,%ymm3,%ymm1
 804cd38:	c5 dd d4 d2          	vpaddq %ymm2,%ymm4,%ymm2
 804cd3c:	83 ea 80             	sub    $0xffffff80,%edx
 804cd3f:	e9 bc fe ff ff       	jmp    804cc00 <main+0x39e0>
 804cd44:	c5 ed d4 c1          	vpaddq %ymm1,%ymm2,%ymm0
 804cd48:	c4 e3 7d 39 c1 01    	vextracti128 $0x1,%ymm0,%xmm1
 804cd4e:	c5 f9 d4 c1          	vpaddq %xmm1,%xmm0,%xmm0
 804cd52:	c5 f9 70 c8 ee       	vpshufd $0xee,%xmm0,%xmm1
 804cd57:	c5 f9 d4 c1          	vpaddq %xmm1,%xmm0,%xmm0
 804cd5b:	c4 e3 79 16 c7 01    	vpextrd $0x1,%xmm0,%edi
 804cd61:	c5 f9 7e c5          	vmovd  %xmm0,%ebp
 804cd65:	81 fe c8 07 00 00    	cmp    $0x7c8,%esi
 804cd6b:	bb 00 00 00 00       	mov    $0x0,%ebx
 804cd70:	b8 79 eb 49 82       	mov    $0x8249eb79,%eax
 804cd75:	0f 44 d8             	cmove  %eax,%ebx
 804cd78:	b8 00 00 00 00       	mov    $0x0,%eax
 804cd7d:	b9 fb a2 10 b2       	mov    $0xb210a2fb,%ecx
 804cd82:	0f 44 c1             	cmove  %ecx,%eax
 804cd85:	01 e8                	add    %ebp,%eax
 804cd87:	11 fb                	adc    %edi,%ebx
 804cd89:	81 fe d0 07 00 00    	cmp    $0x7d0,%esi
 804cd8f:	bf 00 00 00 00       	mov    $0x0,%edi
 804cd94:	b9 74 27 a7 e9       	mov    $0xe9a72774,%ecx
 804cd99:	0f 44 f9             	cmove  %ecx,%edi
 804cd9c:	bd 00 00 00 00       	mov    $0x0,%ebp
 804cda1:	b9 9d 80 ba 3a       	mov    $0x3aba809d,%ecx
 804cda6:	0f 44 e9             	cmove  %ecx,%ebp
 804cda9:	01 c5                	add    %eax,%ebp
 804cdab:	11 df                	adc    %ebx,%edi
 804cdad:	81 fe d8 07 00 00    	cmp    $0x7d8,%esi
 804cdb3:	b8 00 00 00 00       	mov    $0x0,%eax
 804cdb8:	b9 42 bf f0 93       	mov    $0x93f0bf42,%ecx
 804cdbd:	0f 44 c1             	cmove  %ecx,%eax
 804cdc0:	bb 00 00 00 00       	mov    $0x0,%ebx
 804cdc5:	b9 d1 4f 6e 21       	mov    $0x216e4fd1,%ecx
 804cdca:	0f 44 d9             	cmove  %ecx,%ebx
 804cdcd:	01 eb                	add    %ebp,%ebx
 804cdcf:	11 f8                	adc    %edi,%eax
 804cdd1:	81 fe e0 07 00 00    	cmp    $0x7e0,%esi
 804cdd7:	bf 00 00 00 00       	mov    $0x0,%edi
 804cddc:	b9 f8 42 5d d9       	mov    $0xd95d42f8,%ecx
 804cde1:	0f 44 f9             	cmove  %ecx,%edi
 804cde4:	bd 00 00 00 00       	mov    $0x0,%ebp
 804cde9:	b9 21 1f 63 7c       	mov    $0x7c631f21,%ecx
 804cdee:	0f 44 e9             	cmove  %ecx,%ebp
 804cdf1:	01 dd                	add    %ebx,%ebp
 804cdf3:	11 c7                	adc    %eax,%edi
 804cdf5:	81 fe e8 07 00 00    	cmp    $0x7e8,%esi
 804cdfb:	b8 00 00 00 00       	mov    $0x0,%eax
 804ce00:	b9 1e 86 4c 5d       	mov    $0x5d4c861e,%ecx
 804ce05:	0f 44 c1             	cmove  %ecx,%eax
 804ce08:	bb 00 00 00 00       	mov    $0x0,%ebx
 804ce0d:	b9 43 ca c5 0f       	mov    $0xfc5ca43,%ecx
 804ce12:	0f 44 d9             	cmove  %ecx,%ebx
 804ce15:	01 eb                	add    %ebp,%ebx
 804ce17:	11 f8                	adc    %edi,%eax
 804ce19:	81 fe f0 07 00 00    	cmp    $0x7f0,%esi
 804ce1f:	bd 00 00 00 00       	mov    $0x0,%ebp
 804ce24:	b9 39 db 71 da       	mov    $0xda71db39,%ecx
 804ce29:	0f 44 e9             	cmove  %ecx,%ebp
 804ce2c:	b9 00 00 00 00       	mov    $0x0,%ecx
 804ce31:	ba e3 aa 38 92       	mov    $0x9238aae3,%edx
 804ce36:	0f 44 ca             	cmove  %edx,%ecx
 804ce39:	01 d9                	add    %ebx,%ecx
 804ce3b:	11 c5                	adc    %eax,%ebp
 804ce3d:	81 fe f8 07 00 00    	cmp    $0x7f8,%esi
 804ce43:	ba 00 00 00 00       	mov    $0x0,%edx
 804ce48:	b8 2a 91 d3 ec       	mov    $0xecd3912a,%eax
 804ce4d:	0f 44 d0             	cmove  %eax,%edx
 804ce50:	b8 c6 42 57 15       	mov    $0x155742c6,%eax
 804ce55:	be 00 00 00 00       	mov    $0x0,%esi
 804ce5a:	0f 44 f0             	cmove  %eax,%esi
 804ce5d:	01 ce                	add    %ecx,%esi
 804ce5f:	89 b4 24 c0 01 00 00 	mov    %esi,0x1c0(%esp)
 804ce66:	11 ea                	adc    %ebp,%edx
 804ce68:	89 94 24 00 02 00 00 	mov    %edx,0x200(%esp)
 804ce6f:	0f b6 74 24 20       	movzbl 0x20(%esp),%esi
 804ce74:	c1 e6 03             	shl    $0x3,%esi
 804ce77:	c5 f9 6e c6          	vmovd  %esi,%xmm0
 804ce7b:	c4 e2 79 58 c0       	vpbroadcastd %xmm0,%xmm0
 804ce80:	c5 f1 ef c9          	vpxor  %xmm1,%xmm1,%xmm1
 804ce84:	bd 80 fc ff ff       	mov    $0xfffffc80,%ebp
 804ce89:	c5 e9 ef d2          	vpxor  %xmm2,%xmm2,%xmm2
 804ce8d:	0f 1f 00             	nopl   (%eax)
 804ce90:	c5 fa 6f 9d 8c 33 06 	vmovdqu 0x806338c(%ebp),%xmm3
 804ce97:	08 
 804ce98:	c5 fa 6f a5 9c 33 06 	vmovdqu 0x806339c(%ebp),%xmm4
 804ce9f:	08 
 804cea0:	c5 d5 76 ed          	vpcmpeqd %ymm5,%ymm5,%ymm5
 804cea4:	c4 e2 d5 90 34 1d 08 	vpgatherdq %ymm5,0x8062808(,%xmm3,1),%ymm6
 804ceab:	28 06 08 
 804ceae:	c5 d5 76 ed          	vpcmpeqd %ymm5,%ymm5,%ymm5
 804ceb2:	c4 e2 d5 90 3c 25 08 	vpgatherdq %ymm5,0x8062808(,%xmm4,1),%ymm7
 804ceb9:	28 06 08 
 804cebc:	c5 f9 76 db          	vpcmpeqd %xmm3,%xmm0,%xmm3
 804cec0:	c4 e2 7d 25 db       	vpmovsxdq %xmm3,%ymm3
 804cec5:	c5 e5 db de          	vpand  %ymm6,%ymm3,%ymm3
 804cec9:	c5 e5 d4 c9          	vpaddq %ymm1,%ymm3,%ymm1
 804cecd:	c5 f9 76 dc          	vpcmpeqd %xmm4,%xmm0,%xmm3
 804ced1:	c4 e2 7d 25 db       	vpmovsxdq %xmm3,%ymm3
 804ced6:	c5 e5 db df          	vpand  %ymm7,%ymm3,%ymm3
 804ceda:	c5 e5 d4 d2          	vpaddq %ymm2,%ymm3,%ymm2
 804cede:	c5 fa 6f 9d ac 33 06 	vmovdqu 0x80633ac(%ebp),%xmm3
 804cee5:	08 
 804cee6:	c5 fa 6f a5 bc 33 06 	vmovdqu 0x80633bc(%ebp),%xmm4
 804ceed:	08 
 804ceee:	c5 d5 76 ed          	vpcmpeqd %ymm5,%ymm5,%ymm5
 804cef2:	c4 e2 d5 90 34 1d 08 	vpgatherdq %ymm5,0x8062808(,%xmm3,1),%ymm6
 804cef9:	28 06 08 
 804cefc:	c5 d5 76 ed          	vpcmpeqd %ymm5,%ymm5,%ymm5
 804cf00:	c4 e2 d5 90 3c 25 08 	vpgatherdq %ymm5,0x8062808(,%xmm4,1),%ymm7
 804cf07:	28 06 08 
 804cf0a:	c5 f9 76 db          	vpcmpeqd %xmm3,%xmm0,%xmm3
 804cf0e:	c4 e2 7d 25 db       	vpmovsxdq %xmm3,%ymm3
 804cf13:	c5 e5 db de          	vpand  %ymm6,%ymm3,%ymm3
 804cf17:	c5 f9 76 e4          	vpcmpeqd %xmm4,%xmm0,%xmm4
 804cf1b:	c4 e2 7d 25 e4       	vpmovsxdq %xmm4,%ymm4
 804cf20:	c5 dd db e7          	vpand  %ymm7,%ymm4,%ymm4
 804cf24:	c5 fa 6f ad cc 33 06 	vmovdqu 0x80633cc(%ebp),%xmm5
 804cf2b:	08 
 804cf2c:	c5 cd 76 f6          	vpcmpeqd %ymm6,%ymm6,%ymm6
 804cf30:	c4 e2 cd 90 3c 2d 08 	vpgatherdq %ymm6,0x8062808(,%xmm5,1),%ymm7
 804cf37:	28 06 08 
 804cf3a:	c5 f9 76 ed          	vpcmpeqd %xmm5,%xmm0,%xmm5
 804cf3e:	c4 e2 7d 25 ed       	vpmovsxdq %xmm5,%ymm5
 804cf43:	c5 d5 db ef          	vpand  %ymm7,%ymm5,%ymm5
 804cf47:	c5 fa 6f b5 dc 33 06 	vmovdqu 0x80633dc(%ebp),%xmm6
 804cf4e:	08 
 804cf4f:	c5 e5 d4 dd          	vpaddq %ymm5,%ymm3,%ymm3
 804cf53:	c5 d5 76 ed          	vpcmpeqd %ymm5,%ymm5,%ymm5
 804cf57:	c5 f5 d4 cb          	vpaddq %ymm3,%ymm1,%ymm1
 804cf5b:	c4 e2 d5 90 1c 35 08 	vpgatherdq %ymm5,0x8062808(,%xmm6,1),%ymm3
 804cf62:	28 06 08 
 804cf65:	c5 f9 76 ee          	vpcmpeqd %xmm6,%xmm0,%xmm5
 804cf69:	c4 e2 7d 25 ed       	vpmovsxdq %xmm5,%ymm5
 804cf6e:	c5 d5 db db          	vpand  %ymm3,%ymm5,%ymm3
 804cf72:	c5 dd d4 db          	vpaddq %ymm3,%ymm4,%ymm3
 804cf76:	c5 ed d4 d3          	vpaddq %ymm3,%ymm2,%ymm2
 804cf7a:	85 ed                	test   %ebp,%ebp
 804cf7c:	74 56                	je     804cfd4 <main+0x3db4>
 804cf7e:	c5 fa 6f 9d ec 33 06 	vmovdqu 0x80633ec(%ebp),%xmm3
 804cf85:	08 
 804cf86:	c5 fa 6f a5 fc 33 06 	vmovdqu 0x80633fc(%ebp),%xmm4
 804cf8d:	08 
 804cf8e:	c5 d5 76 ed          	vpcmpeqd %ymm5,%ymm5,%ymm5
 804cf92:	c4 e2 d5 90 34 1d 08 	vpgatherdq %ymm5,0x8062808(,%xmm3,1),%ymm6
 804cf99:	28 06 08 
 804cf9c:	c5 d5 76 ed          	vpcmpeqd %ymm5,%ymm5,%ymm5
 804cfa0:	c4 e2 d5 90 3c 25 08 	vpgatherdq %ymm5,0x8062808(,%xmm4,1),%ymm7
 804cfa7:	28 06 08 
 804cfaa:	c5 f9 76 db          	vpcmpeqd %xmm3,%xmm0,%xmm3
 804cfae:	c4 e2 7d 25 db       	vpmovsxdq %xmm3,%ymm3
 804cfb3:	c5 e5 db de          	vpand  %ymm6,%ymm3,%ymm3
 804cfb7:	c5 f9 76 e4          	vpcmpeqd %xmm4,%xmm0,%xmm4
 804cfbb:	c4 e2 7d 25 e4       	vpmovsxdq %xmm4,%ymm4
 804cfc0:	c5 dd db e7          	vpand  %ymm7,%ymm4,%ymm4
 804cfc4:	c5 e5 d4 c9          	vpaddq %ymm1,%ymm3,%ymm1
 804cfc8:	c5 dd d4 d2          	vpaddq %ymm2,%ymm4,%ymm2
 804cfcc:	83 ed 80             	sub    $0xffffff80,%ebp
 804cfcf:	e9 bc fe ff ff       	jmp    804ce90 <main+0x3c70>
 804cfd4:	c5 ed d4 c1          	vpaddq %ymm1,%ymm2,%ymm0
 804cfd8:	c4 e3 7d 39 c1 01    	vextracti128 $0x1,%ymm0,%xmm1
 804cfde:	c5 f9 d4 c1          	vpaddq %xmm1,%xmm0,%xmm0
 804cfe2:	c5 f9 70 c8 ee       	vpshufd $0xee,%xmm0,%xmm1
 804cfe7:	c5 f9 d4 c1          	vpaddq %xmm1,%xmm0,%xmm0
 804cfeb:	31 ed                	xor    %ebp,%ebp
 804cfed:	81 fe c8 07 00 00    	cmp    $0x7c8,%esi
 804cff3:	b8 00 00 00 00       	mov    $0x0,%eax
 804cff8:	b9 eb 79 82 49       	mov    $0x498279eb,%ecx
 804cffd:	0f 44 c1             	cmove  %ecx,%eax
 804d000:	b9 00 00 00 00       	mov    $0x0,%ecx
 804d005:	ba a2 fb b2 10       	mov    $0x10b2fba2,%edx
 804d00a:	0f 44 ca             	cmove  %edx,%ecx
 804d00d:	c5 f9 7e c3          	vmovd  %xmm0,%ebx
 804d011:	01 d9                	add    %ebx,%ecx
 804d013:	c4 e3 79 16 c3 01    	vpextrd $0x1,%xmm0,%ebx
 804d019:	11 d8                	adc    %ebx,%eax
 804d01b:	81 fe d0 07 00 00    	cmp    $0x7d0,%esi
 804d021:	bb 00 00 00 00       	mov    $0x0,%ebx
 804d026:	ba 27 74 e9 a7       	mov    $0xa7e97427,%edx
 804d02b:	0f 44 da             	cmove  %edx,%ebx
 804d02e:	ba 00 00 00 00       	mov    $0x0,%edx
 804d033:	bf 80 9d 3a ba       	mov    $0xba3a9d80,%edi
 804d038:	0f 44 d7             	cmove  %edi,%edx
 804d03b:	01 ca                	add    %ecx,%edx
 804d03d:	11 c3                	adc    %eax,%ebx
 804d03f:	81 fe d8 07 00 00    	cmp    $0x7d8,%esi
 804d045:	b8 00 00 00 00       	mov    $0x0,%eax
 804d04a:	b9 bf 42 93 f0       	mov    $0xf09342bf,%ecx
 804d04f:	0f 44 c1             	cmove  %ecx,%eax
 804d052:	b9 00 00 00 00       	mov    $0x0,%ecx
 804d057:	bf 4f d1 21 6e       	mov    $0x6e21d14f,%edi
 804d05c:	0f 44 cf             	cmove  %edi,%ecx
 804d05f:	01 d1                	add    %edx,%ecx
 804d061:	11 d8                	adc    %ebx,%eax
 804d063:	81 fe e0 07 00 00    	cmp    $0x7e0,%esi
 804d069:	ba 00 00 00 00       	mov    $0x0,%edx
 804d06e:	bf 42 f8 d9 5d       	mov    $0x5dd9f842,%edi
 804d073:	0f 44 d7             	cmove  %edi,%edx
 804d076:	bb 00 00 00 00       	mov    $0x0,%ebx
 804d07b:	bf 1f 21 7c 63       	mov    $0x637c211f,%edi
 804d080:	0f 44 df             	cmove  %edi,%ebx
 804d083:	01 cb                	add    %ecx,%ebx
 804d085:	11 c2                	adc    %eax,%edx
 804d087:	81 fe e8 07 00 00    	cmp    $0x7e8,%esi
 804d08d:	b8 00 00 00 00       	mov    $0x0,%eax
 804d092:	b9 86 1e 5d 4c       	mov    $0x4c5d1e86,%ecx
 804d097:	0f 44 c1             	cmove  %ecx,%eax
 804d09a:	b9 00 00 00 00       	mov    $0x0,%ecx
 804d09f:	bf ca 43 0f c5       	mov    $0xc50f43ca,%edi
 804d0a4:	0f 44 cf             	cmove  %edi,%ecx
 804d0a7:	01 d9                	add    %ebx,%ecx
 804d0a9:	11 d0                	adc    %edx,%eax
 804d0ab:	81 fe f0 07 00 00    	cmp    $0x7f0,%esi
 804d0b1:	ba 00 00 00 00       	mov    $0x0,%edx
 804d0b6:	bf db 39 da 71       	mov    $0x71da39db,%edi
 804d0bb:	0f 44 d7             	cmove  %edi,%edx
 804d0be:	bb 00 00 00 00       	mov    $0x0,%ebx
 804d0c3:	bf aa e3 92 38       	mov    $0x3892e3aa,%edi
 804d0c8:	0f 44 df             	cmove  %edi,%ebx
 804d0cb:	01 cb                	add    %ecx,%ebx
 804d0cd:	11 c2                	adc    %eax,%edx
 804d0cf:	81 fe f8 07 00 00    	cmp    $0x7f8,%esi
 804d0d5:	be 00 00 00 00       	mov    $0x0,%esi
 804d0da:	b8 91 2a ec d3       	mov    $0xd3ec2a91,%eax
 804d0df:	0f 44 f0             	cmove  %eax,%esi
 804d0e2:	b8 42 c6 15 57       	mov    $0x5715c642,%eax
 804d0e7:	0f 44 e8             	cmove  %eax,%ebp
 804d0ea:	01 dd                	add    %ebx,%ebp
 804d0ec:	11 d6                	adc    %edx,%esi
 804d0ee:	8b 84 24 c0 00 00 00 	mov    0xc0(%esp),%eax
 804d0f5:	33 84 24 00 01 00 00 	xor    0x100(%esp),%eax
 804d0fc:	33 84 24 e0 00 00 00 	xor    0xe0(%esp),%eax
 804d103:	33 44 24 14          	xor    0x14(%esp),%eax
 804d107:	33 44 24 40          	xor    0x40(%esp),%eax
 804d10b:	33 44 24 10          	xor    0x10(%esp),%eax
 804d10f:	33 84 24 e0 01 00 00 	xor    0x1e0(%esp),%eax
 804d116:	33 84 24 c0 01 00 00 	xor    0x1c0(%esp),%eax
 804d11d:	31 e8                	xor    %ebp,%eax
 804d11f:	8b 54 24 0c          	mov    0xc(%esp),%edx
 804d123:	33 94 24 20 01 00 00 	xor    0x120(%esp),%edx
 804d12a:	33 54 24 08          	xor    0x8(%esp),%edx
 804d12e:	33 94 24 a0 01 00 00 	xor    0x1a0(%esp),%edx
 804d135:	33 94 24 80 01 00 00 	xor    0x180(%esp),%edx
 804d13c:	33 94 24 60 01 00 00 	xor    0x160(%esp),%edx
 804d143:	33 54 24 18          	xor    0x18(%esp),%edx
 804d147:	33 94 24 00 02 00 00 	xor    0x200(%esp),%edx
 804d14e:	31 f2                	xor    %esi,%edx
 804d150:	89 d1                	mov    %edx,%ecx
 804d152:	81 f1 a5 b8 81 50    	xor    $0x5081b8a5,%ecx
 804d158:	89 84 24 c0 00 00 00 	mov    %eax,0xc0(%esp)
 804d15f:	35 eb 89 82 60       	xor    $0x608289eb,%eax
 804d164:	89 44 24 20          	mov    %eax,0x20(%esp)
 804d168:	a3 d8 50 06 08       	mov    %eax,0x80650d8
 804d16d:	89 0d dc 50 06 08    	mov    %ecx,0x80650dc
 804d173:	89 4c 24 40          	mov    %ecx,0x40(%esp)
 804d177:	89 c8                	mov    %ecx,%eax
 804d179:	c1 e8 15             	shr    $0x15,%eax
 804d17c:	83 e0 f8             	and    $0xfffffff8,%eax
 804d17f:	c5 f9 6e c0          	vmovd  %eax,%xmm0
 804d183:	c4 e2 79 58 c0       	vpbroadcastd %xmm0,%xmm0
 804d188:	c5 f1 ef c9          	vpxor  %xmm1,%xmm1,%xmm1
 804d18c:	b9 80 fc ff ff       	mov    $0xfffffc80,%ecx
 804d191:	c5 e9 ef d2          	vpxor  %xmm2,%xmm2,%xmm2
 804d195:	66 66 2e 0f 1f 84 00 	data16 nopw %cs:0x0(%eax,%eax,1)
 804d19c:	00 00 00 00 
 804d1a0:	c5 fa 6f 99 8c 33 06 	vmovdqu 0x806338c(%ecx),%xmm3
 804d1a7:	08 
 804d1a8:	c5 fa 6f a1 9c 33 06 	vmovdqu 0x806339c(%ecx),%xmm4
 804d1af:	08 
 804d1b0:	c5 d5 76 ed          	vpcmpeqd %ymm5,%ymm5,%ymm5
 804d1b4:	c4 e2 d5 90 34 1d 08 	vpgatherdq %ymm5,0x805f008(,%xmm3,1),%ymm6
 804d1bb:	f0 05 08 
 804d1be:	c5 d5 76 ed          	vpcmpeqd %ymm5,%ymm5,%ymm5
 804d1c2:	c4 e2 d5 90 3c 25 08 	vpgatherdq %ymm5,0x805f008(,%xmm4,1),%ymm7
 804d1c9:	f0 05 08 
 804d1cc:	c5 e1 76 d8          	vpcmpeqd %xmm0,%xmm3,%xmm3
 804d1d0:	c4 e2 7d 25 db       	vpmovsxdq %xmm3,%ymm3
 804d1d5:	c5 e5 db de          	vpand  %ymm6,%ymm3,%ymm3
 804d1d9:	c5 e5 d4 c9          	vpaddq %ymm1,%ymm3,%ymm1
 804d1dd:	c5 d9 76 d8          	vpcmpeqd %xmm0,%xmm4,%xmm3
 804d1e1:	c4 e2 7d 25 db       	vpmovsxdq %xmm3,%ymm3
 804d1e6:	c5 e5 db df          	vpand  %ymm7,%ymm3,%ymm3
 804d1ea:	c5 e5 d4 d2          	vpaddq %ymm2,%ymm3,%ymm2
 804d1ee:	c5 fa 6f 99 ac 33 06 	vmovdqu 0x80633ac(%ecx),%xmm3
 804d1f5:	08 
 804d1f6:	c5 fa 6f a1 bc 33 06 	vmovdqu 0x80633bc(%ecx),%xmm4
 804d1fd:	08 
 804d1fe:	c5 d5 76 ed          	vpcmpeqd %ymm5,%ymm5,%ymm5
 804d202:	c4 e2 d5 90 34 1d 08 	vpgatherdq %ymm5,0x805f008(,%xmm3,1),%ymm6
 804d209:	f0 05 08 
 804d20c:	c5 d5 76 ed          	vpcmpeqd %ymm5,%ymm5,%ymm5
 804d210:	c4 e2 d5 90 3c 25 08 	vpgatherdq %ymm5,0x805f008(,%xmm4,1),%ymm7
 804d217:	f0 05 08 
 804d21a:	c5 e1 76 d8          	vpcmpeqd %xmm0,%xmm3,%xmm3
 804d21e:	c4 e2 7d 25 db       	vpmovsxdq %xmm3,%ymm3
 804d223:	c5 e5 db de          	vpand  %ymm6,%ymm3,%ymm3
 804d227:	c5 d9 76 e0          	vpcmpeqd %xmm0,%xmm4,%xmm4
 804d22b:	c4 e2 7d 25 e4       	vpmovsxdq %xmm4,%ymm4
 804d230:	c5 dd db e7          	vpand  %ymm7,%ymm4,%ymm4
 804d234:	c5 fa 6f a9 cc 33 06 	vmovdqu 0x80633cc(%ecx),%xmm5
 804d23b:	08 
 804d23c:	c5 cd 76 f6          	vpcmpeqd %ymm6,%ymm6,%ymm6
 804d240:	c4 e2 cd 90 3c 2d 08 	vpgatherdq %ymm6,0x805f008(,%xmm5,1),%ymm7
 804d247:	f0 05 08 
 804d24a:	c5 d1 76 e8          	vpcmpeqd %xmm0,%xmm5,%xmm5
 804d24e:	c4 e2 7d 25 ed       	vpmovsxdq %xmm5,%ymm5
 804d253:	c5 d5 db ef          	vpand  %ymm7,%ymm5,%ymm5
 804d257:	c5 fa 6f b1 dc 33 06 	vmovdqu 0x80633dc(%ecx),%xmm6
 804d25e:	08 
 804d25f:	c5 e5 d4 dd          	vpaddq %ymm5,%ymm3,%ymm3
 804d263:	c5 d5 76 ed          	vpcmpeqd %ymm5,%ymm5,%ymm5
 804d267:	c5 f5 d4 cb          	vpaddq %ymm3,%ymm1,%ymm1
 804d26b:	c4 e2 d5 90 1c 35 08 	vpgatherdq %ymm5,0x805f008(,%xmm6,1),%ymm3
 804d272:	f0 05 08 
 804d275:	c5 c9 76 e8          	vpcmpeqd %xmm0,%xmm6,%xmm5
 804d279:	c4 e2 7d 25 ed       	vpmovsxdq %xmm5,%ymm5
 804d27e:	c5 d5 db db          	vpand  %ymm3,%ymm5,%ymm3
 804d282:	c5 dd d4 db          	vpaddq %ymm3,%ymm4,%ymm3
 804d286:	c5 ed d4 d3          	vpaddq %ymm3,%ymm2,%ymm2
 804d28a:	85 c9                	test   %ecx,%ecx
 804d28c:	74 56                	je     804d2e4 <main+0x40c4>
 804d28e:	c5 fa 6f 99 ec 33 06 	vmovdqu 0x80633ec(%ecx),%xmm3
 804d295:	08 
 804d296:	c5 fa 6f a1 fc 33 06 	vmovdqu 0x80633fc(%ecx),%xmm4
 804d29d:	08 
 804d29e:	c5 d5 76 ed          	vpcmpeqd %ymm5,%ymm5,%ymm5
 804d2a2:	c4 e2 d5 90 34 1d 08 	vpgatherdq %ymm5,0x805f008(,%xmm3,1),%ymm6
 804d2a9:	f0 05 08 
 804d2ac:	c5 d5 76 ed          	vpcmpeqd %ymm5,%ymm5,%ymm5
 804d2b0:	c4 e2 d5 90 3c 25 08 	vpgatherdq %ymm5,0x805f008(,%xmm4,1),%ymm7
 804d2b7:	f0 05 08 
 804d2ba:	c5 e1 76 d8          	vpcmpeqd %xmm0,%xmm3,%xmm3
 804d2be:	c4 e2 7d 25 db       	vpmovsxdq %xmm3,%ymm3
 804d2c3:	c5 e5 db de          	vpand  %ymm6,%ymm3,%ymm3
 804d2c7:	c5 d9 76 e0          	vpcmpeqd %xmm0,%xmm4,%xmm4
 804d2cb:	c4 e2 7d 25 e4       	vpmovsxdq %xmm4,%ymm4
 804d2d0:	c5 dd db e7          	vpand  %ymm7,%ymm4,%ymm4
 804d2d4:	c5 e5 d4 c9          	vpaddq %ymm1,%ymm3,%ymm1
 804d2d8:	c5 dd d4 d2          	vpaddq %ymm2,%ymm4,%ymm2
 804d2dc:	83 e9 80             	sub    $0xffffff80,%ecx
 804d2df:	e9 bc fe ff ff       	jmp    804d1a0 <main+0x3f80>
 804d2e4:	89 54 24 0c          	mov    %edx,0xc(%esp)
 804d2e8:	c5 ed d4 c1          	vpaddq %ymm1,%ymm2,%ymm0
 804d2ec:	c4 e3 7d 39 c1 01    	vextracti128 $0x1,%ymm0,%xmm1
 804d2f2:	c5 f9 d4 c1          	vpaddq %xmm1,%xmm0,%xmm0
 804d2f6:	c5 f9 70 c8 ee       	vpshufd $0xee,%xmm0,%xmm1
 804d2fb:	c5 f9 d4 c1          	vpaddq %xmm1,%xmm0,%xmm0
 804d2ff:	c4 e3 79 16 c1 01    	vpextrd $0x1,%xmm0,%ecx
 804d305:	c5 f9 7e c2          	vmovd  %xmm0,%edx
 804d309:	31 ff                	xor    %edi,%edi
 804d30b:	3d c8 07 00 00       	cmp    $0x7c8,%eax
 804d310:	be 00 00 00 00       	mov    $0x0,%esi
 804d315:	bb 10 b2 fb a2       	mov    $0xa2fbb210,%ebx
 804d31a:	0f 44 f3             	cmove  %ebx,%esi
 804d31d:	bb 00 00 00 00       	mov    $0x0,%ebx
 804d322:	bd 49 82 79 eb       	mov    $0xeb798249,%ebp
 804d327:	0f 44 dd             	cmove  %ebp,%ebx
 804d32a:	01 d3                	add    %edx,%ebx
 804d32c:	11 ce                	adc    %ecx,%esi
 804d32e:	3d d0 07 00 00       	cmp    $0x7d0,%eax
 804d333:	b9 00 00 00 00       	mov    $0x0,%ecx
 804d338:	ba ba 3a 9d 80       	mov    $0x809d3aba,%edx
 804d33d:	0f 44 ca             	cmove  %edx,%ecx
 804d340:	ba 00 00 00 00       	mov    $0x0,%edx
 804d345:	bd a7 e9 74 27       	mov    $0x2774e9a7,%ebp
 804d34a:	0f 44 d5             	cmove  %ebp,%edx
 804d34d:	01 da                	add    %ebx,%edx
 804d34f:	11 f1                	adc    %esi,%ecx
 804d351:	3d d8 07 00 00       	cmp    $0x7d8,%eax
 804d356:	be 00 00 00 00       	mov    $0x0,%esi
 804d35b:	bb 6e 21 d1 4f       	mov    $0x4fd1216e,%ebx
 804d360:	0f 44 f3             	cmove  %ebx,%esi
 804d363:	bb 00 00 00 00       	mov    $0x0,%ebx
 804d368:	bd f0 93 42 bf       	mov    $0xbf4293f0,%ebp
 804d36d:	0f 44 dd             	cmove  %ebp,%ebx
 804d370:	01 d3                	add    %edx,%ebx
 804d372:	11 ce                	adc    %ecx,%esi
 804d374:	3d e0 07 00 00       	cmp    $0x7e0,%eax
 804d379:	b9 00 00 00 00       	mov    $0x0,%ecx
 804d37e:	ba 63 7c 21 1f       	mov    $0x1f217c63,%edx
 804d383:	0f 44 ca             	cmove  %edx,%ecx
 804d386:	ba 00 00 00 00       	mov    $0x0,%edx
 804d38b:	bd 5d d9 f8 42       	mov    $0x42f8d95d,%ebp
 804d390:	0f 44 d5             	cmove  %ebp,%edx
 804d393:	01 da                	add    %ebx,%edx
 804d395:	11 f1                	adc    %esi,%ecx
 804d397:	3d e8 07 00 00       	cmp    $0x7e8,%eax
 804d39c:	be 00 00 00 00       	mov    $0x0,%esi
 804d3a1:	bb c5 0f 43 ca       	mov    $0xca430fc5,%ebx
 804d3a6:	0f 44 f3             	cmove  %ebx,%esi
 804d3a9:	bb 00 00 00 00       	mov    $0x0,%ebx
 804d3ae:	bd 4c 5d 1e 86       	mov    $0x861e5d4c,%ebp
 804d3b3:	0f 44 dd             	cmove  %ebp,%ebx
 804d3b6:	01 d3                	add    %edx,%ebx
 804d3b8:	11 ce                	adc    %ecx,%esi
 804d3ba:	3d f0 07 00 00       	cmp    $0x7f0,%eax
 804d3bf:	b9 00 00 00 00       	mov    $0x0,%ecx
 804d3c4:	ba 38 92 e3 aa       	mov    $0xaae39238,%edx
 804d3c9:	0f 44 ca             	cmove  %edx,%ecx
 804d3cc:	ba 00 00 00 00       	mov    $0x0,%edx
 804d3d1:	bd 71 da 39 db       	mov    $0xdb39da71,%ebp
 804d3d6:	0f 44 d5             	cmove  %ebp,%edx
 804d3d9:	01 da                	add    %ebx,%edx
 804d3db:	11 f1                	adc    %esi,%ecx
 804d3dd:	3d f8 07 00 00       	cmp    $0x7f8,%eax
 804d3e2:	be 00 00 00 00       	mov    $0x0,%esi
 804d3e7:	b8 57 15 c6 42       	mov    $0x42c61557,%eax
 804d3ec:	0f 44 f0             	cmove  %eax,%esi
 804d3ef:	b8 d3 ec 2a 91       	mov    $0x912aecd3,%eax
 804d3f4:	0f 44 f8             	cmove  %eax,%edi
 804d3f7:	01 d7                	add    %edx,%edi
 804d3f9:	89 bc 24 00 01 00 00 	mov    %edi,0x100(%esp)
 804d400:	11 ce                	adc    %ecx,%esi
 804d402:	89 b4 24 20 01 00 00 	mov    %esi,0x120(%esp)
 804d409:	8b 44 24 40          	mov    0x40(%esp),%eax
 804d40d:	c1 e8 0d             	shr    $0xd,%eax
 804d410:	25 f8 07 00 00       	and    $0x7f8,%eax
 804d415:	c5 f9 6e c0          	vmovd  %eax,%xmm0
 804d419:	c4 e2 79 58 c0       	vpbroadcastd %xmm0,%xmm0
 804d41e:	c5 f1 ef c9          	vpxor  %xmm1,%xmm1,%xmm1
 804d422:	b9 80 fc ff ff       	mov    $0xfffffc80,%ecx
 804d427:	c5 e9 ef d2          	vpxor  %xmm2,%xmm2,%xmm2
 804d42b:	0f 1f 44 00 00       	nopl   0x0(%eax,%eax,1)
 804d430:	c5 fa 6f 99 8c 33 06 	vmovdqu 0x806338c(%ecx),%xmm3
 804d437:	08 
 804d438:	c5 fa 6f a1 9c 33 06 	vmovdqu 0x806339c(%ecx),%xmm4
 804d43f:	08 
 804d440:	c5 d5 76 ed          	vpcmpeqd %ymm5,%ymm5,%ymm5
 804d444:	c4 e2 d5 90 34 1d 08 	vpgatherdq %ymm5,0x805f808(,%xmm3,1),%ymm6
 804d44b:	f8 05 08 
 804d44e:	c5 d5 76 ed          	vpcmpeqd %ymm5,%ymm5,%ymm5
 804d452:	c4 e2 d5 90 3c 25 08 	vpgatherdq %ymm5,0x805f808(,%xmm4,1),%ymm7
 804d459:	f8 05 08 
 804d45c:	c5 f9 76 db          	vpcmpeqd %xmm3,%xmm0,%xmm3
 804d460:	c4 e2 7d 25 db       	vpmovsxdq %xmm3,%ymm3
 804d465:	c5 e5 db de          	vpand  %ymm6,%ymm3,%ymm3
 804d469:	c5 e5 d4 c9          	vpaddq %ymm1,%ymm3,%ymm1
 804d46d:	c5 f9 76 dc          	vpcmpeqd %xmm4,%xmm0,%xmm3
 804d471:	c4 e2 7d 25 db       	vpmovsxdq %xmm3,%ymm3
 804d476:	c5 e5 db df          	vpand  %ymm7,%ymm3,%ymm3
 804d47a:	c5 e5 d4 d2          	vpaddq %ymm2,%ymm3,%ymm2
 804d47e:	c5 fa 6f 99 ac 33 06 	vmovdqu 0x80633ac(%ecx),%xmm3
 804d485:	08 
 804d486:	c5 fa 6f a1 bc 33 06 	vmovdqu 0x80633bc(%ecx),%xmm4
 804d48d:	08 
 804d48e:	c5 d5 76 ed          	vpcmpeqd %ymm5,%ymm5,%ymm5
 804d492:	c4 e2 d5 90 34 1d 08 	vpgatherdq %ymm5,0x805f808(,%xmm3,1),%ymm6
 804d499:	f8 05 08 
 804d49c:	c5 d5 76 ed          	vpcmpeqd %ymm5,%ymm5,%ymm5
 804d4a0:	c4 e2 d5 90 3c 25 08 	vpgatherdq %ymm5,0x805f808(,%xmm4,1),%ymm7
 804d4a7:	f8 05 08 
 804d4aa:	c5 f9 76 db          	vpcmpeqd %xmm3,%xmm0,%xmm3
 804d4ae:	c4 e2 7d 25 db       	vpmovsxdq %xmm3,%ymm3
 804d4b3:	c5 e5 db de          	vpand  %ymm6,%ymm3,%ymm3
 804d4b7:	c5 f9 76 e4          	vpcmpeqd %xmm4,%xmm0,%xmm4
 804d4bb:	c4 e2 7d 25 e4       	vpmovsxdq %xmm4,%ymm4
 804d4c0:	c5 dd db e7          	vpand  %ymm7,%ymm4,%ymm4
 804d4c4:	c5 fa 6f a9 cc 33 06 	vmovdqu 0x80633cc(%ecx),%xmm5
 804d4cb:	08 
 804d4cc:	c5 cd 76 f6          	vpcmpeqd %ymm6,%ymm6,%ymm6
 804d4d0:	c4 e2 cd 90 3c 2d 08 	vpgatherdq %ymm6,0x805f808(,%xmm5,1),%ymm7
 804d4d7:	f8 05 08 
 804d4da:	c5 f9 76 ed          	vpcmpeqd %xmm5,%xmm0,%xmm5
 804d4de:	c4 e2 7d 25 ed       	vpmovsxdq %xmm5,%ymm5
 804d4e3:	c5 d5 db ef          	vpand  %ymm7,%ymm5,%ymm5
 804d4e7:	c5 fa 6f b1 dc 33 06 	vmovdqu 0x80633dc(%ecx),%xmm6
 804d4ee:	08 
 804d4ef:	c5 e5 d4 dd          	vpaddq %ymm5,%ymm3,%ymm3
 804d4f3:	c5 d5 76 ed          	vpcmpeqd %ymm5,%ymm5,%ymm5
 804d4f7:	c5 f5 d4 cb          	vpaddq %ymm3,%ymm1,%ymm1
 804d4fb:	c4 e2 d5 90 1c 35 08 	vpgatherdq %ymm5,0x805f808(,%xmm6,1),%ymm3
 804d502:	f8 05 08 
 804d505:	c5 f9 76 ee          	vpcmpeqd %xmm6,%xmm0,%xmm5
 804d509:	c4 e2 7d 25 ed       	vpmovsxdq %xmm5,%ymm5
 804d50e:	c5 d5 db db          	vpand  %ymm3,%ymm5,%ymm3
 804d512:	c5 dd d4 db          	vpaddq %ymm3,%ymm4,%ymm3
 804d516:	c5 ed d4 d3          	vpaddq %ymm3,%ymm2,%ymm2
 804d51a:	85 c9                	test   %ecx,%ecx
 804d51c:	74 56                	je     804d574 <main+0x4354>
 804d51e:	c5 fa 6f 99 ec 33 06 	vmovdqu 0x80633ec(%ecx),%xmm3
 804d525:	08 
 804d526:	c5 fa 6f a1 fc 33 06 	vmovdqu 0x80633fc(%ecx),%xmm4
 804d52d:	08 
 804d52e:	c5 d5 76 ed          	vpcmpeqd %ymm5,%ymm5,%ymm5
 804d532:	c4 e2 d5 90 34 1d 08 	vpgatherdq %ymm5,0x805f808(,%xmm3,1),%ymm6
 804d539:	f8 05 08 
 804d53c:	c5 d5 76 ed          	vpcmpeqd %ymm5,%ymm5,%ymm5
 804d540:	c4 e2 d5 90 3c 25 08 	vpgatherdq %ymm5,0x805f808(,%xmm4,1),%ymm7
 804d547:	f8 05 08 
 804d54a:	c5 f9 76 db          	vpcmpeqd %xmm3,%xmm0,%xmm3
 804d54e:	c4 e2 7d 25 db       	vpmovsxdq %xmm3,%ymm3
 804d553:	c5 e5 db de          	vpand  %ymm6,%ymm3,%ymm3
 804d557:	c5 f9 76 e4          	vpcmpeqd %xmm4,%xmm0,%xmm4
 804d55b:	c4 e2 7d 25 e4       	vpmovsxdq %xmm4,%ymm4
 804d560:	c5 dd db e7          	vpand  %ymm7,%ymm4,%ymm4
 804d564:	c5 e5 d4 c9          	vpaddq %ymm1,%ymm3,%ymm1
 804d568:	c5 dd d4 d2          	vpaddq %ymm2,%ymm4,%ymm2
 804d56c:	83 e9 80             	sub    $0xffffff80,%ecx
 804d56f:	e9 bc fe ff ff       	jmp    804d430 <main+0x4210>
 804d574:	c5 ed d4 c1          	vpaddq %ymm1,%ymm2,%ymm0
 804d578:	c4 e3 7d 39 c1 01    	vextracti128 $0x1,%ymm0,%xmm1
 804d57e:	c5 f9 d4 c1          	vpaddq %xmm1,%xmm0,%xmm0
 804d582:	c5 f9 70 c8 ee       	vpshufd $0xee,%xmm0,%xmm1
 804d587:	c5 f9 d4 c1          	vpaddq %xmm1,%xmm0,%xmm0
 804d58b:	c4 e3 79 16 c1 01    	vpextrd $0x1,%xmm0,%ecx
 804d591:	c5 f9 7e c2          	vmovd  %xmm0,%edx
 804d595:	31 ff                	xor    %edi,%edi
 804d597:	3d c8 07 00 00       	cmp    $0x7c8,%eax
 804d59c:	be 00 00 00 00       	mov    $0x0,%esi
 804d5a1:	bb b2 10 a2 fb       	mov    $0xfba210b2,%ebx
 804d5a6:	0f 44 f3             	cmove  %ebx,%esi
 804d5a9:	bb 00 00 00 00       	mov    $0x0,%ebx
 804d5ae:	bd 82 49 eb 79       	mov    $0x79eb4982,%ebp
 804d5b3:	0f 44 dd             	cmove  %ebp,%ebx
 804d5b6:	01 d3                	add    %edx,%ebx
 804d5b8:	11 ce                	adc    %ecx,%esi
 804d5ba:	3d d0 07 00 00       	cmp    $0x7d0,%eax
 804d5bf:	b9 00 00 00 00       	mov    $0x0,%ecx
 804d5c4:	ba 3a ba 80 9d       	mov    $0x9d80ba3a,%edx
 804d5c9:	0f 44 ca             	cmove  %edx,%ecx
 804d5cc:	ba 00 00 00 00       	mov    $0x0,%edx
 804d5d1:	bd e9 a7 27 74       	mov    $0x7427a7e9,%ebp
 804d5d6:	0f 44 d5             	cmove  %ebp,%edx
 804d5d9:	01 da                	add    %ebx,%edx
 804d5db:	11 f1                	adc    %esi,%ecx
 804d5dd:	3d d8 07 00 00       	cmp    $0x7d8,%eax
 804d5e2:	be 00 00 00 00       	mov    $0x0,%esi
 804d5e7:	bb 21 6e 4f d1       	mov    $0xd14f6e21,%ebx
 804d5ec:	0f 44 f3             	cmove  %ebx,%esi
 804d5ef:	bb 00 00 00 00       	mov    $0x0,%ebx
 804d5f4:	bd 93 f0 bf 42       	mov    $0x42bff093,%ebp
 804d5f9:	0f 44 dd             	cmove  %ebp,%ebx
 804d5fc:	01 d3                	add    %edx,%ebx
 804d5fe:	11 ce                	adc    %ecx,%esi
 804d600:	3d e0 07 00 00       	cmp    $0x7e0,%eax
 804d605:	b9 00 00 00 00       	mov    $0x0,%ecx
 804d60a:	ba 7c 63 1f 21       	mov    $0x211f637c,%edx
 804d60f:	0f 44 ca             	cmove  %edx,%ecx
 804d612:	ba 00 00 00 00       	mov    $0x0,%edx
 804d617:	bd d9 5d 42 f8       	mov    $0xf8425dd9,%ebp
 804d61c:	0f 44 d5             	cmove  %ebp,%edx
 804d61f:	01 da                	add    %ebx,%edx
 804d621:	11 f1                	adc    %esi,%ecx
 804d623:	3d e8 07 00 00       	cmp    $0x7e8,%eax
 804d628:	be 00 00 00 00       	mov    $0x0,%esi
 804d62d:	bb 0f c5 ca 43       	mov    $0x43cac50f,%ebx
 804d632:	0f 44 f3             	cmove  %ebx,%esi
 804d635:	bb 00 00 00 00       	mov    $0x0,%ebx
 804d63a:	bd 5d 4c 86 1e       	mov    $0x1e864c5d,%ebp
 804d63f:	0f 44 dd             	cmove  %ebp,%ebx
 804d642:	01 d3                	add    %edx,%ebx
 804d644:	11 ce                	adc    %ecx,%esi
 804d646:	3d f0 07 00 00       	cmp    $0x7f0,%eax
 804d64b:	b9 00 00 00 00       	mov    $0x0,%ecx
 804d650:	ba 92 38 aa e3       	mov    $0xe3aa3892,%edx
 804d655:	0f 44 ca             	cmove  %edx,%ecx
 804d658:	ba 00 00 00 00       	mov    $0x0,%edx
 804d65d:	bd da 71 db 39       	mov    $0x39db71da,%ebp
 804d662:	0f 44 d5             	cmove  %ebp,%edx
 804d665:	01 da                	add    %ebx,%edx
 804d667:	11 f1                	adc    %esi,%ecx
 804d669:	3d f8 07 00 00       	cmp    $0x7f8,%eax
 804d66e:	be 00 00 00 00       	mov    $0x0,%esi
 804d673:	b8 15 57 42 c6       	mov    $0xc6425715,%eax
 804d678:	0f 44 f0             	cmove  %eax,%esi
 804d67b:	b8 ec d3 91 2a       	mov    $0x2a91d3ec,%eax
 804d680:	0f 44 f8             	cmove  %eax,%edi
 804d683:	01 d7                	add    %edx,%edi
 804d685:	89 bc 24 e0 00 00 00 	mov    %edi,0xe0(%esp)
 804d68c:	11 ce                	adc    %ecx,%esi
 804d68e:	89 74 24 08          	mov    %esi,0x8(%esp)
 804d692:	8b 44 24 40          	mov    0x40(%esp),%eax
 804d696:	c1 e8 05             	shr    $0x5,%eax
 804d699:	25 f8 07 00 00       	and    $0x7f8,%eax
 804d69e:	c5 f9 6e c0          	vmovd  %eax,%xmm0
 804d6a2:	c4 e2 79 58 c0       	vpbroadcastd %xmm0,%xmm0
 804d6a7:	c5 f1 ef c9          	vpxor  %xmm1,%xmm1,%xmm1
 804d6ab:	b9 80 fc ff ff       	mov    $0xfffffc80,%ecx
 804d6b0:	c5 e9 ef d2          	vpxor  %xmm2,%xmm2,%xmm2
 804d6b4:	66 66 66 2e 0f 1f 84 	data16 data16 nopw %cs:0x0(%eax,%eax,1)
 804d6bb:	00 00 00 00 00 
 804d6c0:	c5 fa 6f 99 8c 33 06 	vmovdqu 0x806338c(%ecx),%xmm3
 804d6c7:	08 
 804d6c8:	c5 fa 6f a1 9c 33 06 	vmovdqu 0x806339c(%ecx),%xmm4
 804d6cf:	08 
 804d6d0:	c5 d5 76 ed          	vpcmpeqd %ymm5,%ymm5,%ymm5
 804d6d4:	c4 e2 d5 90 34 1d 08 	vpgatherdq %ymm5,0x8060008(,%xmm3,1),%ymm6
 804d6db:	00 06 08 
 804d6de:	c5 d5 76 ed          	vpcmpeqd %ymm5,%ymm5,%ymm5
 804d6e2:	c4 e2 d5 90 3c 25 08 	vpgatherdq %ymm5,0x8060008(,%xmm4,1),%ymm7
 804d6e9:	00 06 08 
 804d6ec:	c5 f9 76 db          	vpcmpeqd %xmm3,%xmm0,%xmm3
 804d6f0:	c4 e2 7d 25 db       	vpmovsxdq %xmm3,%ymm3
 804d6f5:	c5 e5 db de          	vpand  %ymm6,%ymm3,%ymm3
 804d6f9:	c5 e5 d4 c9          	vpaddq %ymm1,%ymm3,%ymm1
 804d6fd:	c5 f9 76 dc          	vpcmpeqd %xmm4,%xmm0,%xmm3
 804d701:	c4 e2 7d 25 db       	vpmovsxdq %xmm3,%ymm3
 804d706:	c5 e5 db df          	vpand  %ymm7,%ymm3,%ymm3
 804d70a:	c5 e5 d4 d2          	vpaddq %ymm2,%ymm3,%ymm2
 804d70e:	c5 fa 6f 99 ac 33 06 	vmovdqu 0x80633ac(%ecx),%xmm3
 804d715:	08 
 804d716:	c5 fa 6f a1 bc 33 06 	vmovdqu 0x80633bc(%ecx),%xmm4
 804d71d:	08 
 804d71e:	c5 d5 76 ed          	vpcmpeqd %ymm5,%ymm5,%ymm5
 804d722:	c4 e2 d5 90 34 1d 08 	vpgatherdq %ymm5,0x8060008(,%xmm3,1),%ymm6
 804d729:	00 06 08 
 804d72c:	c5 d5 76 ed          	vpcmpeqd %ymm5,%ymm5,%ymm5
 804d730:	c4 e2 d5 90 3c 25 08 	vpgatherdq %ymm5,0x8060008(,%xmm4,1),%ymm7
 804d737:	00 06 08 
 804d73a:	c5 f9 76 db          	vpcmpeqd %xmm3,%xmm0,%xmm3
 804d73e:	c4 e2 7d 25 db       	vpmovsxdq %xmm3,%ymm3
 804d743:	c5 e5 db de          	vpand  %ymm6,%ymm3,%ymm3
 804d747:	c5 f9 76 e4          	vpcmpeqd %xmm4,%xmm0,%xmm4
 804d74b:	c4 e2 7d 25 e4       	vpmovsxdq %xmm4,%ymm4
 804d750:	c5 dd db e7          	vpand  %ymm7,%ymm4,%ymm4
 804d754:	c5 fa 6f a9 cc 33 06 	vmovdqu 0x80633cc(%ecx),%xmm5
 804d75b:	08 
 804d75c:	c5 cd 76 f6          	vpcmpeqd %ymm6,%ymm6,%ymm6
 804d760:	c4 e2 cd 90 3c 2d 08 	vpgatherdq %ymm6,0x8060008(,%xmm5,1),%ymm7
 804d767:	00 06 08 
 804d76a:	c5 f9 76 ed          	vpcmpeqd %xmm5,%xmm0,%xmm5
 804d76e:	c4 e2 7d 25 ed       	vpmovsxdq %xmm5,%ymm5
 804d773:	c5 d5 db ef          	vpand  %ymm7,%ymm5,%ymm5
 804d777:	c5 fa 6f b1 dc 33 06 	vmovdqu 0x80633dc(%ecx),%xmm6
 804d77e:	08 
 804d77f:	c5 e5 d4 dd          	vpaddq %ymm5,%ymm3,%ymm3
 804d783:	c5 d5 76 ed          	vpcmpeqd %ymm5,%ymm5,%ymm5
 804d787:	c5 f5 d4 cb          	vpaddq %ymm3,%ymm1,%ymm1
 804d78b:	c4 e2 d5 90 1c 35 08 	vpgatherdq %ymm5,0x8060008(,%xmm6,1),%ymm3
 804d792:	00 06 08 
 804d795:	c5 f9 76 ee          	vpcmpeqd %xmm6,%xmm0,%xmm5
 804d799:	c4 e2 7d 25 ed       	vpmovsxdq %xmm5,%ymm5
 804d79e:	c5 d5 db db          	vpand  %ymm3,%ymm5,%ymm3
 804d7a2:	c5 dd d4 db          	vpaddq %ymm3,%ymm4,%ymm3
 804d7a6:	c5 ed d4 d3          	vpaddq %ymm3,%ymm2,%ymm2
 804d7aa:	85 c9                	test   %ecx,%ecx
 804d7ac:	74 56                	je     804d804 <main+0x45e4>
 804d7ae:	c5 fa 6f 99 ec 33 06 	vmovdqu 0x80633ec(%ecx),%xmm3
 804d7b5:	08 
 804d7b6:	c5 fa 6f a1 fc 33 06 	vmovdqu 0x80633fc(%ecx),%xmm4
 804d7bd:	08 
 804d7be:	c5 d5 76 ed          	vpcmpeqd %ymm5,%ymm5,%ymm5
 804d7c2:	c4 e2 d5 90 34 1d 08 	vpgatherdq %ymm5,0x8060008(,%xmm3,1),%ymm6
 804d7c9:	00 06 08 
 804d7cc:	c5 d5 76 ed          	vpcmpeqd %ymm5,%ymm5,%ymm5
 804d7d0:	c4 e2 d5 90 3c 25 08 	vpgatherdq %ymm5,0x8060008(,%xmm4,1),%ymm7
 804d7d7:	00 06 08 
 804d7da:	c5 f9 76 db          	vpcmpeqd %xmm3,%xmm0,%xmm3
 804d7de:	c4 e2 7d 25 db       	vpmovsxdq %xmm3,%ymm3
 804d7e3:	c5 e5 db de          	vpand  %ymm6,%ymm3,%ymm3
 804d7e7:	c5 f9 76 e4          	vpcmpeqd %xmm4,%xmm0,%xmm4
 804d7eb:	c4 e2 7d 25 e4       	vpmovsxdq %xmm4,%ymm4
 804d7f0:	c5 dd db e7          	vpand  %ymm7,%ymm4,%ymm4
 804d7f4:	c5 e5 d4 c9          	vpaddq %ymm1,%ymm3,%ymm1
 804d7f8:	c5 dd d4 d2          	vpaddq %ymm2,%ymm4,%ymm2
 804d7fc:	83 e9 80             	sub    $0xffffff80,%ecx
 804d7ff:	e9 bc fe ff ff       	jmp    804d6c0 <main+0x44a0>
 804d804:	c5 ed d4 c1          	vpaddq %ymm1,%ymm2,%ymm0
 804d808:	c4 e3 7d 39 c1 01    	vextracti128 $0x1,%ymm0,%xmm1
 804d80e:	c5 f9 d4 c1          	vpaddq %xmm1,%xmm0,%xmm0
 804d812:	c5 f9 70 c8 ee       	vpshufd $0xee,%xmm0,%xmm1
 804d817:	c5 f9 d4 c1          	vpaddq %xmm1,%xmm0,%xmm0
 804d81b:	c4 e3 79 16 c1 01    	vpextrd $0x1,%xmm0,%ecx
 804d821:	c5 f9 7e c2          	vmovd  %xmm0,%edx
 804d825:	31 ff                	xor    %edi,%edi
 804d827:	3d c8 07 00 00       	cmp    $0x7c8,%eax
 804d82c:	be 00 00 00 00       	mov    $0x0,%esi
 804d831:	bb fb a2 10 b2       	mov    $0xb210a2fb,%ebx
 804d836:	0f 44 f3             	cmove  %ebx,%esi
 804d839:	bb 00 00 00 00       	mov    $0x0,%ebx
 804d83e:	bd 79 eb 49 82       	mov    $0x8249eb79,%ebp
 804d843:	0f 44 dd             	cmove  %ebp,%ebx
 804d846:	01 d3                	add    %edx,%ebx
 804d848:	11 ce                	adc    %ecx,%esi
 804d84a:	3d d0 07 00 00       	cmp    $0x7d0,%eax
 804d84f:	b9 00 00 00 00       	mov    $0x0,%ecx
 804d854:	ba 9d 80 ba 3a       	mov    $0x3aba809d,%edx
 804d859:	0f 44 ca             	cmove  %edx,%ecx
 804d85c:	ba 00 00 00 00       	mov    $0x0,%edx
 804d861:	bd 74 27 a7 e9       	mov    $0xe9a72774,%ebp
 804d866:	0f 44 d5             	cmove  %ebp,%edx
 804d869:	01 da                	add    %ebx,%edx
 804d86b:	11 f1                	adc    %esi,%ecx
 804d86d:	3d d8 07 00 00       	cmp    $0x7d8,%eax
 804d872:	be 00 00 00 00       	mov    $0x0,%esi
 804d877:	bb d1 4f 6e 21       	mov    $0x216e4fd1,%ebx
 804d87c:	0f 44 f3             	cmove  %ebx,%esi
 804d87f:	bb 00 00 00 00       	mov    $0x0,%ebx
 804d884:	bd 42 bf f0 93       	mov    $0x93f0bf42,%ebp
 804d889:	0f 44 dd             	cmove  %ebp,%ebx
 804d88c:	01 d3                	add    %edx,%ebx
 804d88e:	11 ce                	adc    %ecx,%esi
 804d890:	3d e0 07 00 00       	cmp    $0x7e0,%eax
 804d895:	b9 00 00 00 00       	mov    $0x0,%ecx
 804d89a:	ba 21 1f 63 7c       	mov    $0x7c631f21,%edx
 804d89f:	0f 44 ca             	cmove  %edx,%ecx
 804d8a2:	ba 00 00 00 00       	mov    $0x0,%edx
 804d8a7:	bd f8 42 5d d9       	mov    $0xd95d42f8,%ebp
 804d8ac:	0f 44 d5             	cmove  %ebp,%edx
 804d8af:	01 da                	add    %ebx,%edx
 804d8b1:	11 f1                	adc    %esi,%ecx
 804d8b3:	3d e8 07 00 00       	cmp    $0x7e8,%eax
 804d8b8:	be 00 00 00 00       	mov    $0x0,%esi
 804d8bd:	bb 43 ca c5 0f       	mov    $0xfc5ca43,%ebx
 804d8c2:	0f 44 f3             	cmove  %ebx,%esi
 804d8c5:	bb 00 00 00 00       	mov    $0x0,%ebx
 804d8ca:	bd 1e 86 4c 5d       	mov    $0x5d4c861e,%ebp
 804d8cf:	0f 44 dd             	cmove  %ebp,%ebx
 804d8d2:	01 d3                	add    %edx,%ebx
 804d8d4:	11 ce                	adc    %ecx,%esi
 804d8d6:	3d f0 07 00 00       	cmp    $0x7f0,%eax
 804d8db:	b9 00 00 00 00       	mov    $0x0,%ecx
 804d8e0:	ba e3 aa 38 92       	mov    $0x9238aae3,%edx
 804d8e5:	0f 44 ca             	cmove  %edx,%ecx
 804d8e8:	ba 00 00 00 00       	mov    $0x0,%edx
 804d8ed:	bd 39 db 71 da       	mov    $0xda71db39,%ebp
 804d8f2:	0f 44 d5             	cmove  %ebp,%edx
 804d8f5:	01 da                	add    %ebx,%edx
 804d8f7:	11 f1                	adc    %esi,%ecx
 804d8f9:	3d f8 07 00 00       	cmp    $0x7f8,%eax
 804d8fe:	be 00 00 00 00       	mov    $0x0,%esi
 804d903:	b8 c6 42 57 15       	mov    $0x155742c6,%eax
 804d908:	0f 44 f0             	cmove  %eax,%esi
 804d90b:	b8 2a 91 d3 ec       	mov    $0xecd3912a,%eax
 804d910:	0f 44 f8             	cmove  %eax,%edi
 804d913:	01 d7                	add    %edx,%edi
 804d915:	89 7c 24 14          	mov    %edi,0x14(%esp)
 804d919:	11 ce                	adc    %ecx,%esi
 804d91b:	89 b4 24 a0 01 00 00 	mov    %esi,0x1a0(%esp)
 804d922:	8b 44 24 20          	mov    0x20(%esp),%eax
 804d926:	8b 4c 24 40          	mov    0x40(%esp),%ecx
 804d92a:	0f a4 c1 03          	shld   $0x3,%eax,%ecx
 804d92e:	81 e1 f8 07 00 00    	and    $0x7f8,%ecx
 804d934:	89 ca                	mov    %ecx,%edx
 804d936:	c5 f9 6e c1          	vmovd  %ecx,%xmm0
 804d93a:	c4 e2 79 58 c0       	vpbroadcastd %xmm0,%xmm0
 804d93f:	c5 f1 ef c9          	vpxor  %xmm1,%xmm1,%xmm1
 804d943:	b8 80 fc ff ff       	mov    $0xfffffc80,%eax
 804d948:	c5 e9 ef d2          	vpxor  %xmm2,%xmm2,%xmm2
 804d94c:	0f 1f 40 00          	nopl   0x0(%eax)
 804d950:	c5 fa 6f 98 8c 33 06 	vmovdqu 0x806338c(%eax),%xmm3
 804d957:	08 
 804d958:	c5 fa 6f a0 9c 33 06 	vmovdqu 0x806339c(%eax),%xmm4
 804d95f:	08 
 804d960:	c5 d5 76 ed          	vpcmpeqd %ymm5,%ymm5,%ymm5
 804d964:	c4 e2 d5 90 34 1d 08 	vpgatherdq %ymm5,0x8060808(,%xmm3,1),%ymm6
 804d96b:	08 06 08 
 804d96e:	c5 d5 76 ed          	vpcmpeqd %ymm5,%ymm5,%ymm5
 804d972:	c4 e2 d5 90 3c 25 08 	vpgatherdq %ymm5,0x8060808(,%xmm4,1),%ymm7
 804d979:	08 06 08 
 804d97c:	c5 f9 76 db          	vpcmpeqd %xmm3,%xmm0,%xmm3
 804d980:	c4 e2 7d 25 db       	vpmovsxdq %xmm3,%ymm3
 804d985:	c5 e5 db de          	vpand  %ymm6,%ymm3,%ymm3
 804d989:	c5 e5 d4 c9          	vpaddq %ymm1,%ymm3,%ymm1
 804d98d:	c5 f9 76 dc          	vpcmpeqd %xmm4,%xmm0,%xmm3
 804d991:	c4 e2 7d 25 db       	vpmovsxdq %xmm3,%ymm3
 804d996:	c5 e5 db df          	vpand  %ymm7,%ymm3,%ymm3
 804d99a:	c5 e5 d4 d2          	vpaddq %ymm2,%ymm3,%ymm2
 804d99e:	c5 fa 6f 98 ac 33 06 	vmovdqu 0x80633ac(%eax),%xmm3
 804d9a5:	08 
 804d9a6:	c5 fa 6f a0 bc 33 06 	vmovdqu 0x80633bc(%eax),%xmm4
 804d9ad:	08 
 804d9ae:	c5 d5 76 ed          	vpcmpeqd %ymm5,%ymm5,%ymm5
 804d9b2:	c4 e2 d5 90 34 1d 08 	vpgatherdq %ymm5,0x8060808(,%xmm3,1),%ymm6
 804d9b9:	08 06 08 
 804d9bc:	c5 d5 76 ed          	vpcmpeqd %ymm5,%ymm5,%ymm5
 804d9c0:	c4 e2 d5 90 3c 25 08 	vpgatherdq %ymm5,0x8060808(,%xmm4,1),%ymm7
 804d9c7:	08 06 08 
 804d9ca:	c5 f9 76 db          	vpcmpeqd %xmm3,%xmm0,%xmm3
 804d9ce:	c4 e2 7d 25 db       	vpmovsxdq %xmm3,%ymm3
 804d9d3:	c5 e5 db de          	vpand  %ymm6,%ymm3,%ymm3
 804d9d7:	c5 f9 76 e4          	vpcmpeqd %xmm4,%xmm0,%xmm4
 804d9db:	c4 e2 7d 25 e4       	vpmovsxdq %xmm4,%ymm4
 804d9e0:	c5 dd db e7          	vpand  %ymm7,%ymm4,%ymm4
 804d9e4:	c5 fa 6f a8 cc 33 06 	vmovdqu 0x80633cc(%eax),%xmm5
 804d9eb:	08 
 804d9ec:	c5 cd 76 f6          	vpcmpeqd %ymm6,%ymm6,%ymm6
 804d9f0:	c4 e2 cd 90 3c 2d 08 	vpgatherdq %ymm6,0x8060808(,%xmm5,1),%ymm7
 804d9f7:	08 06 08 
 804d9fa:	c5 f9 76 ed          	vpcmpeqd %xmm5,%xmm0,%xmm5
 804d9fe:	c4 e2 7d 25 ed       	vpmovsxdq %xmm5,%ymm5
 804da03:	c5 d5 db ef          	vpand  %ymm7,%ymm5,%ymm5
 804da07:	c5 fa 6f b0 dc 33 06 	vmovdqu 0x80633dc(%eax),%xmm6
 804da0e:	08 
 804da0f:	c5 e5 d4 dd          	vpaddq %ymm5,%ymm3,%ymm3
 804da13:	c5 d5 76 ed          	vpcmpeqd %ymm5,%ymm5,%ymm5
 804da17:	c5 f5 d4 cb          	vpaddq %ymm3,%ymm1,%ymm1
 804da1b:	c4 e2 d5 90 1c 35 08 	vpgatherdq %ymm5,0x8060808(,%xmm6,1),%ymm3
 804da22:	08 06 08 
 804da25:	c5 f9 76 ee          	vpcmpeqd %xmm6,%xmm0,%xmm5
 804da29:	c4 e2 7d 25 ed       	vpmovsxdq %xmm5,%ymm5
 804da2e:	c5 d5 db db          	vpand  %ymm3,%ymm5,%ymm3
 804da32:	c5 dd d4 db          	vpaddq %ymm3,%ymm4,%ymm3
 804da36:	c5 ed d4 d3          	vpaddq %ymm3,%ymm2,%ymm2
 804da3a:	85 c0                	test   %eax,%eax
 804da3c:	74 56                	je     804da94 <main+0x4874>
 804da3e:	c5 fa 6f 98 ec 33 06 	vmovdqu 0x80633ec(%eax),%xmm3
 804da45:	08 
 804da46:	c5 fa 6f a0 fc 33 06 	vmovdqu 0x80633fc(%eax),%xmm4
 804da4d:	08 
 804da4e:	c5 d5 76 ed          	vpcmpeqd %ymm5,%ymm5,%ymm5
 804da52:	c4 e2 d5 90 34 1d 08 	vpgatherdq %ymm5,0x8060808(,%xmm3,1),%ymm6
 804da59:	08 06 08 
 804da5c:	c5 d5 76 ed          	vpcmpeqd %ymm5,%ymm5,%ymm5
 804da60:	c4 e2 d5 90 3c 25 08 	vpgatherdq %ymm5,0x8060808(,%xmm4,1),%ymm7
 804da67:	08 06 08 
 804da6a:	c5 f9 76 db          	vpcmpeqd %xmm3,%xmm0,%xmm3
 804da6e:	c4 e2 7d 25 db       	vpmovsxdq %xmm3,%ymm3
 804da73:	c5 e5 db de          	vpand  %ymm6,%ymm3,%ymm3
 804da77:	c5 f9 76 e4          	vpcmpeqd %xmm4,%xmm0,%xmm4
 804da7b:	c4 e2 7d 25 e4       	vpmovsxdq %xmm4,%ymm4
 804da80:	c5 dd db e7          	vpand  %ymm7,%ymm4,%ymm4
 804da84:	c5 e5 d4 c9          	vpaddq %ymm1,%ymm3,%ymm1
 804da88:	c5 dd d4 d2          	vpaddq %ymm2,%ymm4,%ymm2
 804da8c:	83 e8 80             	sub    $0xffffff80,%eax
 804da8f:	e9 bc fe ff ff       	jmp    804d950 <main+0x4730>
 804da94:	c5 ed d4 c1          	vpaddq %ymm1,%ymm2,%ymm0
 804da98:	c4 e3 7d 39 c1 01    	vextracti128 $0x1,%ymm0,%xmm1
 804da9e:	c5 f9 d4 c1          	vpaddq %xmm1,%xmm0,%xmm0
 804daa2:	c5 f9 70 c8 ee       	vpshufd $0xee,%xmm0,%xmm1
 804daa7:	c5 f9 d4 c1          	vpaddq %xmm1,%xmm0,%xmm0
 804daab:	c4 e3 79 16 c0 01    	vpextrd $0x1,%xmm0,%eax
 804dab1:	c5 f9 7e c1          	vmovd  %xmm0,%ecx
 804dab5:	31 ff                	xor    %edi,%edi
 804dab7:	89 d5                	mov    %edx,%ebp
 804dab9:	81 fa c8 07 00 00    	cmp    $0x7c8,%edx
 804dabf:	ba 00 00 00 00       	mov    $0x0,%edx
 804dac4:	be a2 fb b2 10       	mov    $0x10b2fba2,%esi
 804dac9:	0f 44 d6             	cmove  %esi,%edx
 804dacc:	be 00 00 00 00       	mov    $0x0,%esi
 804dad1:	bb eb 79 82 49       	mov    $0x498279eb,%ebx
 804dad6:	0f 44 f3             	cmove  %ebx,%esi
 804dad9:	01 ce                	add    %ecx,%esi
 804dadb:	11 c2                	adc    %eax,%edx
 804dadd:	81 fd d0 07 00 00    	cmp    $0x7d0,%ebp
 804dae3:	b8 00 00 00 00       	mov    $0x0,%eax
 804dae8:	b9 80 9d 3a ba       	mov    $0xba3a9d80,%ecx
 804daed:	0f 44 c1             	cmove  %ecx,%eax
 804daf0:	b9 00 00 00 00       	mov    $0x0,%ecx
 804daf5:	bb 27 74 e9 a7       	mov    $0xa7e97427,%ebx
 804dafa:	0f 44 cb             	cmove  %ebx,%ecx
 804dafd:	01 f1                	add    %esi,%ecx
 804daff:	11 d0                	adc    %edx,%eax
 804db01:	81 fd d8 07 00 00    	cmp    $0x7d8,%ebp
 804db07:	ba 00 00 00 00       	mov    $0x0,%edx
 804db0c:	be 4f d1 21 6e       	mov    $0x6e21d14f,%esi
 804db11:	0f 44 d6             	cmove  %esi,%edx
 804db14:	be 00 00 00 00       	mov    $0x0,%esi
 804db19:	bb bf 42 93 f0       	mov    $0xf09342bf,%ebx
 804db1e:	0f 44 f3             	cmove  %ebx,%esi
 804db21:	01 ce                	add    %ecx,%esi
 804db23:	11 c2                	adc    %eax,%edx
 804db25:	81 fd e0 07 00 00    	cmp    $0x7e0,%ebp
 804db2b:	b8 00 00 00 00       	mov    $0x0,%eax
 804db30:	b9 1f 21 7c 63       	mov    $0x637c211f,%ecx
 804db35:	0f 44 c1             	cmove  %ecx,%eax
 804db38:	b9 00 00 00 00       	mov    $0x0,%ecx
 804db3d:	bb 42 f8 d9 5d       	mov    $0x5dd9f842,%ebx
 804db42:	0f 44 cb             	cmove  %ebx,%ecx
 804db45:	01 f1                	add    %esi,%ecx
 804db47:	11 d0                	adc    %edx,%eax
 804db49:	81 fd e8 07 00 00    	cmp    $0x7e8,%ebp
 804db4f:	ba 00 00 00 00       	mov    $0x0,%edx
 804db54:	be ca 43 0f c5       	mov    $0xc50f43ca,%esi
 804db59:	0f 44 d6             	cmove  %esi,%edx
 804db5c:	be 00 00 00 00       	mov    $0x0,%esi
 804db61:	bb 86 1e 5d 4c       	mov    $0x4c5d1e86,%ebx
 804db66:	0f 44 f3             	cmove  %ebx,%esi
 804db69:	01 ce                	add    %ecx,%esi
 804db6b:	11 c2                	adc    %eax,%edx
 804db6d:	81 fd f0 07 00 00    	cmp    $0x7f0,%ebp
 804db73:	b8 00 00 00 00       	mov    $0x0,%eax
 804db78:	b9 aa e3 92 38       	mov    $0x3892e3aa,%ecx
 804db7d:	0f 44 c1             	cmove  %ecx,%eax
 804db80:	b9 00 00 00 00       	mov    $0x0,%ecx
 804db85:	bb db 39 da 71       	mov    $0x71da39db,%ebx
 804db8a:	0f 44 cb             	cmove  %ebx,%ecx
 804db8d:	01 f1                	add    %esi,%ecx
 804db8f:	11 d0                	adc    %edx,%eax
 804db91:	81 fd f8 07 00 00    	cmp    $0x7f8,%ebp
 804db97:	be 00 00 00 00       	mov    $0x0,%esi
 804db9c:	ba 42 c6 15 57       	mov    $0x5715c642,%edx
 804dba1:	0f 44 f2             	cmove  %edx,%esi
 804dba4:	ba 91 2a ec d3       	mov    $0xd3ec2a91,%edx
 804dba9:	0f 44 fa             	cmove  %edx,%edi
 804dbac:	01 cf                	add    %ecx,%edi
 804dbae:	89 bc 24 80 01 00 00 	mov    %edi,0x180(%esp)
 804dbb5:	11 c6                	adc    %eax,%esi
 804dbb7:	89 74 24 10          	mov    %esi,0x10(%esp)
 804dbbb:	8b 44 24 20          	mov    0x20(%esp),%eax
 804dbbf:	c1 e8 15             	shr    $0x15,%eax
 804dbc2:	83 e0 f8             	and    $0xfffffff8,%eax
 804dbc5:	c5 f9 6e c0          	vmovd  %eax,%xmm0
 804dbc9:	c4 e2 79 58 c0       	vpbroadcastd %xmm0,%xmm0
 804dbce:	c5 f1 ef c9          	vpxor  %xmm1,%xmm1,%xmm1
 804dbd2:	b9 80 fc ff ff       	mov    $0xfffffc80,%ecx
 804dbd7:	c5 e9 ef d2          	vpxor  %xmm2,%xmm2,%xmm2
 804dbdb:	0f 1f 44 00 00       	nopl   0x0(%eax,%eax,1)
 804dbe0:	c5 fa 6f 99 8c 33 06 	vmovdqu 0x806338c(%ecx),%xmm3
 804dbe7:	08 
 804dbe8:	c5 fa 6f a1 9c 33 06 	vmovdqu 0x806339c(%ecx),%xmm4
 804dbef:	08 
 804dbf0:	c5 d5 76 ed          	vpcmpeqd %ymm5,%ymm5,%ymm5
 804dbf4:	c4 e2 d5 90 34 1d 08 	vpgatherdq %ymm5,0x8061008(,%xmm3,1),%ymm6
 804dbfb:	10 06 08 
 804dbfe:	c5 d5 76 ed          	vpcmpeqd %ymm5,%ymm5,%ymm5
 804dc02:	c4 e2 d5 90 3c 25 08 	vpgatherdq %ymm5,0x8061008(,%xmm4,1),%ymm7
 804dc09:	10 06 08 
 804dc0c:	c5 f9 76 db          	vpcmpeqd %xmm3,%xmm0,%xmm3
 804dc10:	c4 e2 7d 25 db       	vpmovsxdq %xmm3,%ymm3
 804dc15:	c5 e5 db de          	vpand  %ymm6,%ymm3,%ymm3
 804dc19:	c5 e5 d4 c9          	vpaddq %ymm1,%ymm3,%ymm1
 804dc1d:	c5 f9 76 dc          	vpcmpeqd %xmm4,%xmm0,%xmm3
 804dc21:	c4 e2 7d 25 db       	vpmovsxdq %xmm3,%ymm3
 804dc26:	c5 e5 db df          	vpand  %ymm7,%ymm3,%ymm3
 804dc2a:	c5 e5 d4 d2          	vpaddq %ymm2,%ymm3,%ymm2
 804dc2e:	c5 fa 6f 99 ac 33 06 	vmovdqu 0x80633ac(%ecx),%xmm3
 804dc35:	08 
 804dc36:	c5 fa 6f a1 bc 33 06 	vmovdqu 0x80633bc(%ecx),%xmm4
 804dc3d:	08 
 804dc3e:	c5 d5 76 ed          	vpcmpeqd %ymm5,%ymm5,%ymm5
 804dc42:	c4 e2 d5 90 34 1d 08 	vpgatherdq %ymm5,0x8061008(,%xmm3,1),%ymm6
 804dc49:	10 06 08 
 804dc4c:	c5 d5 76 ed          	vpcmpeqd %ymm5,%ymm5,%ymm5
 804dc50:	c4 e2 d5 90 3c 25 08 	vpgatherdq %ymm5,0x8061008(,%xmm4,1),%ymm7
 804dc57:	10 06 08 
 804dc5a:	c5 f9 76 db          	vpcmpeqd %xmm3,%xmm0,%xmm3
 804dc5e:	c4 e2 7d 25 db       	vpmovsxdq %xmm3,%ymm3
 804dc63:	c5 e5 db de          	vpand  %ymm6,%ymm3,%ymm3
 804dc67:	c5 f9 76 e4          	vpcmpeqd %xmm4,%xmm0,%xmm4
 804dc6b:	c4 e2 7d 25 e4       	vpmovsxdq %xmm4,%ymm4
 804dc70:	c5 dd db e7          	vpand  %ymm7,%ymm4,%ymm4
 804dc74:	c5 fa 6f a9 cc 33 06 	vmovdqu 0x80633cc(%ecx),%xmm5
 804dc7b:	08 
 804dc7c:	c5 cd 76 f6          	vpcmpeqd %ymm6,%ymm6,%ymm6
 804dc80:	c4 e2 cd 90 3c 2d 08 	vpgatherdq %ymm6,0x8061008(,%xmm5,1),%ymm7
 804dc87:	10 06 08 
 804dc8a:	c5 f9 76 ed          	vpcmpeqd %xmm5,%xmm0,%xmm5
 804dc8e:	c4 e2 7d 25 ed       	vpmovsxdq %xmm5,%ymm5
 804dc93:	c5 d5 db ef          	vpand  %ymm7,%ymm5,%ymm5
 804dc97:	c5 fa 6f b1 dc 33 06 	vmovdqu 0x80633dc(%ecx),%xmm6
 804dc9e:	08 
 804dc9f:	c5 e5 d4 dd          	vpaddq %ymm5,%ymm3,%ymm3
 804dca3:	c5 d5 76 ed          	vpcmpeqd %ymm5,%ymm5,%ymm5
 804dca7:	c5 f5 d4 cb          	vpaddq %ymm3,%ymm1,%ymm1
 804dcab:	c4 e2 d5 90 1c 35 08 	vpgatherdq %ymm5,0x8061008(,%xmm6,1),%ymm3
 804dcb2:	10 06 08 
 804dcb5:	c5 f9 76 ee          	vpcmpeqd %xmm6,%xmm0,%xmm5
 804dcb9:	c4 e2 7d 25 ed       	vpmovsxdq %xmm5,%ymm5
 804dcbe:	c5 d5 db db          	vpand  %ymm3,%ymm5,%ymm3
 804dcc2:	c5 dd d4 db          	vpaddq %ymm3,%ymm4,%ymm3
 804dcc6:	c5 ed d4 d3          	vpaddq %ymm3,%ymm2,%ymm2
 804dcca:	85 c9                	test   %ecx,%ecx
 804dccc:	74 56                	je     804dd24 <main+0x4b04>
 804dcce:	c5 fa 6f 99 ec 33 06 	vmovdqu 0x80633ec(%ecx),%xmm3
 804dcd5:	08 
 804dcd6:	c5 fa 6f a1 fc 33 06 	vmovdqu 0x80633fc(%ecx),%xmm4
 804dcdd:	08 
 804dcde:	c5 d5 76 ed          	vpcmpeqd %ymm5,%ymm5,%ymm5
 804dce2:	c4 e2 d5 90 34 1d 08 	vpgatherdq %ymm5,0x8061008(,%xmm3,1),%ymm6
 804dce9:	10 06 08 
 804dcec:	c5 d5 76 ed          	vpcmpeqd %ymm5,%ymm5,%ymm5
 804dcf0:	c4 e2 d5 90 3c 25 08 	vpgatherdq %ymm5,0x8061008(,%xmm4,1),%ymm7
 804dcf7:	10 06 08 
 804dcfa:	c5 f9 76 db          	vpcmpeqd %xmm3,%xmm0,%xmm3
 804dcfe:	c4 e2 7d 25 db       	vpmovsxdq %xmm3,%ymm3
 804dd03:	c5 e5 db de          	vpand  %ymm6,%ymm3,%ymm3
 804dd07:	c5 f9 76 e4          	vpcmpeqd %xmm4,%xmm0,%xmm4
 804dd0b:	c4 e2 7d 25 e4       	vpmovsxdq %xmm4,%ymm4
 804dd10:	c5 dd db e7          	vpand  %ymm7,%ymm4,%ymm4
 804dd14:	c5 e5 d4 c9          	vpaddq %ymm1,%ymm3,%ymm1
 804dd18:	c5 dd d4 d2          	vpaddq %ymm2,%ymm4,%ymm2
 804dd1c:	83 e9 80             	sub    $0xffffff80,%ecx
 804dd1f:	e9 bc fe ff ff       	jmp    804dbe0 <main+0x49c0>
 804dd24:	c5 ed d4 c1          	vpaddq %ymm1,%ymm2,%ymm0
 804dd28:	c4 e3 7d 39 c1 01    	vextracti128 $0x1,%ymm0,%xmm1
 804dd2e:	c5 f9 d4 c1          	vpaddq %xmm1,%xmm0,%xmm0
 804dd32:	c5 f9 70 c8 ee       	vpshufd $0xee,%xmm0,%xmm1
 804dd37:	c5 f9 d4 c1          	vpaddq %xmm1,%xmm0,%xmm0
 804dd3b:	c4 e3 79 16 c1 01    	vpextrd $0x1,%xmm0,%ecx
 804dd41:	c5 f9 7e c2          	vmovd  %xmm0,%edx
 804dd45:	31 ed                	xor    %ebp,%ebp
 804dd47:	3d c8 07 00 00       	cmp    $0x7c8,%eax
 804dd4c:	be 00 00 00 00       	mov    $0x0,%esi
 804dd51:	bf 49 82 79 eb       	mov    $0xeb798249,%edi
 804dd56:	0f 44 f7             	cmove  %edi,%esi
 804dd59:	bf 00 00 00 00       	mov    $0x0,%edi
 804dd5e:	bb 10 b2 fb a2       	mov    $0xa2fbb210,%ebx
 804dd63:	0f 44 fb             	cmove  %ebx,%edi
 804dd66:	01 d7                	add    %edx,%edi
 804dd68:	11 ce                	adc    %ecx,%esi
 804dd6a:	3d d0 07 00 00       	cmp    $0x7d0,%eax
 804dd6f:	b9 00 00 00 00       	mov    $0x0,%ecx
 804dd74:	ba a7 e9 74 27       	mov    $0x2774e9a7,%edx
 804dd79:	0f 44 ca             	cmove  %edx,%ecx
 804dd7c:	ba 00 00 00 00       	mov    $0x0,%edx
 804dd81:	bb ba 3a 9d 80       	mov    $0x809d3aba,%ebx
 804dd86:	0f 44 d3             	cmove  %ebx,%edx
 804dd89:	01 fa                	add    %edi,%edx
 804dd8b:	11 f1                	adc    %esi,%ecx
 804dd8d:	3d d8 07 00 00       	cmp    $0x7d8,%eax
 804dd92:	be 00 00 00 00       	mov    $0x0,%esi
 804dd97:	bf f0 93 42 bf       	mov    $0xbf4293f0,%edi
 804dd9c:	0f 44 f7             	cmove  %edi,%esi
 804dd9f:	bf 00 00 00 00       	mov    $0x0,%edi
 804dda4:	bb 6e 21 d1 4f       	mov    $0x4fd1216e,%ebx
 804dda9:	0f 44 fb             	cmove  %ebx,%edi
 804ddac:	01 d7                	add    %edx,%edi
 804ddae:	11 ce                	adc    %ecx,%esi
 804ddb0:	3d e0 07 00 00       	cmp    $0x7e0,%eax
 804ddb5:	b9 00 00 00 00       	mov    $0x0,%ecx
 804ddba:	ba 5d d9 f8 42       	mov    $0x42f8d95d,%edx
 804ddbf:	0f 44 ca             	cmove  %edx,%ecx
 804ddc2:	ba 00 00 00 00       	mov    $0x0,%edx
 804ddc7:	bb 63 7c 21 1f       	mov    $0x1f217c63,%ebx
 804ddcc:	0f 44 d3             	cmove  %ebx,%edx
 804ddcf:	01 fa                	add    %edi,%edx
 804ddd1:	11 f1                	adc    %esi,%ecx
 804ddd3:	3d e8 07 00 00       	cmp    $0x7e8,%eax
 804ddd8:	be 00 00 00 00       	mov    $0x0,%esi
 804dddd:	bf 4c 5d 1e 86       	mov    $0x861e5d4c,%edi
 804dde2:	0f 44 f7             	cmove  %edi,%esi
 804dde5:	bf 00 00 00 00       	mov    $0x0,%edi
 804ddea:	bb c5 0f 43 ca       	mov    $0xca430fc5,%ebx
 804ddef:	0f 44 fb             	cmove  %ebx,%edi
 804ddf2:	01 d7                	add    %edx,%edi
 804ddf4:	11 ce                	adc    %ecx,%esi
 804ddf6:	3d f0 07 00 00       	cmp    $0x7f0,%eax
 804ddfb:	b9 00 00 00 00       	mov    $0x0,%ecx
 804de00:	ba 71 da 39 db       	mov    $0xdb39da71,%edx
 804de05:	0f 44 ca             	cmove  %edx,%ecx
 804de08:	ba 00 00 00 00       	mov    $0x0,%edx
 804de0d:	bb 38 92 e3 aa       	mov    $0xaae39238,%ebx
 804de12:	0f 44 d3             	cmove  %ebx,%edx
 804de15:	01 fa                	add    %edi,%edx
 804de17:	11 f1                	adc    %esi,%ecx
 804de19:	3d f8 07 00 00       	cmp    $0x7f8,%eax
 804de1e:	be 00 00 00 00       	mov    $0x0,%esi
 804de23:	b8 d3 ec 2a 91       	mov    $0x912aecd3,%eax
 804de28:	0f 44 f0             	cmove  %eax,%esi
 804de2b:	b8 57 15 c6 42       	mov    $0x42c61557,%eax
 804de30:	0f 44 e8             	cmove  %eax,%ebp
 804de33:	01 d5                	add    %edx,%ebp
 804de35:	89 ac 24 60 01 00 00 	mov    %ebp,0x160(%esp)
 804de3c:	11 ce                	adc    %ecx,%esi
 804de3e:	89 b4 24 e0 01 00 00 	mov    %esi,0x1e0(%esp)
 804de45:	8b 4c 24 20          	mov    0x20(%esp),%ecx
 804de49:	c1 e9 0d             	shr    $0xd,%ecx
 804de4c:	81 e1 f8 07 00 00    	and    $0x7f8,%ecx
 804de52:	c5 f9 6e c1          	vmovd  %ecx,%xmm0
 804de56:	c4 e2 79 58 c0       	vpbroadcastd %xmm0,%xmm0
 804de5b:	c5 f1 ef c9          	vpxor  %xmm1,%xmm1,%xmm1
 804de5f:	b8 80 fc ff ff       	mov    $0xfffffc80,%eax
 804de64:	c5 e9 ef d2          	vpxor  %xmm2,%xmm2,%xmm2
 804de68:	0f 1f 84 00 00 00 00 	nopl   0x0(%eax,%eax,1)
 804de6f:	00 
 804de70:	c5 fa 6f 98 8c 33 06 	vmovdqu 0x806338c(%eax),%xmm3
 804de77:	08 
 804de78:	c5 fa 6f a0 9c 33 06 	vmovdqu 0x806339c(%eax),%xmm4
 804de7f:	08 
 804de80:	c5 d5 76 ed          	vpcmpeqd %ymm5,%ymm5,%ymm5
