
mitigated:     file format elf32-i386


Disassembly of section .init:

08049000 <_init>:
 8049000:	f3 0f 1e fb          	endbr32 
 8049004:	53                   	push   %ebx
 8049005:	83 ec 08             	sub    $0x8,%esp
 8049008:	e8 b3 00 00 00       	call   80490c0 <__x86.get_pc_thunk.bx>
 804900d:	81 c3 f3 bf 01 00    	add    $0x1bff3,%ebx
 8049013:	8b 83 fc ff ff ff    	mov    -0x4(%ebx),%eax
 8049019:	85 c0                	test   %eax,%eax
 804901b:	74 02                	je     804901f <_init+0x1f>
 804901d:	ff d0                	call   *%eax
 804901f:	83 c4 08             	add    $0x8,%esp
 8049022:	5b                   	pop    %ebx
 8049023:	c3                   	ret    

Disassembly of section .plt:

08049030 <.plt>:
 8049030:	ff 35 04 50 06 08    	pushl  0x8065004
 8049036:	ff 25 08 50 06 08    	jmp    *0x8065008
 804903c:	00 00                	add    %al,(%eax)
	...

08049040 <read@plt>:
 8049040:	ff 25 0c 50 06 08    	jmp    *0x806500c
 8049046:	68 00 00 00 00       	push   $0x0
 804904b:	e9 e0 ff ff ff       	jmp    8049030 <.plt>

08049050 <__libc_start_main@plt>:
 8049050:	ff 25 10 50 06 08    	jmp    *0x8065010
 8049056:	68 08 00 00 00       	push   $0x8
 804905b:	e9 d0 ff ff ff       	jmp    8049030 <.plt>

08049060 <write@plt>:
 8049060:	ff 25 14 50 06 08    	jmp    *0x8065014
 8049066:	68 10 00 00 00       	push   $0x10
 804906b:	e9 c0 ff ff ff       	jmp    8049030 <.plt>

Disassembly of section .text:

08049070 <_start>:
 8049070:	f3 0f 1e fb          	endbr32 
 8049074:	31 ed                	xor    %ebp,%ebp
 8049076:	5e                   	pop    %esi
 8049077:	89 e1                	mov    %esp,%ecx
 8049079:	83 e4 f0             	and    $0xfffffff0,%esp
 804907c:	50                   	push   %eax
 804907d:	54                   	push   %esp
 804907e:	52                   	push   %edx
 804907f:	e8 23 00 00 00       	call   80490a7 <_start+0x37>
 8049084:	81 c3 7c bf 01 00    	add    $0x1bf7c,%ebx
 804908a:	8d 83 00 91 ff ff    	lea    -0x6f00(%ebx),%eax
 8049090:	50                   	push   %eax
 8049091:	8d 83 90 90 ff ff    	lea    -0x6f70(%ebx),%eax
 8049097:	50                   	push   %eax
 8049098:	51                   	push   %ecx
 8049099:	56                   	push   %esi
 804909a:	c7 c0 20 92 04 08    	mov    $0x8049220,%eax
 80490a0:	50                   	push   %eax
 80490a1:	e8 aa ff ff ff       	call   8049050 <__libc_start_main@plt>
 80490a6:	f4                   	hlt    
 80490a7:	8b 1c 24             	mov    (%esp),%ebx
 80490aa:	c3                   	ret    
 80490ab:	66 90                	xchg   %ax,%ax
 80490ad:	66 90                	xchg   %ax,%ax
 80490af:	90                   	nop

080490b0 <_dl_relocate_static_pie>:
 80490b0:	f3 0f 1e fb          	endbr32 
 80490b4:	c3                   	ret    
 80490b5:	66 90                	xchg   %ax,%ax
 80490b7:	66 90                	xchg   %ax,%ax
 80490b9:	66 90                	xchg   %ax,%ax
 80490bb:	66 90                	xchg   %ax,%ax
 80490bd:	66 90                	xchg   %ax,%ax
 80490bf:	90                   	nop

080490c0 <__x86.get_pc_thunk.bx>:
 80490c0:	8b 1c 24             	mov    (%esp),%ebx
 80490c3:	c3                   	ret    
 80490c4:	66 90                	xchg   %ax,%ax
 80490c6:	66 90                	xchg   %ax,%ax
 80490c8:	66 90                	xchg   %ax,%ax
 80490ca:	66 90                	xchg   %ax,%ax
 80490cc:	66 90                	xchg   %ax,%ax
 80490ce:	66 90                	xchg   %ax,%ax

080490d0 <deregister_tm_clones>:
 80490d0:	b8 20 50 06 08       	mov    $0x8065020,%eax
 80490d5:	3d 20 50 06 08       	cmp    $0x8065020,%eax
 80490da:	74 24                	je     8049100 <deregister_tm_clones+0x30>
 80490dc:	b8 00 00 00 00       	mov    $0x0,%eax
 80490e1:	85 c0                	test   %eax,%eax
 80490e3:	74 1b                	je     8049100 <deregister_tm_clones+0x30>
 80490e5:	55                   	push   %ebp
 80490e6:	89 e5                	mov    %esp,%ebp
 80490e8:	83 ec 14             	sub    $0x14,%esp
 80490eb:	68 20 50 06 08       	push   $0x8065020
 80490f0:	ff d0                	call   *%eax
 80490f2:	83 c4 10             	add    $0x10,%esp
 80490f5:	c9                   	leave  
 80490f6:	c3                   	ret    
 80490f7:	8d b4 26 00 00 00 00 	lea    0x0(%esi,%eiz,1),%esi
 80490fe:	66 90                	xchg   %ax,%ax
 8049100:	c3                   	ret    
 8049101:	8d b4 26 00 00 00 00 	lea    0x0(%esi,%eiz,1),%esi
 8049108:	8d b4 26 00 00 00 00 	lea    0x0(%esi,%eiz,1),%esi
 804910f:	90                   	nop

08049110 <register_tm_clones>:
 8049110:	b8 20 50 06 08       	mov    $0x8065020,%eax
 8049115:	2d 20 50 06 08       	sub    $0x8065020,%eax
 804911a:	89 c2                	mov    %eax,%edx
 804911c:	c1 e8 1f             	shr    $0x1f,%eax
 804911f:	c1 fa 02             	sar    $0x2,%edx
 8049122:	01 d0                	add    %edx,%eax
 8049124:	d1 f8                	sar    %eax
 8049126:	74 20                	je     8049148 <register_tm_clones+0x38>
 8049128:	ba 00 00 00 00       	mov    $0x0,%edx
 804912d:	85 d2                	test   %edx,%edx
 804912f:	74 17                	je     8049148 <register_tm_clones+0x38>
 8049131:	55                   	push   %ebp
 8049132:	89 e5                	mov    %esp,%ebp
 8049134:	83 ec 10             	sub    $0x10,%esp
 8049137:	50                   	push   %eax
 8049138:	68 20 50 06 08       	push   $0x8065020
 804913d:	ff d2                	call   *%edx
 804913f:	83 c4 10             	add    $0x10,%esp
 8049142:	c9                   	leave  
 8049143:	c3                   	ret    
 8049144:	8d 74 26 00          	lea    0x0(%esi,%eiz,1),%esi
 8049148:	c3                   	ret    
 8049149:	8d b4 26 00 00 00 00 	lea    0x0(%esi,%eiz,1),%esi

08049150 <__do_global_dtors_aux>:
 8049150:	f3 0f 1e fb          	endbr32 
 8049154:	80 3d 20 50 06 08 00 	cmpb   $0x0,0x8065020
 804915b:	75 1b                	jne    8049178 <__do_global_dtors_aux+0x28>
 804915d:	55                   	push   %ebp
 804915e:	89 e5                	mov    %esp,%ebp
 8049160:	83 ec 08             	sub    $0x8,%esp
 8049163:	e8 68 ff ff ff       	call   80490d0 <deregister_tm_clones>
 8049168:	c6 05 20 50 06 08 01 	movb   $0x1,0x8065020
 804916f:	c9                   	leave  
 8049170:	c3                   	ret    
 8049171:	8d b4 26 00 00 00 00 	lea    0x0(%esi,%eiz,1),%esi
 8049178:	c3                   	ret    
 8049179:	8d b4 26 00 00 00 00 	lea    0x0(%esi,%eiz,1),%esi

08049180 <frame_dummy>:
 8049180:	f3 0f 1e fb          	endbr32 
 8049184:	eb 8a                	jmp    8049110 <register_tm_clones>
 8049186:	66 90                	xchg   %ax,%ax
 8049188:	66 90                	xchg   %ax,%ax
 804918a:	66 90                	xchg   %ax,%ax
 804918c:	66 90                	xchg   %ax,%ax
 804918e:	66 90                	xchg   %ax,%ax

08049190 <uint32_t_secure_load>:
 8049190:	8b 44 24 04          	mov    0x4(%esp),%eax
 8049194:	8b 00                	mov    (%eax),%eax
 8049196:	c3                   	ret    
 8049197:	66 0f 1f 84 00 00 00 	nopw   0x0(%eax,%eax,1)
 804919e:	00 00 

080491a0 <uint16_t_secure_load>:
 80491a0:	8b 44 24 04          	mov    0x4(%esp),%eax
 80491a4:	0f b7 00             	movzwl (%eax),%eax
 80491a7:	c3                   	ret    
 80491a8:	0f 1f 84 00 00 00 00 	nopl   0x0(%eax,%eax,1)
 80491af:	00 

080491b0 <uint8_t_secure_load>:
 80491b0:	8b 44 24 04          	mov    0x4(%esp),%eax
 80491b4:	8a 00                	mov    (%eax),%al
 80491b6:	c3                   	ret    
 80491b7:	66 0f 1f 84 00 00 00 	nopw   0x0(%eax,%eax,1)
 80491be:	00 00 

080491c0 <uint64_t_secure_store>:
 80491c0:	8b 44 24 04          	mov    0x4(%esp),%eax
 80491c4:	8b 4c 24 08          	mov    0x8(%esp),%ecx
 80491c8:	8b 54 24 0c          	mov    0xc(%esp),%edx
 80491cc:	89 4a 04             	mov    %ecx,0x4(%edx)
 80491cf:	89 02                	mov    %eax,(%edx)
 80491d1:	c3                   	ret    
 80491d2:	66 66 66 66 66 2e 0f 	data16 data16 data16 data16 nopw %cs:0x0(%eax,%eax,1)
 80491d9:	1f 84 00 00 00 00 00 

080491e0 <uint32_t_secure_store>:
 80491e0:	8b 44 24 04          	mov    0x4(%esp),%eax
 80491e4:	8b 4c 24 08          	mov    0x8(%esp),%ecx
 80491e8:	89 01                	mov    %eax,(%ecx)
 80491ea:	c3                   	ret    
 80491eb:	0f 1f 44 00 00       	nopl   0x0(%eax,%eax,1)

080491f0 <uint16_t_secure_store>:
 80491f0:	0f b7 44 24 04       	movzwl 0x4(%esp),%eax
 80491f5:	8b 4c 24 08          	mov    0x8(%esp),%ecx
 80491f9:	66 89 01             	mov    %ax,(%ecx)
 80491fc:	c3                   	ret    
 80491fd:	0f 1f 00             	nopl   (%eax)

08049200 <uint8_t_secure_store>:
 8049200:	8a 44 24 04          	mov    0x4(%esp),%al
 8049204:	8b 4c 24 08          	mov    0x8(%esp),%ecx
 8049208:	88 01                	mov    %al,(%ecx)
 804920a:	c3                   	ret    
 804920b:	0f 1f 44 00 00       	nopl   0x0(%eax,%eax,1)

08049210 <branch_id>:
 8049210:	c3                   	ret    
 8049211:	66 66 66 66 66 66 2e 	data16 data16 data16 data16 data16 nopw %cs:0x0(%eax,%eax,1)
 8049218:	0f 1f 84 00 00 00 00 
 804921f:	00 

08049220 <main>:
 8049220:	55                   	push   %ebp
 8049221:	53                   	push   %ebx
 8049222:	57                   	push   %edi
 8049223:	56                   	push   %esi
 8049224:	81 ec 70 02 00 00    	sub    $0x270,%esp
 804922a:	6a 20                	push   $0x20
 804922c:	68 28 50 06 08       	push   $0x8065028
 8049231:	6a 00                	push   $0x0
 8049233:	e8 08 fe ff ff       	call   8049040 <read@plt>
 8049238:	83 c4 0c             	add    $0xc,%esp
 804923b:	6a 40                	push   $0x40
 804923d:	68 48 50 06 08       	push   $0x8065048
 8049242:	6a 00                	push   $0x0
 8049244:	e8 f7 fd ff ff       	call   8049040 <read@plt>
 8049249:	83 c4 10             	add    $0x10,%esp
 804924c:	a1 2c 50 06 08       	mov    0x806502c,%eax
 8049251:	89 44 24 04          	mov    %eax,0x4(%esp)
 8049255:	a1 28 50 06 08       	mov    0x8065028,%eax
 804925a:	89 84 24 60 01 00 00 	mov    %eax,0x160(%esp)
 8049261:	a1 30 50 06 08       	mov    0x8065030,%eax
 8049266:	8b 0d 34 50 06 08    	mov    0x8065034,%ecx
 804926c:	89 8c 24 a0 00 00 00 	mov    %ecx,0xa0(%esp)
 8049273:	89 84 24 40 01 00 00 	mov    %eax,0x140(%esp)
 804927a:	c1 e8 15             	shr    $0x15,%eax
 804927d:	83 e0 f8             	and    $0xfffffff8,%eax
 8049280:	62 f2 7d 08 7c c0    	vpbroadcastd %eax,%xmm0
 8049286:	c5 e1 ef db          	vpxor  %xmm3,%xmm3,%xmm3
 804928a:	b9 80 fc ff ff       	mov    $0xfffffc80,%ecx
 804928f:	c5 f1 ef c9          	vpxor  %xmm1,%xmm1,%xmm1
 8049293:	66 66 66 66 2e 0f 1f 	data16 data16 data16 nopw %cs:0x0(%eax,%eax,1)
 804929a:	84 00 00 00 00 00 
 80492a0:	c5 fa 6f 91 8c 33 06 	vmovdqu 0x806338c(%ecx),%xmm2
 80492a7:	08 
 80492a8:	c5 fa 6f a1 9c 33 06 	vmovdqu 0x806339c(%ecx),%xmm4
 80492af:	08 
 80492b0:	c5 fc 46 c8          	kxnorw %k0,%k0,%k1
 80492b4:	62 f2 fd 29 90 2c 15 	vpgatherdq 0x805f008(,%xmm2,1),%ymm5{%k1}
 80492bb:	08 f0 05 08 
 80492bf:	c5 fc 46 c8          	kxnorw %k0,%k0,%k1
 80492c3:	62 f2 fd 29 90 34 25 	vpgatherdq 0x805f008(,%xmm4,1),%ymm6{%k1}
 80492ca:	08 f0 05 08 
 80492ce:	62 f1 7d 08 76 ca    	vpcmpeqd %xmm2,%xmm0,%k1
 80492d4:	62 f1 7d 08 76 d4    	vpcmpeqd %xmm4,%xmm0,%k2
 80492da:	62 f1 fd a9 6f d5    	vmovdqa64 %ymm5,%ymm2{%k1}{z}
 80492e0:	c5 ed d4 d3          	vpaddq %ymm3,%ymm2,%ymm2
 80492e4:	62 f1 fd aa 6f de    	vmovdqa64 %ymm6,%ymm3{%k2}{z}
 80492ea:	c5 fa 6f a1 ac 33 06 	vmovdqu 0x80633ac(%ecx),%xmm4
 80492f1:	08 
 80492f2:	c5 fa 6f a9 bc 33 06 	vmovdqu 0x80633bc(%ecx),%xmm5
 80492f9:	08 
 80492fa:	c5 fc 46 c8          	kxnorw %k0,%k0,%k1
 80492fe:	62 f2 fd 29 90 34 25 	vpgatherdq 0x805f008(,%xmm4,1),%ymm6{%k1}
 8049305:	08 f0 05 08 
 8049309:	c5 fc 46 c8          	kxnorw %k0,%k0,%k1
 804930d:	62 f2 fd 29 90 3c 2d 	vpgatherdq 0x805f008(,%xmm5,1),%ymm7{%k1}
 8049314:	08 f0 05 08 
 8049318:	c5 e5 d4 d9          	vpaddq %ymm1,%ymm3,%ymm3
 804931c:	62 f1 7d 08 76 cc    	vpcmpeqd %xmm4,%xmm0,%k1
 8049322:	62 f1 7d 08 76 d5    	vpcmpeqd %xmm5,%xmm0,%k2
 8049328:	c5 fa 6f 89 cc 33 06 	vmovdqu 0x80633cc(%ecx),%xmm1
 804932f:	08 
 8049330:	c5 fc 46 d8          	kxnorw %k0,%k0,%k3
 8049334:	62 f1 7d 08 76 e1    	vpcmpeqd %xmm1,%xmm0,%k4
 804933a:	62 f2 fd 2b 90 24 0d 	vpgatherdq 0x805f008(,%xmm1,1),%ymm4{%k3}
 8049341:	08 f0 05 08 
 8049345:	62 f1 fd a9 6f ce    	vmovdqa64 %ymm6,%ymm1{%k1}{z}
 804934b:	62 f1 fd ac 6f e4    	vmovdqa64 %ymm4,%ymm4{%k4}{z}
 8049351:	c5 f5 d4 cc          	vpaddq %ymm4,%ymm1,%ymm1
 8049355:	c5 fa 6f a1 dc 33 06 	vmovdqu 0x80633dc(%ecx),%xmm4
 804935c:	08 
 804935d:	c5 fc 46 c8          	kxnorw %k0,%k0,%k1
 8049361:	62 f1 7d 08 76 dc    	vpcmpeqd %xmm4,%xmm0,%k3
 8049367:	62 f2 fd 29 90 2c 25 	vpgatherdq 0x805f008(,%xmm4,1),%ymm5{%k1}
 804936e:	08 f0 05 08 
 8049372:	c5 ed d4 c9          	vpaddq %ymm1,%ymm2,%ymm1
 8049376:	62 f1 fd aa 6f d7    	vmovdqa64 %ymm7,%ymm2{%k2}{z}
 804937c:	62 f1 fd ab 6f e5    	vmovdqa64 %ymm5,%ymm4{%k3}{z}
 8049382:	c5 ed d4 d4          	vpaddq %ymm4,%ymm2,%ymm2
 8049386:	c5 e5 d4 d2          	vpaddq %ymm2,%ymm3,%ymm2
 804938a:	85 c9                	test   %ecx,%ecx
 804938c:	74 56                	je     80493e4 <main+0x1c4>
 804938e:	c5 fa 6f 99 ec 33 06 	vmovdqu 0x80633ec(%ecx),%xmm3
 8049395:	08 
 8049396:	c5 fa 6f a1 fc 33 06 	vmovdqu 0x80633fc(%ecx),%xmm4
 804939d:	08 
 804939e:	c5 fc 46 c8          	kxnorw %k0,%k0,%k1
 80493a2:	62 f2 fd 29 90 2c 1d 	vpgatherdq 0x805f008(,%xmm3,1),%ymm5{%k1}
 80493a9:	08 f0 05 08 
 80493ad:	c5 fc 46 c8          	kxnorw %k0,%k0,%k1
 80493b1:	62 f2 fd 29 90 34 25 	vpgatherdq 0x805f008(,%xmm4,1),%ymm6{%k1}
 80493b8:	08 f0 05 08 
 80493bc:	62 f1 7d 08 76 cb    	vpcmpeqd %xmm3,%xmm0,%k1
 80493c2:	62 f1 7d 08 76 d4    	vpcmpeqd %xmm4,%xmm0,%k2
 80493c8:	62 f1 fd a9 6f dd    	vmovdqa64 %ymm5,%ymm3{%k1}{z}
 80493ce:	62 f1 fd aa 6f e6    	vmovdqa64 %ymm6,%ymm4{%k2}{z}
 80493d4:	c5 e5 d4 d9          	vpaddq %ymm1,%ymm3,%ymm3
 80493d8:	c5 dd d4 ca          	vpaddq %ymm2,%ymm4,%ymm1
 80493dc:	83 e9 80             	sub    $0xffffff80,%ecx
 80493df:	e9 bc fe ff ff       	jmp    80492a0 <main+0x80>
 80493e4:	be 10 b2 fb a2       	mov    $0xa2fbb210,%esi
 80493e9:	bf 49 82 79 eb       	mov    $0xeb798249,%edi
 80493ee:	c5 ed d4 c1          	vpaddq %ymm1,%ymm2,%ymm0
 80493f2:	c4 e3 7d 39 c1 01    	vextracti128 $0x1,%ymm0,%xmm1
 80493f8:	c5 f9 d4 c1          	vpaddq %xmm1,%xmm0,%xmm0
 80493fc:	c5 f9 70 c8 ee       	vpshufd $0xee,%xmm0,%xmm1
 8049401:	c5 f9 d4 c1          	vpaddq %xmm1,%xmm0,%xmm0
 8049405:	c5 f9 7e c1          	vmovd  %xmm0,%ecx
 8049409:	31 ed                	xor    %ebp,%ebp
 804940b:	3d c8 07 00 00       	cmp    $0x7c8,%eax
 8049410:	ba 00 00 00 00       	mov    $0x0,%edx
 8049415:	0f 44 d6             	cmove  %esi,%edx
 8049418:	be 00 00 00 00       	mov    $0x0,%esi
 804941d:	0f 44 f7             	cmove  %edi,%esi
 8049420:	01 ce                	add    %ecx,%esi
 8049422:	c4 e3 79 16 c1 01    	vpextrd $0x1,%xmm0,%ecx
 8049428:	11 ca                	adc    %ecx,%edx
 804942a:	bf ba 3a 9d 80       	mov    $0x809d3aba,%edi
 804942f:	3d d0 07 00 00       	cmp    $0x7d0,%eax
 8049434:	b9 00 00 00 00       	mov    $0x0,%ecx
 8049439:	0f 44 cf             	cmove  %edi,%ecx
 804943c:	bb a7 e9 74 27       	mov    $0x2774e9a7,%ebx
 8049441:	bf 00 00 00 00       	mov    $0x0,%edi
 8049446:	0f 44 fb             	cmove  %ebx,%edi
 8049449:	01 f7                	add    %esi,%edi
 804944b:	11 d1                	adc    %edx,%ecx
 804944d:	3d d8 07 00 00       	cmp    $0x7d8,%eax
 8049452:	be 6e 21 d1 4f       	mov    $0x4fd1216e,%esi
 8049457:	ba 00 00 00 00       	mov    $0x0,%edx
 804945c:	0f 44 d6             	cmove  %esi,%edx
 804945f:	bb f0 93 42 bf       	mov    $0xbf4293f0,%ebx
 8049464:	be 00 00 00 00       	mov    $0x0,%esi
 8049469:	0f 44 f3             	cmove  %ebx,%esi
 804946c:	01 fe                	add    %edi,%esi
 804946e:	11 ca                	adc    %ecx,%edx
 8049470:	3d e0 07 00 00       	cmp    $0x7e0,%eax
 8049475:	bf 63 7c 21 1f       	mov    $0x1f217c63,%edi
 804947a:	b9 00 00 00 00       	mov    $0x0,%ecx
 804947f:	0f 44 cf             	cmove  %edi,%ecx
 8049482:	bb 5d d9 f8 42       	mov    $0x42f8d95d,%ebx
 8049487:	bf 00 00 00 00       	mov    $0x0,%edi
 804948c:	0f 44 fb             	cmove  %ebx,%edi
 804948f:	01 f7                	add    %esi,%edi
 8049491:	11 d1                	adc    %edx,%ecx
 8049493:	3d e8 07 00 00       	cmp    $0x7e8,%eax
 8049498:	be c5 0f 43 ca       	mov    $0xca430fc5,%esi
 804949d:	ba 00 00 00 00       	mov    $0x0,%edx
 80494a2:	0f 44 d6             	cmove  %esi,%edx
 80494a5:	bb 4c 5d 1e 86       	mov    $0x861e5d4c,%ebx
 80494aa:	be 00 00 00 00       	mov    $0x0,%esi
 80494af:	0f 44 f3             	cmove  %ebx,%esi
 80494b2:	01 fe                	add    %edi,%esi
 80494b4:	11 ca                	adc    %ecx,%edx
 80494b6:	3d f0 07 00 00       	cmp    $0x7f0,%eax
 80494bb:	bf 38 92 e3 aa       	mov    $0xaae39238,%edi
 80494c0:	b9 00 00 00 00       	mov    $0x0,%ecx
 80494c5:	0f 44 cf             	cmove  %edi,%ecx
 80494c8:	bb 71 da 39 db       	mov    $0xdb39da71,%ebx
 80494cd:	bf 00 00 00 00       	mov    $0x0,%edi
 80494d2:	0f 44 fb             	cmove  %ebx,%edi
 80494d5:	01 f7                	add    %esi,%edi
 80494d7:	11 d1                	adc    %edx,%ecx
 80494d9:	3d f8 07 00 00       	cmp    $0x7f8,%eax
 80494de:	b8 57 15 c6 42       	mov    $0x42c61557,%eax
 80494e3:	ba 00 00 00 00       	mov    $0x0,%edx
 80494e8:	0f 44 d0             	cmove  %eax,%edx
 80494eb:	b8 d3 ec 2a 91       	mov    $0x912aecd3,%eax
 80494f0:	0f 44 e8             	cmove  %eax,%ebp
 80494f3:	01 fd                	add    %edi,%ebp
 80494f5:	89 6c 24 20          	mov    %ebp,0x20(%esp)
 80494f9:	11 ca                	adc    %ecx,%edx
 80494fb:	89 54 24 60          	mov    %edx,0x60(%esp)
 80494ff:	8b 84 24 40 01 00 00 	mov    0x140(%esp),%eax
 8049506:	c1 e8 0d             	shr    $0xd,%eax
 8049509:	25 f8 07 00 00       	and    $0x7f8,%eax
 804950e:	62 f2 7d 08 7c c0    	vpbroadcastd %eax,%xmm0
 8049514:	c5 e1 ef db          	vpxor  %xmm3,%xmm3,%xmm3
 8049518:	c5 f1 ef c9          	vpxor  %xmm1,%xmm1,%xmm1
 804951c:	b9 80 fc ff ff       	mov    $0xfffffc80,%ecx
 8049521:	66 66 66 66 66 66 2e 	data16 data16 data16 data16 data16 nopw %cs:0x0(%eax,%eax,1)
 8049528:	0f 1f 84 00 00 00 00 
 804952f:	00 
 8049530:	c5 fa 6f 91 8c 33 06 	vmovdqu 0x806338c(%ecx),%xmm2
 8049537:	08 
 8049538:	c5 fa 6f a1 9c 33 06 	vmovdqu 0x806339c(%ecx),%xmm4
 804953f:	08 
 8049540:	c5 fc 46 c8          	kxnorw %k0,%k0,%k1
 8049544:	62 f2 fd 29 90 2c 15 	vpgatherdq 0x805f808(,%xmm2,1),%ymm5{%k1}
 804954b:	08 f8 05 08 
 804954f:	c5 fc 46 c8          	kxnorw %k0,%k0,%k1
 8049553:	62 f2 fd 29 90 34 25 	vpgatherdq 0x805f808(,%xmm4,1),%ymm6{%k1}
 804955a:	08 f8 05 08 
 804955e:	62 f1 7d 08 76 ca    	vpcmpeqd %xmm2,%xmm0,%k1
 8049564:	62 f1 7d 08 76 d4    	vpcmpeqd %xmm4,%xmm0,%k2
 804956a:	62 f1 fd a9 6f d5    	vmovdqa64 %ymm5,%ymm2{%k1}{z}
 8049570:	c5 ed d4 d3          	vpaddq %ymm3,%ymm2,%ymm2
 8049574:	62 f1 fd aa 6f de    	vmovdqa64 %ymm6,%ymm3{%k2}{z}
 804957a:	c5 fa 6f a1 ac 33 06 	vmovdqu 0x80633ac(%ecx),%xmm4
 8049581:	08 
 8049582:	c5 fa 6f a9 bc 33 06 	vmovdqu 0x80633bc(%ecx),%xmm5
 8049589:	08 
 804958a:	c5 fc 46 c8          	kxnorw %k0,%k0,%k1
 804958e:	62 f2 fd 29 90 34 25 	vpgatherdq 0x805f808(,%xmm4,1),%ymm6{%k1}
 8049595:	08 f8 05 08 
 8049599:	c5 fc 46 c8          	kxnorw %k0,%k0,%k1
 804959d:	62 f2 fd 29 90 3c 2d 	vpgatherdq 0x805f808(,%xmm5,1),%ymm7{%k1}
 80495a4:	08 f8 05 08 
 80495a8:	c5 e5 d4 d9          	vpaddq %ymm1,%ymm3,%ymm3
 80495ac:	62 f1 7d 08 76 cc    	vpcmpeqd %xmm4,%xmm0,%k1
 80495b2:	62 f1 7d 08 76 d5    	vpcmpeqd %xmm5,%xmm0,%k2
 80495b8:	c5 fa 6f 89 cc 33 06 	vmovdqu 0x80633cc(%ecx),%xmm1
 80495bf:	08 
 80495c0:	c5 fc 46 d8          	kxnorw %k0,%k0,%k3
 80495c4:	62 f1 7d 08 76 e1    	vpcmpeqd %xmm1,%xmm0,%k4
 80495ca:	62 f2 fd 2b 90 24 0d 	vpgatherdq 0x805f808(,%xmm1,1),%ymm4{%k3}
 80495d1:	08 f8 05 08 
 80495d5:	62 f1 fd a9 6f ce    	vmovdqa64 %ymm6,%ymm1{%k1}{z}
 80495db:	62 f1 fd ac 6f e4    	vmovdqa64 %ymm4,%ymm4{%k4}{z}
 80495e1:	c5 f5 d4 cc          	vpaddq %ymm4,%ymm1,%ymm1
 80495e5:	c5 fa 6f a1 dc 33 06 	vmovdqu 0x80633dc(%ecx),%xmm4
 80495ec:	08 
 80495ed:	c5 fc 46 c8          	kxnorw %k0,%k0,%k1
 80495f1:	62 f1 7d 08 76 dc    	vpcmpeqd %xmm4,%xmm0,%k3
 80495f7:	62 f2 fd 29 90 2c 25 	vpgatherdq 0x805f808(,%xmm4,1),%ymm5{%k1}
 80495fe:	08 f8 05 08 
 8049602:	c5 ed d4 c9          	vpaddq %ymm1,%ymm2,%ymm1
 8049606:	62 f1 fd aa 6f d7    	vmovdqa64 %ymm7,%ymm2{%k2}{z}
 804960c:	62 f1 fd ab 6f e5    	vmovdqa64 %ymm5,%ymm4{%k3}{z}
 8049612:	c5 ed d4 d4          	vpaddq %ymm4,%ymm2,%ymm2
 8049616:	c5 e5 d4 d2          	vpaddq %ymm2,%ymm3,%ymm2
 804961a:	85 c9                	test   %ecx,%ecx
 804961c:	74 56                	je     8049674 <main+0x454>
 804961e:	c5 fa 6f 99 ec 33 06 	vmovdqu 0x80633ec(%ecx),%xmm3
 8049625:	08 
 8049626:	c5 fa 6f a1 fc 33 06 	vmovdqu 0x80633fc(%ecx),%xmm4
 804962d:	08 
 804962e:	c5 fc 46 c8          	kxnorw %k0,%k0,%k1
 8049632:	62 f2 fd 29 90 2c 1d 	vpgatherdq 0x805f808(,%xmm3,1),%ymm5{%k1}
 8049639:	08 f8 05 08 
 804963d:	c5 fc 46 c8          	kxnorw %k0,%k0,%k1
 8049641:	62 f2 fd 29 90 34 25 	vpgatherdq 0x805f808(,%xmm4,1),%ymm6{%k1}
 8049648:	08 f8 05 08 
 804964c:	62 f1 7d 08 76 cb    	vpcmpeqd %xmm3,%xmm0,%k1
 8049652:	62 f1 7d 08 76 d4    	vpcmpeqd %xmm4,%xmm0,%k2
 8049658:	62 f1 fd a9 6f dd    	vmovdqa64 %ymm5,%ymm3{%k1}{z}
 804965e:	62 f1 fd aa 6f e6    	vmovdqa64 %ymm6,%ymm4{%k2}{z}
 8049664:	c5 e5 d4 d9          	vpaddq %ymm1,%ymm3,%ymm3
 8049668:	c5 dd d4 ca          	vpaddq %ymm2,%ymm4,%ymm1
 804966c:	83 e9 80             	sub    $0xffffff80,%ecx
 804966f:	e9 bc fe ff ff       	jmp    8049530 <main+0x310>
 8049674:	be b2 10 a2 fb       	mov    $0xfba210b2,%esi
 8049679:	bf 82 49 eb 79       	mov    $0x79eb4982,%edi
 804967e:	c5 ed d4 c1          	vpaddq %ymm1,%ymm2,%ymm0
 8049682:	c4 e3 7d 39 c1 01    	vextracti128 $0x1,%ymm0,%xmm1
 8049688:	c5 f9 d4 c1          	vpaddq %xmm1,%xmm0,%xmm0
 804968c:	c5 f9 70 c8 ee       	vpshufd $0xee,%xmm0,%xmm1
 8049691:	c5 f9 d4 c1          	vpaddq %xmm1,%xmm0,%xmm0
 8049695:	c5 f9 7e c1          	vmovd  %xmm0,%ecx
 8049699:	31 ed                	xor    %ebp,%ebp
 804969b:	3d c8 07 00 00       	cmp    $0x7c8,%eax
 80496a0:	ba 00 00 00 00       	mov    $0x0,%edx
 80496a5:	0f 44 d6             	cmove  %esi,%edx
 80496a8:	be 00 00 00 00       	mov    $0x0,%esi
 80496ad:	0f 44 f7             	cmove  %edi,%esi
 80496b0:	01 ce                	add    %ecx,%esi
 80496b2:	c4 e3 79 16 c1 01    	vpextrd $0x1,%xmm0,%ecx
 80496b8:	11 ca                	adc    %ecx,%edx
 80496ba:	bf 3a ba 80 9d       	mov    $0x9d80ba3a,%edi
 80496bf:	3d d0 07 00 00       	cmp    $0x7d0,%eax
 80496c4:	b9 00 00 00 00       	mov    $0x0,%ecx
 80496c9:	0f 44 cf             	cmove  %edi,%ecx
 80496cc:	bb e9 a7 27 74       	mov    $0x7427a7e9,%ebx
 80496d1:	bf 00 00 00 00       	mov    $0x0,%edi
 80496d6:	0f 44 fb             	cmove  %ebx,%edi
 80496d9:	01 f7                	add    %esi,%edi
 80496db:	11 d1                	adc    %edx,%ecx
 80496dd:	3d d8 07 00 00       	cmp    $0x7d8,%eax
 80496e2:	be 21 6e 4f d1       	mov    $0xd14f6e21,%esi
 80496e7:	ba 00 00 00 00       	mov    $0x0,%edx
 80496ec:	0f 44 d6             	cmove  %esi,%edx
 80496ef:	bb 93 f0 bf 42       	mov    $0x42bff093,%ebx
 80496f4:	be 00 00 00 00       	mov    $0x0,%esi
 80496f9:	0f 44 f3             	cmove  %ebx,%esi
 80496fc:	01 fe                	add    %edi,%esi
 80496fe:	11 ca                	adc    %ecx,%edx
 8049700:	3d e0 07 00 00       	cmp    $0x7e0,%eax
 8049705:	bf 7c 63 1f 21       	mov    $0x211f637c,%edi
 804970a:	b9 00 00 00 00       	mov    $0x0,%ecx
 804970f:	0f 44 cf             	cmove  %edi,%ecx
 8049712:	bb d9 5d 42 f8       	mov    $0xf8425dd9,%ebx
 8049717:	bf 00 00 00 00       	mov    $0x0,%edi
 804971c:	0f 44 fb             	cmove  %ebx,%edi
 804971f:	01 f7                	add    %esi,%edi
 8049721:	11 d1                	adc    %edx,%ecx
 8049723:	3d e8 07 00 00       	cmp    $0x7e8,%eax
 8049728:	be 0f c5 ca 43       	mov    $0x43cac50f,%esi
 804972d:	ba 00 00 00 00       	mov    $0x0,%edx
 8049732:	0f 44 d6             	cmove  %esi,%edx
 8049735:	bb 5d 4c 86 1e       	mov    $0x1e864c5d,%ebx
 804973a:	be 00 00 00 00       	mov    $0x0,%esi
 804973f:	0f 44 f3             	cmove  %ebx,%esi
 8049742:	01 fe                	add    %edi,%esi
 8049744:	11 ca                	adc    %ecx,%edx
 8049746:	3d f0 07 00 00       	cmp    $0x7f0,%eax
 804974b:	bf 92 38 aa e3       	mov    $0xe3aa3892,%edi
 8049750:	b9 00 00 00 00       	mov    $0x0,%ecx
 8049755:	0f 44 cf             	cmove  %edi,%ecx
 8049758:	bb da 71 db 39       	mov    $0x39db71da,%ebx
 804975d:	bf 00 00 00 00       	mov    $0x0,%edi
 8049762:	0f 44 fb             	cmove  %ebx,%edi
 8049765:	01 f7                	add    %esi,%edi
 8049767:	11 d1                	adc    %edx,%ecx
 8049769:	3d f8 07 00 00       	cmp    $0x7f8,%eax
 804976e:	b8 15 57 42 c6       	mov    $0xc6425715,%eax
 8049773:	ba 00 00 00 00       	mov    $0x0,%edx
 8049778:	0f 44 d0             	cmove  %eax,%edx
 804977b:	b8 ec d3 91 2a       	mov    $0x2a91d3ec,%eax
 8049780:	0f 44 e8             	cmove  %eax,%ebp
 8049783:	01 fd                	add    %edi,%ebp
 8049785:	89 ac 24 e0 00 00 00 	mov    %ebp,0xe0(%esp)
 804978c:	11 ca                	adc    %ecx,%edx
 804978e:	89 94 24 20 01 00 00 	mov    %edx,0x120(%esp)
 8049795:	8b 84 24 40 01 00 00 	mov    0x140(%esp),%eax
 804979c:	c1 e8 05             	shr    $0x5,%eax
 804979f:	25 f8 07 00 00       	and    $0x7f8,%eax
 80497a4:	62 f2 7d 08 7c c0    	vpbroadcastd %eax,%xmm0
 80497aa:	c5 e1 ef db          	vpxor  %xmm3,%xmm3,%xmm3
 80497ae:	c5 f1 ef c9          	vpxor  %xmm1,%xmm1,%xmm1
 80497b2:	b9 80 fc ff ff       	mov    $0xfffffc80,%ecx
 80497b7:	66 0f 1f 84 00 00 00 	nopw   0x0(%eax,%eax,1)
 80497be:	00 00 
 80497c0:	c5 fa 6f 91 8c 33 06 	vmovdqu 0x806338c(%ecx),%xmm2
 80497c7:	08 
 80497c8:	c5 fa 6f a1 9c 33 06 	vmovdqu 0x806339c(%ecx),%xmm4
 80497cf:	08 
 80497d0:	c5 fc 46 c8          	kxnorw %k0,%k0,%k1
 80497d4:	62 f2 fd 29 90 2c 15 	vpgatherdq 0x8060008(,%xmm2,1),%ymm5{%k1}
 80497db:	08 00 06 08 
 80497df:	c5 fc 46 c8          	kxnorw %k0,%k0,%k1
 80497e3:	62 f2 fd 29 90 34 25 	vpgatherdq 0x8060008(,%xmm4,1),%ymm6{%k1}
 80497ea:	08 00 06 08 
 80497ee:	62 f1 7d 08 76 ca    	vpcmpeqd %xmm2,%xmm0,%k1
 80497f4:	62 f1 7d 08 76 d4    	vpcmpeqd %xmm4,%xmm0,%k2
 80497fa:	62 f1 fd a9 6f d5    	vmovdqa64 %ymm5,%ymm2{%k1}{z}
 8049800:	c5 ed d4 d3          	vpaddq %ymm3,%ymm2,%ymm2
 8049804:	62 f1 fd aa 6f de    	vmovdqa64 %ymm6,%ymm3{%k2}{z}
 804980a:	c5 fa 6f a1 ac 33 06 	vmovdqu 0x80633ac(%ecx),%xmm4
 8049811:	08 
 8049812:	c5 fa 6f a9 bc 33 06 	vmovdqu 0x80633bc(%ecx),%xmm5
 8049819:	08 
 804981a:	c5 fc 46 c8          	kxnorw %k0,%k0,%k1
 804981e:	62 f2 fd 29 90 34 25 	vpgatherdq 0x8060008(,%xmm4,1),%ymm6{%k1}
 8049825:	08 00 06 08 
 8049829:	c5 fc 46 c8          	kxnorw %k0,%k0,%k1
 804982d:	62 f2 fd 29 90 3c 2d 	vpgatherdq 0x8060008(,%xmm5,1),%ymm7{%k1}
 8049834:	08 00 06 08 
 8049838:	c5 e5 d4 d9          	vpaddq %ymm1,%ymm3,%ymm3
 804983c:	62 f1 7d 08 76 cc    	vpcmpeqd %xmm4,%xmm0,%k1
 8049842:	62 f1 7d 08 76 d5    	vpcmpeqd %xmm5,%xmm0,%k2
 8049848:	c5 fa 6f 89 cc 33 06 	vmovdqu 0x80633cc(%ecx),%xmm1
 804984f:	08 
 8049850:	c5 fc 46 d8          	kxnorw %k0,%k0,%k3
 8049854:	62 f1 7d 08 76 e1    	vpcmpeqd %xmm1,%xmm0,%k4
 804985a:	62 f2 fd 2b 90 24 0d 	vpgatherdq 0x8060008(,%xmm1,1),%ymm4{%k3}
 8049861:	08 00 06 08 
 8049865:	62 f1 fd a9 6f ce    	vmovdqa64 %ymm6,%ymm1{%k1}{z}
 804986b:	62 f1 fd ac 6f e4    	vmovdqa64 %ymm4,%ymm4{%k4}{z}
 8049871:	c5 f5 d4 cc          	vpaddq %ymm4,%ymm1,%ymm1
 8049875:	c5 fa 6f a1 dc 33 06 	vmovdqu 0x80633dc(%ecx),%xmm4
 804987c:	08 
 804987d:	c5 fc 46 c8          	kxnorw %k0,%k0,%k1
 8049881:	62 f1 7d 08 76 dc    	vpcmpeqd %xmm4,%xmm0,%k3
 8049887:	62 f2 fd 29 90 2c 25 	vpgatherdq 0x8060008(,%xmm4,1),%ymm5{%k1}
 804988e:	08 00 06 08 
 8049892:	c5 ed d4 c9          	vpaddq %ymm1,%ymm2,%ymm1
 8049896:	62 f1 fd aa 6f d7    	vmovdqa64 %ymm7,%ymm2{%k2}{z}
 804989c:	62 f1 fd ab 6f e5    	vmovdqa64 %ymm5,%ymm4{%k3}{z}
 80498a2:	c5 ed d4 d4          	vpaddq %ymm4,%ymm2,%ymm2
 80498a6:	c5 e5 d4 d2          	vpaddq %ymm2,%ymm3,%ymm2
 80498aa:	85 c9                	test   %ecx,%ecx
 80498ac:	74 56                	je     8049904 <main+0x6e4>
 80498ae:	c5 fa 6f 99 ec 33 06 	vmovdqu 0x80633ec(%ecx),%xmm3
 80498b5:	08 
 80498b6:	c5 fa 6f a1 fc 33 06 	vmovdqu 0x80633fc(%ecx),%xmm4
 80498bd:	08 
 80498be:	c5 fc 46 c8          	kxnorw %k0,%k0,%k1
 80498c2:	62 f2 fd 29 90 2c 1d 	vpgatherdq 0x8060008(,%xmm3,1),%ymm5{%k1}
 80498c9:	08 00 06 08 
 80498cd:	c5 fc 46 c8          	kxnorw %k0,%k0,%k1
 80498d1:	62 f2 fd 29 90 34 25 	vpgatherdq 0x8060008(,%xmm4,1),%ymm6{%k1}
 80498d8:	08 00 06 08 
 80498dc:	62 f1 7d 08 76 cb    	vpcmpeqd %xmm3,%xmm0,%k1
 80498e2:	62 f1 7d 08 76 d4    	vpcmpeqd %xmm4,%xmm0,%k2
 80498e8:	62 f1 fd a9 6f dd    	vmovdqa64 %ymm5,%ymm3{%k1}{z}
 80498ee:	62 f1 fd aa 6f e6    	vmovdqa64 %ymm6,%ymm4{%k2}{z}
 80498f4:	c5 e5 d4 d9          	vpaddq %ymm1,%ymm3,%ymm3
 80498f8:	c5 dd d4 ca          	vpaddq %ymm2,%ymm4,%ymm1
 80498fc:	83 e9 80             	sub    $0xffffff80,%ecx
 80498ff:	e9 bc fe ff ff       	jmp    80497c0 <main+0x5a0>
 8049904:	be fb a2 10 b2       	mov    $0xb210a2fb,%esi
 8049909:	bf 79 eb 49 82       	mov    $0x8249eb79,%edi
 804990e:	c5 ed d4 c1          	vpaddq %ymm1,%ymm2,%ymm0
 8049912:	c4 e3 7d 39 c1 01    	vextracti128 $0x1,%ymm0,%xmm1
 8049918:	c5 f9 d4 c1          	vpaddq %xmm1,%xmm0,%xmm0
 804991c:	c5 f9 70 c8 ee       	vpshufd $0xee,%xmm0,%xmm1
 8049921:	c5 f9 d4 c1          	vpaddq %xmm1,%xmm0,%xmm0
 8049925:	c5 f9 7e c1          	vmovd  %xmm0,%ecx
 8049929:	31 ed                	xor    %ebp,%ebp
 804992b:	3d c8 07 00 00       	cmp    $0x7c8,%eax
 8049930:	ba 00 00 00 00       	mov    $0x0,%edx
 8049935:	0f 44 d6             	cmove  %esi,%edx
 8049938:	be 00 00 00 00       	mov    $0x0,%esi
 804993d:	0f 44 f7             	cmove  %edi,%esi
 8049940:	01 ce                	add    %ecx,%esi
 8049942:	c4 e3 79 16 c1 01    	vpextrd $0x1,%xmm0,%ecx
 8049948:	11 ca                	adc    %ecx,%edx
 804994a:	bf 9d 80 ba 3a       	mov    $0x3aba809d,%edi
 804994f:	3d d0 07 00 00       	cmp    $0x7d0,%eax
 8049954:	b9 00 00 00 00       	mov    $0x0,%ecx
 8049959:	0f 44 cf             	cmove  %edi,%ecx
 804995c:	bb 74 27 a7 e9       	mov    $0xe9a72774,%ebx
 8049961:	bf 00 00 00 00       	mov    $0x0,%edi
 8049966:	0f 44 fb             	cmove  %ebx,%edi
 8049969:	01 f7                	add    %esi,%edi
 804996b:	11 d1                	adc    %edx,%ecx
 804996d:	3d d8 07 00 00       	cmp    $0x7d8,%eax
 8049972:	be d1 4f 6e 21       	mov    $0x216e4fd1,%esi
 8049977:	ba 00 00 00 00       	mov    $0x0,%edx
 804997c:	0f 44 d6             	cmove  %esi,%edx
 804997f:	bb 42 bf f0 93       	mov    $0x93f0bf42,%ebx
 8049984:	be 00 00 00 00       	mov    $0x0,%esi
 8049989:	0f 44 f3             	cmove  %ebx,%esi
 804998c:	01 fe                	add    %edi,%esi
 804998e:	11 ca                	adc    %ecx,%edx
 8049990:	3d e0 07 00 00       	cmp    $0x7e0,%eax
 8049995:	bf 21 1f 63 7c       	mov    $0x7c631f21,%edi
 804999a:	b9 00 00 00 00       	mov    $0x0,%ecx
 804999f:	0f 44 cf             	cmove  %edi,%ecx
 80499a2:	bb f8 42 5d d9       	mov    $0xd95d42f8,%ebx
 80499a7:	bf 00 00 00 00       	mov    $0x0,%edi
 80499ac:	0f 44 fb             	cmove  %ebx,%edi
 80499af:	01 f7                	add    %esi,%edi
 80499b1:	11 d1                	adc    %edx,%ecx
 80499b3:	3d e8 07 00 00       	cmp    $0x7e8,%eax
 80499b8:	be 43 ca c5 0f       	mov    $0xfc5ca43,%esi
 80499bd:	ba 00 00 00 00       	mov    $0x0,%edx
 80499c2:	0f 44 d6             	cmove  %esi,%edx
 80499c5:	bb 1e 86 4c 5d       	mov    $0x5d4c861e,%ebx
 80499ca:	be 00 00 00 00       	mov    $0x0,%esi
 80499cf:	0f 44 f3             	cmove  %ebx,%esi
 80499d2:	01 fe                	add    %edi,%esi
 80499d4:	11 ca                	adc    %ecx,%edx
 80499d6:	3d f0 07 00 00       	cmp    $0x7f0,%eax
 80499db:	bf e3 aa 38 92       	mov    $0x9238aae3,%edi
 80499e0:	b9 00 00 00 00       	mov    $0x0,%ecx
 80499e5:	0f 44 cf             	cmove  %edi,%ecx
 80499e8:	bb 39 db 71 da       	mov    $0xda71db39,%ebx
 80499ed:	bf 00 00 00 00       	mov    $0x0,%edi
 80499f2:	0f 44 fb             	cmove  %ebx,%edi
 80499f5:	01 f7                	add    %esi,%edi
 80499f7:	11 d1                	adc    %edx,%ecx
 80499f9:	3d f8 07 00 00       	cmp    $0x7f8,%eax
 80499fe:	b8 c6 42 57 15       	mov    $0x155742c6,%eax
 8049a03:	ba 00 00 00 00       	mov    $0x0,%edx
 8049a08:	0f 44 d0             	cmove  %eax,%edx
 8049a0b:	b8 2a 91 d3 ec       	mov    $0xecd3912a,%eax
 8049a10:	0f 44 e8             	cmove  %eax,%ebp
 8049a13:	01 fd                	add    %edi,%ebp
 8049a15:	89 ac 24 00 01 00 00 	mov    %ebp,0x100(%esp)
 8049a1c:	11 ca                	adc    %ecx,%edx
 8049a1e:	89 54 24 14          	mov    %edx,0x14(%esp)
 8049a22:	0f b6 84 24 40 01 00 	movzbl 0x140(%esp),%eax
 8049a29:	00 
 8049a2a:	c1 e0 03             	shl    $0x3,%eax
 8049a2d:	62 f2 7d 08 7c c0    	vpbroadcastd %eax,%xmm0
 8049a33:	c5 e1 ef db          	vpxor  %xmm3,%xmm3,%xmm3
 8049a37:	c5 f1 ef c9          	vpxor  %xmm1,%xmm1,%xmm1
 8049a3b:	b9 80 fc ff ff       	mov    $0xfffffc80,%ecx
 8049a40:	c5 fa 6f 91 8c 33 06 	vmovdqu 0x806338c(%ecx),%xmm2
 8049a47:	08 
 8049a48:	c5 fa 6f a1 9c 33 06 	vmovdqu 0x806339c(%ecx),%xmm4
 8049a4f:	08 
 8049a50:	c5 fc 46 c8          	kxnorw %k0,%k0,%k1
 8049a54:	62 f2 fd 29 90 2c 15 	vpgatherdq 0x8060808(,%xmm2,1),%ymm5{%k1}
 8049a5b:	08 08 06 08 
 8049a5f:	c5 fc 46 c8          	kxnorw %k0,%k0,%k1
 8049a63:	62 f2 fd 29 90 34 25 	vpgatherdq 0x8060808(,%xmm4,1),%ymm6{%k1}
 8049a6a:	08 08 06 08 
 8049a6e:	62 f1 7d 08 76 ca    	vpcmpeqd %xmm2,%xmm0,%k1
 8049a74:	62 f1 7d 08 76 d4    	vpcmpeqd %xmm4,%xmm0,%k2
 8049a7a:	62 f1 fd a9 6f d5    	vmovdqa64 %ymm5,%ymm2{%k1}{z}
 8049a80:	c5 ed d4 d3          	vpaddq %ymm3,%ymm2,%ymm2
 8049a84:	62 f1 fd aa 6f de    	vmovdqa64 %ymm6,%ymm3{%k2}{z}
 8049a8a:	c5 fa 6f a1 ac 33 06 	vmovdqu 0x80633ac(%ecx),%xmm4
 8049a91:	08 
 8049a92:	c5 fa 6f a9 bc 33 06 	vmovdqu 0x80633bc(%ecx),%xmm5
 8049a99:	08 
 8049a9a:	c5 fc 46 c8          	kxnorw %k0,%k0,%k1
 8049a9e:	62 f2 fd 29 90 34 25 	vpgatherdq 0x8060808(,%xmm4,1),%ymm6{%k1}
 8049aa5:	08 08 06 08 
 8049aa9:	c5 fc 46 c8          	kxnorw %k0,%k0,%k1
 8049aad:	62 f2 fd 29 90 3c 2d 	vpgatherdq 0x8060808(,%xmm5,1),%ymm7{%k1}
 8049ab4:	08 08 06 08 
 8049ab8:	c5 e5 d4 d9          	vpaddq %ymm1,%ymm3,%ymm3
 8049abc:	62 f1 7d 08 76 cc    	vpcmpeqd %xmm4,%xmm0,%k1
 8049ac2:	62 f1 7d 08 76 d5    	vpcmpeqd %xmm5,%xmm0,%k2
 8049ac8:	c5 fa 6f 89 cc 33 06 	vmovdqu 0x80633cc(%ecx),%xmm1
 8049acf:	08 
 8049ad0:	c5 fc 46 d8          	kxnorw %k0,%k0,%k3
 8049ad4:	62 f1 7d 08 76 e1    	vpcmpeqd %xmm1,%xmm0,%k4
 8049ada:	62 f2 fd 2b 90 24 0d 	vpgatherdq 0x8060808(,%xmm1,1),%ymm4{%k3}
 8049ae1:	08 08 06 08 
 8049ae5:	62 f1 fd a9 6f ce    	vmovdqa64 %ymm6,%ymm1{%k1}{z}
 8049aeb:	62 f1 fd ac 6f e4    	vmovdqa64 %ymm4,%ymm4{%k4}{z}
 8049af1:	c5 f5 d4 cc          	vpaddq %ymm4,%ymm1,%ymm1
 8049af5:	c5 fa 6f a1 dc 33 06 	vmovdqu 0x80633dc(%ecx),%xmm4
 8049afc:	08 
 8049afd:	c5 fc 46 c8          	kxnorw %k0,%k0,%k1
 8049b01:	62 f1 7d 08 76 dc    	vpcmpeqd %xmm4,%xmm0,%k3
 8049b07:	62 f2 fd 29 90 2c 25 	vpgatherdq 0x8060808(,%xmm4,1),%ymm5{%k1}
 8049b0e:	08 08 06 08 
 8049b12:	c5 ed d4 c9          	vpaddq %ymm1,%ymm2,%ymm1
 8049b16:	62 f1 fd aa 6f d7    	vmovdqa64 %ymm7,%ymm2{%k2}{z}
 8049b1c:	62 f1 fd ab 6f e5    	vmovdqa64 %ymm5,%ymm4{%k3}{z}
 8049b22:	c5 ed d4 d4          	vpaddq %ymm4,%ymm2,%ymm2
 8049b26:	c5 e5 d4 d2          	vpaddq %ymm2,%ymm3,%ymm2
 8049b2a:	85 c9                	test   %ecx,%ecx
 8049b2c:	74 56                	je     8049b84 <main+0x964>
 8049b2e:	c5 fa 6f 99 ec 33 06 	vmovdqu 0x80633ec(%ecx),%xmm3
 8049b35:	08 
 8049b36:	c5 fa 6f a1 fc 33 06 	vmovdqu 0x80633fc(%ecx),%xmm4
 8049b3d:	08 
 8049b3e:	c5 fc 46 c8          	kxnorw %k0,%k0,%k1
 8049b42:	62 f2 fd 29 90 2c 1d 	vpgatherdq 0x8060808(,%xmm3,1),%ymm5{%k1}
 8049b49:	08 08 06 08 
 8049b4d:	c5 fc 46 c8          	kxnorw %k0,%k0,%k1
 8049b51:	62 f2 fd 29 90 34 25 	vpgatherdq 0x8060808(,%xmm4,1),%ymm6{%k1}
 8049b58:	08 08 06 08 
 8049b5c:	62 f1 7d 08 76 cb    	vpcmpeqd %xmm3,%xmm0,%k1
 8049b62:	62 f1 7d 08 76 d4    	vpcmpeqd %xmm4,%xmm0,%k2
 8049b68:	62 f1 fd a9 6f dd    	vmovdqa64 %ymm5,%ymm3{%k1}{z}
 8049b6e:	62 f1 fd aa 6f e6    	vmovdqa64 %ymm6,%ymm4{%k2}{z}
 8049b74:	c5 e5 d4 d9          	vpaddq %ymm1,%ymm3,%ymm3
 8049b78:	c5 dd d4 ca          	vpaddq %ymm2,%ymm4,%ymm1
 8049b7c:	83 e9 80             	sub    $0xffffff80,%ecx
 8049b7f:	e9 bc fe ff ff       	jmp    8049a40 <main+0x820>
 8049b84:	be a2 fb b2 10       	mov    $0x10b2fba2,%esi
 8049b89:	bf eb 79 82 49       	mov    $0x498279eb,%edi
 8049b8e:	c5 ed d4 c1          	vpaddq %ymm1,%ymm2,%ymm0
 8049b92:	c4 e3 7d 39 c1 01    	vextracti128 $0x1,%ymm0,%xmm1
 8049b98:	c5 f9 d4 c1          	vpaddq %xmm1,%xmm0,%xmm0
 8049b9c:	c5 f9 70 c8 ee       	vpshufd $0xee,%xmm0,%xmm1
 8049ba1:	c5 f9 d4 c1          	vpaddq %xmm1,%xmm0,%xmm0
 8049ba5:	c5 f9 7e c1          	vmovd  %xmm0,%ecx
 8049ba9:	31 ed                	xor    %ebp,%ebp
 8049bab:	3d c8 07 00 00       	cmp    $0x7c8,%eax
 8049bb0:	ba 00 00 00 00       	mov    $0x0,%edx
 8049bb5:	0f 44 d6             	cmove  %esi,%edx
 8049bb8:	be 00 00 00 00       	mov    $0x0,%esi
 8049bbd:	0f 44 f7             	cmove  %edi,%esi
 8049bc0:	01 ce                	add    %ecx,%esi
 8049bc2:	c4 e3 79 16 c1 01    	vpextrd $0x1,%xmm0,%ecx
 8049bc8:	11 ca                	adc    %ecx,%edx
 8049bca:	bf 80 9d 3a ba       	mov    $0xba3a9d80,%edi
 8049bcf:	3d d0 07 00 00       	cmp    $0x7d0,%eax
 8049bd4:	b9 00 00 00 00       	mov    $0x0,%ecx
 8049bd9:	0f 44 cf             	cmove  %edi,%ecx
 8049bdc:	bb 27 74 e9 a7       	mov    $0xa7e97427,%ebx
 8049be1:	bf 00 00 00 00       	mov    $0x0,%edi
 8049be6:	0f 44 fb             	cmove  %ebx,%edi
 8049be9:	01 f7                	add    %esi,%edi
 8049beb:	11 d1                	adc    %edx,%ecx
 8049bed:	3d d8 07 00 00       	cmp    $0x7d8,%eax
 8049bf2:	be 4f d1 21 6e       	mov    $0x6e21d14f,%esi
 8049bf7:	ba 00 00 00 00       	mov    $0x0,%edx
 8049bfc:	0f 44 d6             	cmove  %esi,%edx
 8049bff:	bb bf 42 93 f0       	mov    $0xf09342bf,%ebx
 8049c04:	be 00 00 00 00       	mov    $0x0,%esi
 8049c09:	0f 44 f3             	cmove  %ebx,%esi
 8049c0c:	01 fe                	add    %edi,%esi
 8049c0e:	11 ca                	adc    %ecx,%edx
 8049c10:	3d e0 07 00 00       	cmp    $0x7e0,%eax
 8049c15:	bf 1f 21 7c 63       	mov    $0x637c211f,%edi
 8049c1a:	b9 00 00 00 00       	mov    $0x0,%ecx
 8049c1f:	0f 44 cf             	cmove  %edi,%ecx
 8049c22:	bb 42 f8 d9 5d       	mov    $0x5dd9f842,%ebx
 8049c27:	bf 00 00 00 00       	mov    $0x0,%edi
 8049c2c:	0f 44 fb             	cmove  %ebx,%edi
 8049c2f:	01 f7                	add    %esi,%edi
 8049c31:	11 d1                	adc    %edx,%ecx
 8049c33:	3d e8 07 00 00       	cmp    $0x7e8,%eax
 8049c38:	be ca 43 0f c5       	mov    $0xc50f43ca,%esi
 8049c3d:	ba 00 00 00 00       	mov    $0x0,%edx
 8049c42:	0f 44 d6             	cmove  %esi,%edx
 8049c45:	bb 86 1e 5d 4c       	mov    $0x4c5d1e86,%ebx
 8049c4a:	be 00 00 00 00       	mov    $0x0,%esi
 8049c4f:	0f 44 f3             	cmove  %ebx,%esi
 8049c52:	01 fe                	add    %edi,%esi
 8049c54:	11 ca                	adc    %ecx,%edx
 8049c56:	3d f0 07 00 00       	cmp    $0x7f0,%eax
 8049c5b:	bf aa e3 92 38       	mov    $0x3892e3aa,%edi
 8049c60:	b9 00 00 00 00       	mov    $0x0,%ecx
 8049c65:	0f 44 cf             	cmove  %edi,%ecx
 8049c68:	bb db 39 da 71       	mov    $0x71da39db,%ebx
 8049c6d:	bf 00 00 00 00       	mov    $0x0,%edi
 8049c72:	0f 44 fb             	cmove  %ebx,%edi
 8049c75:	01 f7                	add    %esi,%edi
 8049c77:	11 d1                	adc    %edx,%ecx
 8049c79:	3d f8 07 00 00       	cmp    $0x7f8,%eax
 8049c7e:	b8 42 c6 15 57       	mov    $0x5715c642,%eax
 8049c83:	ba 00 00 00 00       	mov    $0x0,%edx
 8049c88:	0f 44 d0             	cmove  %eax,%edx
 8049c8b:	b8 91 2a ec d3       	mov    $0xd3ec2a91,%eax
 8049c90:	0f 44 e8             	cmove  %eax,%ebp
 8049c93:	01 fd                	add    %edi,%ebp
 8049c95:	89 6c 24 10          	mov    %ebp,0x10(%esp)
 8049c99:	11 ca                	adc    %ecx,%edx
 8049c9b:	89 54 24 0c          	mov    %edx,0xc(%esp)
 8049c9f:	8b 84 24 a0 00 00 00 	mov    0xa0(%esp),%eax
 8049ca6:	c1 e8 15             	shr    $0x15,%eax
 8049ca9:	83 e0 f8             	and    $0xfffffff8,%eax
 8049cac:	62 f2 7d 08 7c c0    	vpbroadcastd %eax,%xmm0
 8049cb2:	c5 e1 ef db          	vpxor  %xmm3,%xmm3,%xmm3
 8049cb6:	c5 f1 ef c9          	vpxor  %xmm1,%xmm1,%xmm1
 8049cba:	b9 80 fc ff ff       	mov    $0xfffffc80,%ecx
 8049cbf:	90                   	nop
 8049cc0:	c5 fa 6f 91 8c 33 06 	vmovdqu 0x806338c(%ecx),%xmm2
 8049cc7:	08 
 8049cc8:	c5 fa 6f a1 9c 33 06 	vmovdqu 0x806339c(%ecx),%xmm4
 8049ccf:	08 
 8049cd0:	c5 fc 46 c8          	kxnorw %k0,%k0,%k1
 8049cd4:	62 f2 fd 29 90 2c 15 	vpgatherdq 0x8061008(,%xmm2,1),%ymm5{%k1}
 8049cdb:	08 10 06 08 
 8049cdf:	c5 fc 46 c8          	kxnorw %k0,%k0,%k1
 8049ce3:	62 f2 fd 29 90 34 25 	vpgatherdq 0x8061008(,%xmm4,1),%ymm6{%k1}
 8049cea:	08 10 06 08 
 8049cee:	62 f1 7d 08 76 ca    	vpcmpeqd %xmm2,%xmm0,%k1
 8049cf4:	62 f1 7d 08 76 d4    	vpcmpeqd %xmm4,%xmm0,%k2
 8049cfa:	62 f1 fd a9 6f d5    	vmovdqa64 %ymm5,%ymm2{%k1}{z}
 8049d00:	c5 ed d4 d3          	vpaddq %ymm3,%ymm2,%ymm2
 8049d04:	62 f1 fd aa 6f de    	vmovdqa64 %ymm6,%ymm3{%k2}{z}
 8049d0a:	c5 fa 6f a1 ac 33 06 	vmovdqu 0x80633ac(%ecx),%xmm4
 8049d11:	08 
 8049d12:	c5 fa 6f a9 bc 33 06 	vmovdqu 0x80633bc(%ecx),%xmm5
 8049d19:	08 
 8049d1a:	c5 fc 46 c8          	kxnorw %k0,%k0,%k1
 8049d1e:	62 f2 fd 29 90 34 25 	vpgatherdq 0x8061008(,%xmm4,1),%ymm6{%k1}
 8049d25:	08 10 06 08 
 8049d29:	c5 fc 46 c8          	kxnorw %k0,%k0,%k1
 8049d2d:	62 f2 fd 29 90 3c 2d 	vpgatherdq 0x8061008(,%xmm5,1),%ymm7{%k1}
 8049d34:	08 10 06 08 
 8049d38:	c5 e5 d4 d9          	vpaddq %ymm1,%ymm3,%ymm3
 8049d3c:	62 f1 7d 08 76 cc    	vpcmpeqd %xmm4,%xmm0,%k1
 8049d42:	62 f1 7d 08 76 d5    	vpcmpeqd %xmm5,%xmm0,%k2
 8049d48:	c5 fa 6f 89 cc 33 06 	vmovdqu 0x80633cc(%ecx),%xmm1
 8049d4f:	08 
 8049d50:	c5 fc 46 d8          	kxnorw %k0,%k0,%k3
 8049d54:	62 f1 7d 08 76 e1    	vpcmpeqd %xmm1,%xmm0,%k4
 8049d5a:	62 f2 fd 2b 90 24 0d 	vpgatherdq 0x8061008(,%xmm1,1),%ymm4{%k3}
 8049d61:	08 10 06 08 
 8049d65:	62 f1 fd a9 6f ce    	vmovdqa64 %ymm6,%ymm1{%k1}{z}
 8049d6b:	62 f1 fd ac 6f e4    	vmovdqa64 %ymm4,%ymm4{%k4}{z}
 8049d71:	c5 f5 d4 cc          	vpaddq %ymm4,%ymm1,%ymm1
 8049d75:	c5 fa 6f a1 dc 33 06 	vmovdqu 0x80633dc(%ecx),%xmm4
 8049d7c:	08 
 8049d7d:	c5 fc 46 c8          	kxnorw %k0,%k0,%k1
 8049d81:	62 f1 7d 08 76 dc    	vpcmpeqd %xmm4,%xmm0,%k3
 8049d87:	62 f2 fd 29 90 2c 25 	vpgatherdq 0x8061008(,%xmm4,1),%ymm5{%k1}
 8049d8e:	08 10 06 08 
 8049d92:	c5 ed d4 c9          	vpaddq %ymm1,%ymm2,%ymm1
 8049d96:	62 f1 fd aa 6f d7    	vmovdqa64 %ymm7,%ymm2{%k2}{z}
 8049d9c:	62 f1 fd ab 6f e5    	vmovdqa64 %ymm5,%ymm4{%k3}{z}
 8049da2:	c5 ed d4 d4          	vpaddq %ymm4,%ymm2,%ymm2
 8049da6:	c5 e5 d4 d2          	vpaddq %ymm2,%ymm3,%ymm2
 8049daa:	85 c9                	test   %ecx,%ecx
 8049dac:	74 56                	je     8049e04 <main+0xbe4>
 8049dae:	c5 fa 6f 99 ec 33 06 	vmovdqu 0x80633ec(%ecx),%xmm3
 8049db5:	08 
 8049db6:	c5 fa 6f a1 fc 33 06 	vmovdqu 0x80633fc(%ecx),%xmm4
 8049dbd:	08 
 8049dbe:	c5 fc 46 c8          	kxnorw %k0,%k0,%k1
 8049dc2:	62 f2 fd 29 90 2c 1d 	vpgatherdq 0x8061008(,%xmm3,1),%ymm5{%k1}
 8049dc9:	08 10 06 08 
 8049dcd:	c5 fc 46 c8          	kxnorw %k0,%k0,%k1
 8049dd1:	62 f2 fd 29 90 34 25 	vpgatherdq 0x8061008(,%xmm4,1),%ymm6{%k1}
 8049dd8:	08 10 06 08 
 8049ddc:	62 f1 7d 08 76 cb    	vpcmpeqd %xmm3,%xmm0,%k1
 8049de2:	62 f1 7d 08 76 d4    	vpcmpeqd %xmm4,%xmm0,%k2
 8049de8:	62 f1 fd a9 6f dd    	vmovdqa64 %ymm5,%ymm3{%k1}{z}
 8049dee:	62 f1 fd aa 6f e6    	vmovdqa64 %ymm6,%ymm4{%k2}{z}
 8049df4:	c5 e5 d4 d9          	vpaddq %ymm1,%ymm3,%ymm3
 8049df8:	c5 dd d4 ca          	vpaddq %ymm2,%ymm4,%ymm1
 8049dfc:	83 e9 80             	sub    $0xffffff80,%ecx
 8049dff:	e9 bc fe ff ff       	jmp    8049cc0 <main+0xaa0>
 8049e04:	be 49 82 79 eb       	mov    $0xeb798249,%esi
 8049e09:	bf 10 b2 fb a2       	mov    $0xa2fbb210,%edi
 8049e0e:	c5 ed d4 c1          	vpaddq %ymm1,%ymm2,%ymm0
 8049e12:	c4 e3 7d 39 c1 01    	vextracti128 $0x1,%ymm0,%xmm1
 8049e18:	c5 f9 d4 c1          	vpaddq %xmm1,%xmm0,%xmm0
 8049e1c:	c5 f9 70 c8 ee       	vpshufd $0xee,%xmm0,%xmm1
 8049e21:	c5 f9 d4 c1          	vpaddq %xmm1,%xmm0,%xmm0
 8049e25:	c5 f9 7e c1          	vmovd  %xmm0,%ecx
 8049e29:	31 ed                	xor    %ebp,%ebp
 8049e2b:	3d c8 07 00 00       	cmp    $0x7c8,%eax
 8049e30:	ba 00 00 00 00       	mov    $0x0,%edx
 8049e35:	0f 44 d6             	cmove  %esi,%edx
 8049e38:	be 00 00 00 00       	mov    $0x0,%esi
 8049e3d:	0f 44 f7             	cmove  %edi,%esi
 8049e40:	01 ce                	add    %ecx,%esi
 8049e42:	c4 e3 79 16 c1 01    	vpextrd $0x1,%xmm0,%ecx
 8049e48:	11 ca                	adc    %ecx,%edx
 8049e4a:	bf a7 e9 74 27       	mov    $0x2774e9a7,%edi
 8049e4f:	3d d0 07 00 00       	cmp    $0x7d0,%eax
 8049e54:	b9 00 00 00 00       	mov    $0x0,%ecx
 8049e59:	0f 44 cf             	cmove  %edi,%ecx
 8049e5c:	bb ba 3a 9d 80       	mov    $0x809d3aba,%ebx
 8049e61:	bf 00 00 00 00       	mov    $0x0,%edi
 8049e66:	0f 44 fb             	cmove  %ebx,%edi
 8049e69:	01 f7                	add    %esi,%edi
 8049e6b:	11 d1                	adc    %edx,%ecx
 8049e6d:	3d d8 07 00 00       	cmp    $0x7d8,%eax
 8049e72:	be f0 93 42 bf       	mov    $0xbf4293f0,%esi
 8049e77:	ba 00 00 00 00       	mov    $0x0,%edx
 8049e7c:	0f 44 d6             	cmove  %esi,%edx
 8049e7f:	bb 6e 21 d1 4f       	mov    $0x4fd1216e,%ebx
 8049e84:	be 00 00 00 00       	mov    $0x0,%esi
 8049e89:	0f 44 f3             	cmove  %ebx,%esi
 8049e8c:	01 fe                	add    %edi,%esi
 8049e8e:	11 ca                	adc    %ecx,%edx
 8049e90:	3d e0 07 00 00       	cmp    $0x7e0,%eax
 8049e95:	bf 5d d9 f8 42       	mov    $0x42f8d95d,%edi
 8049e9a:	b9 00 00 00 00       	mov    $0x0,%ecx
 8049e9f:	0f 44 cf             	cmove  %edi,%ecx
 8049ea2:	bb 63 7c 21 1f       	mov    $0x1f217c63,%ebx
 8049ea7:	bf 00 00 00 00       	mov    $0x0,%edi
 8049eac:	0f 44 fb             	cmove  %ebx,%edi
 8049eaf:	01 f7                	add    %esi,%edi
 8049eb1:	11 d1                	adc    %edx,%ecx
 8049eb3:	3d e8 07 00 00       	cmp    $0x7e8,%eax
 8049eb8:	be 4c 5d 1e 86       	mov    $0x861e5d4c,%esi
 8049ebd:	ba 00 00 00 00       	mov    $0x0,%edx
 8049ec2:	0f 44 d6             	cmove  %esi,%edx
 8049ec5:	bb c5 0f 43 ca       	mov    $0xca430fc5,%ebx
 8049eca:	be 00 00 00 00       	mov    $0x0,%esi
 8049ecf:	0f 44 f3             	cmove  %ebx,%esi
 8049ed2:	01 fe                	add    %edi,%esi
 8049ed4:	11 ca                	adc    %ecx,%edx
 8049ed6:	3d f0 07 00 00       	cmp    $0x7f0,%eax
 8049edb:	bf 71 da 39 db       	mov    $0xdb39da71,%edi
 8049ee0:	b9 00 00 00 00       	mov    $0x0,%ecx
 8049ee5:	0f 44 cf             	cmove  %edi,%ecx
 8049ee8:	bb 38 92 e3 aa       	mov    $0xaae39238,%ebx
 8049eed:	bf 00 00 00 00       	mov    $0x0,%edi
 8049ef2:	0f 44 fb             	cmove  %ebx,%edi
 8049ef5:	01 f7                	add    %esi,%edi
 8049ef7:	11 d1                	adc    %edx,%ecx
 8049ef9:	3d f8 07 00 00       	cmp    $0x7f8,%eax
 8049efe:	b8 d3 ec 2a 91       	mov    $0x912aecd3,%eax
 8049f03:	ba 00 00 00 00       	mov    $0x0,%edx
 8049f08:	0f 44 d0             	cmove  %eax,%edx
 8049f0b:	b8 57 15 c6 42       	mov    $0x42c61557,%eax
 8049f10:	0f 44 e8             	cmove  %eax,%ebp
 8049f13:	01 fd                	add    %edi,%ebp
 8049f15:	89 6c 24 08          	mov    %ebp,0x8(%esp)
 8049f19:	11 ca                	adc    %ecx,%edx
 8049f1b:	89 54 24 18          	mov    %edx,0x18(%esp)
 8049f1f:	8b 84 24 a0 00 00 00 	mov    0xa0(%esp),%eax
 8049f26:	c1 e8 0d             	shr    $0xd,%eax
 8049f29:	25 f8 07 00 00       	and    $0x7f8,%eax
 8049f2e:	62 f2 7d 08 7c c0    	vpbroadcastd %eax,%xmm0
 8049f34:	c5 e1 ef db          	vpxor  %xmm3,%xmm3,%xmm3
 8049f38:	c5 f1 ef c9          	vpxor  %xmm1,%xmm1,%xmm1
 8049f3c:	b9 80 fc ff ff       	mov    $0xfffffc80,%ecx
 8049f41:	66 66 66 66 66 66 2e 	data16 data16 data16 data16 data16 nopw %cs:0x0(%eax,%eax,1)
 8049f48:	0f 1f 84 00 00 00 00 
 8049f4f:	00 
 8049f50:	c5 fa 6f 91 8c 33 06 	vmovdqu 0x806338c(%ecx),%xmm2
 8049f57:	08 
 8049f58:	c5 fa 6f a1 9c 33 06 	vmovdqu 0x806339c(%ecx),%xmm4
 8049f5f:	08 
 8049f60:	c5 fc 46 c8          	kxnorw %k0,%k0,%k1
 8049f64:	62 f2 fd 29 90 2c 15 	vpgatherdq 0x8061808(,%xmm2,1),%ymm5{%k1}
 8049f6b:	08 18 06 08 
 8049f6f:	c5 fc 46 c8          	kxnorw %k0,%k0,%k1
 8049f73:	62 f2 fd 29 90 34 25 	vpgatherdq 0x8061808(,%xmm4,1),%ymm6{%k1}
 8049f7a:	08 18 06 08 
 8049f7e:	62 f1 7d 08 76 ca    	vpcmpeqd %xmm2,%xmm0,%k1
 8049f84:	62 f1 7d 08 76 d4    	vpcmpeqd %xmm4,%xmm0,%k2
 8049f8a:	62 f1 fd a9 6f d5    	vmovdqa64 %ymm5,%ymm2{%k1}{z}
 8049f90:	c5 ed d4 d3          	vpaddq %ymm3,%ymm2,%ymm2
 8049f94:	62 f1 fd aa 6f de    	vmovdqa64 %ymm6,%ymm3{%k2}{z}
 8049f9a:	c5 fa 6f a1 ac 33 06 	vmovdqu 0x80633ac(%ecx),%xmm4
 8049fa1:	08 
 8049fa2:	c5 fa 6f a9 bc 33 06 	vmovdqu 0x80633bc(%ecx),%xmm5
 8049fa9:	08 
 8049faa:	c5 fc 46 c8          	kxnorw %k0,%k0,%k1
 8049fae:	62 f2 fd 29 90 34 25 	vpgatherdq 0x8061808(,%xmm4,1),%ymm6{%k1}
 8049fb5:	08 18 06 08 
 8049fb9:	c5 fc 46 c8          	kxnorw %k0,%k0,%k1
 8049fbd:	62 f2 fd 29 90 3c 2d 	vpgatherdq 0x8061808(,%xmm5,1),%ymm7{%k1}
 8049fc4:	08 18 06 08 
 8049fc8:	c5 e5 d4 d9          	vpaddq %ymm1,%ymm3,%ymm3
 8049fcc:	62 f1 7d 08 76 cc    	vpcmpeqd %xmm4,%xmm0,%k1
 8049fd2:	62 f1 7d 08 76 d5    	vpcmpeqd %xmm5,%xmm0,%k2
 8049fd8:	c5 fa 6f 89 cc 33 06 	vmovdqu 0x80633cc(%ecx),%xmm1
 8049fdf:	08 
 8049fe0:	c5 fc 46 d8          	kxnorw %k0,%k0,%k3
 8049fe4:	62 f1 7d 08 76 e1    	vpcmpeqd %xmm1,%xmm0,%k4
 8049fea:	62 f2 fd 2b 90 24 0d 	vpgatherdq 0x8061808(,%xmm1,1),%ymm4{%k3}
 8049ff1:	08 18 06 08 
 8049ff5:	62 f1 fd a9 6f ce    	vmovdqa64 %ymm6,%ymm1{%k1}{z}
 8049ffb:	62 f1 fd ac 6f e4    	vmovdqa64 %ymm4,%ymm4{%k4}{z}
 804a001:	c5 f5 d4 cc          	vpaddq %ymm4,%ymm1,%ymm1
 804a005:	c5 fa 6f a1 dc 33 06 	vmovdqu 0x80633dc(%ecx),%xmm4
 804a00c:	08 
 804a00d:	c5 fc 46 c8          	kxnorw %k0,%k0,%k1
 804a011:	62 f1 7d 08 76 dc    	vpcmpeqd %xmm4,%xmm0,%k3
 804a017:	62 f2 fd 29 90 2c 25 	vpgatherdq 0x8061808(,%xmm4,1),%ymm5{%k1}
 804a01e:	08 18 06 08 
 804a022:	c5 ed d4 c9          	vpaddq %ymm1,%ymm2,%ymm1
 804a026:	62 f1 fd aa 6f d7    	vmovdqa64 %ymm7,%ymm2{%k2}{z}
 804a02c:	62 f1 fd ab 6f e5    	vmovdqa64 %ymm5,%ymm4{%k3}{z}
 804a032:	c5 ed d4 d4          	vpaddq %ymm4,%ymm2,%ymm2
 804a036:	c5 e5 d4 d2          	vpaddq %ymm2,%ymm3,%ymm2
 804a03a:	85 c9                	test   %ecx,%ecx
 804a03c:	74 56                	je     804a094 <main+0xe74>
 804a03e:	c5 fa 6f 99 ec 33 06 	vmovdqu 0x80633ec(%ecx),%xmm3
 804a045:	08 
 804a046:	c5 fa 6f a1 fc 33 06 	vmovdqu 0x80633fc(%ecx),%xmm4
 804a04d:	08 
 804a04e:	c5 fc 46 c8          	kxnorw %k0,%k0,%k1
 804a052:	62 f2 fd 29 90 2c 1d 	vpgatherdq 0x8061808(,%xmm3,1),%ymm5{%k1}
 804a059:	08 18 06 08 
 804a05d:	c5 fc 46 c8          	kxnorw %k0,%k0,%k1
 804a061:	62 f2 fd 29 90 34 25 	vpgatherdq 0x8061808(,%xmm4,1),%ymm6{%k1}
 804a068:	08 18 06 08 
 804a06c:	62 f1 7d 08 76 cb    	vpcmpeqd %xmm3,%xmm0,%k1
 804a072:	62 f1 7d 08 76 d4    	vpcmpeqd %xmm4,%xmm0,%k2
 804a078:	62 f1 fd a9 6f dd    	vmovdqa64 %ymm5,%ymm3{%k1}{z}
 804a07e:	62 f1 fd aa 6f e6    	vmovdqa64 %ymm6,%ymm4{%k2}{z}
 804a084:	c5 e5 d4 d9          	vpaddq %ymm1,%ymm3,%ymm3
 804a088:	c5 dd d4 ca          	vpaddq %ymm2,%ymm4,%ymm1
 804a08c:	83 e9 80             	sub    $0xffffff80,%ecx
 804a08f:	e9 bc fe ff ff       	jmp    8049f50 <main+0xd30>
 804a094:	bf 82 49 eb 79       	mov    $0x79eb4982,%edi
 804a099:	ba b2 10 a2 fb       	mov    $0xfba210b2,%edx
 804a09e:	c5 ed d4 c1          	vpaddq %ymm1,%ymm2,%ymm0
 804a0a2:	c4 e3 7d 39 c1 01    	vextracti128 $0x1,%ymm0,%xmm1
 804a0a8:	c5 f9 d4 c1          	vpaddq %xmm1,%xmm0,%xmm0
 804a0ac:	c5 f9 70 c8 ee       	vpshufd $0xee,%xmm0,%xmm1
 804a0b1:	c5 f9 d4 c1          	vpaddq %xmm1,%xmm0,%xmm0
 804a0b5:	c5 f9 7e c1          	vmovd  %xmm0,%ecx
 804a0b9:	31 db                	xor    %ebx,%ebx
 804a0bb:	3d c8 07 00 00       	cmp    $0x7c8,%eax
 804a0c0:	be 00 00 00 00       	mov    $0x0,%esi
 804a0c5:	0f 44 f7             	cmove  %edi,%esi
 804a0c8:	bf 00 00 00 00       	mov    $0x0,%edi
 804a0cd:	0f 44 fa             	cmove  %edx,%edi
 804a0d0:	01 cf                	add    %ecx,%edi
 804a0d2:	c4 e3 79 16 c1 01    	vpextrd $0x1,%xmm0,%ecx
 804a0d8:	11 ce                	adc    %ecx,%esi
 804a0da:	ba e9 a7 27 74       	mov    $0x7427a7e9,%edx
 804a0df:	3d d0 07 00 00       	cmp    $0x7d0,%eax
 804a0e4:	b9 00 00 00 00       	mov    $0x0,%ecx
 804a0e9:	0f 44 ca             	cmove  %edx,%ecx
 804a0ec:	ba 3a ba 80 9d       	mov    $0x9d80ba3a,%edx
 804a0f1:	bd 00 00 00 00       	mov    $0x0,%ebp
 804a0f6:	0f 44 ea             	cmove  %edx,%ebp
 804a0f9:	01 fd                	add    %edi,%ebp
 804a0fb:	11 f1                	adc    %esi,%ecx
 804a0fd:	3d d8 07 00 00       	cmp    $0x7d8,%eax
 804a102:	ba 93 f0 bf 42       	mov    $0x42bff093,%edx
 804a107:	be 00 00 00 00       	mov    $0x0,%esi
 804a10c:	0f 44 f2             	cmove  %edx,%esi
 804a10f:	ba 21 6e 4f d1       	mov    $0xd14f6e21,%edx
 804a114:	bf 00 00 00 00       	mov    $0x0,%edi
 804a119:	0f 44 fa             	cmove  %edx,%edi
 804a11c:	01 ef                	add    %ebp,%edi
 804a11e:	11 ce                	adc    %ecx,%esi
 804a120:	3d e0 07 00 00       	cmp    $0x7e0,%eax
 804a125:	ba d9 5d 42 f8       	mov    $0xf8425dd9,%edx
 804a12a:	b9 00 00 00 00       	mov    $0x0,%ecx
 804a12f:	0f 44 ca             	cmove  %edx,%ecx
 804a132:	ba 7c 63 1f 21       	mov    $0x211f637c,%edx
 804a137:	bd 00 00 00 00       	mov    $0x0,%ebp
 804a13c:	0f 44 ea             	cmove  %edx,%ebp
 804a13f:	01 fd                	add    %edi,%ebp
 804a141:	11 f1                	adc    %esi,%ecx
 804a143:	3d e8 07 00 00       	cmp    $0x7e8,%eax
 804a148:	ba 5d 4c 86 1e       	mov    $0x1e864c5d,%edx
 804a14d:	be 00 00 00 00       	mov    $0x0,%esi
 804a152:	0f 44 f2             	cmove  %edx,%esi
 804a155:	ba 0f c5 ca 43       	mov    $0x43cac50f,%edx
 804a15a:	bf 00 00 00 00       	mov    $0x0,%edi
 804a15f:	0f 44 fa             	cmove  %edx,%edi
 804a162:	01 ef                	add    %ebp,%edi
 804a164:	11 ce                	adc    %ecx,%esi
 804a166:	3d f0 07 00 00       	cmp    $0x7f0,%eax
 804a16b:	ba da 71 db 39       	mov    $0x39db71da,%edx
 804a170:	b9 00 00 00 00       	mov    $0x0,%ecx
 804a175:	0f 44 ca             	cmove  %edx,%ecx
 804a178:	ba 92 38 aa e3       	mov    $0xe3aa3892,%edx
 804a17d:	bd 00 00 00 00       	mov    $0x0,%ebp
 804a182:	0f 44 ea             	cmove  %edx,%ebp
 804a185:	01 fd                	add    %edi,%ebp
 804a187:	11 f1                	adc    %esi,%ecx
 804a189:	3d f8 07 00 00       	cmp    $0x7f8,%eax
 804a18e:	b8 ec d3 91 2a       	mov    $0x2a91d3ec,%eax
 804a193:	ba 00 00 00 00       	mov    $0x0,%edx
 804a198:	0f 44 d0             	cmove  %eax,%edx
 804a19b:	b8 15 57 42 c6       	mov    $0xc6425715,%eax
 804a1a0:	0f 44 d8             	cmove  %eax,%ebx
 804a1a3:	01 eb                	add    %ebp,%ebx
 804a1a5:	89 9c 24 80 01 00 00 	mov    %ebx,0x180(%esp)
 804a1ac:	11 ca                	adc    %ecx,%edx
 804a1ae:	89 94 24 c0 01 00 00 	mov    %edx,0x1c0(%esp)
 804a1b5:	8b ac 24 a0 00 00 00 	mov    0xa0(%esp),%ebp
 804a1bc:	c1 ed 05             	shr    $0x5,%ebp
 804a1bf:	81 e5 f8 07 00 00    	and    $0x7f8,%ebp
 804a1c5:	62 f2 7d 08 7c c5    	vpbroadcastd %ebp,%xmm0
 804a1cb:	c5 e1 ef db          	vpxor  %xmm3,%xmm3,%xmm3
 804a1cf:	c5 f1 ef c9          	vpxor  %xmm1,%xmm1,%xmm1
 804a1d3:	b9 80 fc ff ff       	mov    $0xfffffc80,%ecx
 804a1d8:	0f 1f 84 00 00 00 00 	nopl   0x0(%eax,%eax,1)
 804a1df:	00 
 804a1e0:	c5 fa 6f 91 8c 33 06 	vmovdqu 0x806338c(%ecx),%xmm2
 804a1e7:	08 
 804a1e8:	c5 fa 6f a1 9c 33 06 	vmovdqu 0x806339c(%ecx),%xmm4
 804a1ef:	08 
 804a1f0:	c5 fc 46 c8          	kxnorw %k0,%k0,%k1
 804a1f4:	62 f2 fd 29 90 2c 15 	vpgatherdq 0x8062008(,%xmm2,1),%ymm5{%k1}
 804a1fb:	08 20 06 08 
 804a1ff:	c5 fc 46 c8          	kxnorw %k0,%k0,%k1
 804a203:	62 f2 fd 29 90 34 25 	vpgatherdq 0x8062008(,%xmm4,1),%ymm6{%k1}
 804a20a:	08 20 06 08 
 804a20e:	62 f1 7d 08 76 ca    	vpcmpeqd %xmm2,%xmm0,%k1
 804a214:	62 f1 7d 08 76 d4    	vpcmpeqd %xmm4,%xmm0,%k2
 804a21a:	62 f1 fd a9 6f d5    	vmovdqa64 %ymm5,%ymm2{%k1}{z}
 804a220:	c5 ed d4 d3          	vpaddq %ymm3,%ymm2,%ymm2
 804a224:	62 f1 fd aa 6f de    	vmovdqa64 %ymm6,%ymm3{%k2}{z}
 804a22a:	c5 fa 6f a1 ac 33 06 	vmovdqu 0x80633ac(%ecx),%xmm4
 804a231:	08 
 804a232:	c5 fa 6f a9 bc 33 06 	vmovdqu 0x80633bc(%ecx),%xmm5
 804a239:	08 
 804a23a:	c5 fc 46 c8          	kxnorw %k0,%k0,%k1
 804a23e:	62 f2 fd 29 90 34 25 	vpgatherdq 0x8062008(,%xmm4,1),%ymm6{%k1}
 804a245:	08 20 06 08 
 804a249:	c5 fc 46 c8          	kxnorw %k0,%k0,%k1
 804a24d:	62 f2 fd 29 90 3c 2d 	vpgatherdq 0x8062008(,%xmm5,1),%ymm7{%k1}
 804a254:	08 20 06 08 
 804a258:	c5 e5 d4 d9          	vpaddq %ymm1,%ymm3,%ymm3
 804a25c:	62 f1 7d 08 76 cc    	vpcmpeqd %xmm4,%xmm0,%k1
 804a262:	62 f1 7d 08 76 d5    	vpcmpeqd %xmm5,%xmm0,%k2
 804a268:	c5 fa 6f 89 cc 33 06 	vmovdqu 0x80633cc(%ecx),%xmm1
 804a26f:	08 
 804a270:	c5 fc 46 d8          	kxnorw %k0,%k0,%k3
 804a274:	62 f1 7d 08 76 e1    	vpcmpeqd %xmm1,%xmm0,%k4
 804a27a:	62 f2 fd 2b 90 24 0d 	vpgatherdq 0x8062008(,%xmm1,1),%ymm4{%k3}
 804a281:	08 20 06 08 
 804a285:	62 f1 fd a9 6f ce    	vmovdqa64 %ymm6,%ymm1{%k1}{z}
 804a28b:	62 f1 fd ac 6f e4    	vmovdqa64 %ymm4,%ymm4{%k4}{z}
 804a291:	c5 f5 d4 cc          	vpaddq %ymm4,%ymm1,%ymm1
 804a295:	c5 fa 6f a1 dc 33 06 	vmovdqu 0x80633dc(%ecx),%xmm4
 804a29c:	08 
 804a29d:	c5 fc 46 c8          	kxnorw %k0,%k0,%k1
 804a2a1:	62 f1 7d 08 76 dc    	vpcmpeqd %xmm4,%xmm0,%k3
 804a2a7:	62 f2 fd 29 90 2c 25 	vpgatherdq 0x8062008(,%xmm4,1),%ymm5{%k1}
 804a2ae:	08 20 06 08 
 804a2b2:	c5 ed d4 c9          	vpaddq %ymm1,%ymm2,%ymm1
 804a2b6:	62 f1 fd aa 6f d7    	vmovdqa64 %ymm7,%ymm2{%k2}{z}
 804a2bc:	62 f1 fd ab 6f e5    	vmovdqa64 %ymm5,%ymm4{%k3}{z}
 804a2c2:	c5 ed d4 d4          	vpaddq %ymm4,%ymm2,%ymm2
 804a2c6:	c5 e5 d4 d2          	vpaddq %ymm2,%ymm3,%ymm2
 804a2ca:	85 c9                	test   %ecx,%ecx
 804a2cc:	74 56                	je     804a324 <main+0x1104>
 804a2ce:	c5 fa 6f 99 ec 33 06 	vmovdqu 0x80633ec(%ecx),%xmm3
 804a2d5:	08 
 804a2d6:	c5 fa 6f a1 fc 33 06 	vmovdqu 0x80633fc(%ecx),%xmm4
 804a2dd:	08 
 804a2de:	c5 fc 46 c8          	kxnorw %k0,%k0,%k1
 804a2e2:	62 f2 fd 29 90 2c 1d 	vpgatherdq 0x8062008(,%xmm3,1),%ymm5{%k1}
 804a2e9:	08 20 06 08 
 804a2ed:	c5 fc 46 c8          	kxnorw %k0,%k0,%k1
 804a2f1:	62 f2 fd 29 90 34 25 	vpgatherdq 0x8062008(,%xmm4,1),%ymm6{%k1}
 804a2f8:	08 20 06 08 
 804a2fc:	62 f1 7d 08 76 cb    	vpcmpeqd %xmm3,%xmm0,%k1
 804a302:	62 f1 7d 08 76 d4    	vpcmpeqd %xmm4,%xmm0,%k2
 804a308:	62 f1 fd a9 6f dd    	vmovdqa64 %ymm5,%ymm3{%k1}{z}
 804a30e:	62 f1 fd aa 6f e6    	vmovdqa64 %ymm6,%ymm4{%k2}{z}
 804a314:	c5 e5 d4 d9          	vpaddq %ymm1,%ymm3,%ymm3
 804a318:	c5 dd d4 ca          	vpaddq %ymm2,%ymm4,%ymm1
 804a31c:	83 e9 80             	sub    $0xffffff80,%ecx
 804a31f:	e9 bc fe ff ff       	jmp    804a1e0 <main+0xfc0>
 804a324:	ba 79 eb 49 82       	mov    $0x8249eb79,%edx
 804a329:	b8 fb a2 10 b2       	mov    $0xb210a2fb,%eax
 804a32e:	c5 ed d4 c1          	vpaddq %ymm1,%ymm2,%ymm0
 804a332:	c4 e3 7d 39 c1 01    	vextracti128 $0x1,%ymm0,%xmm1
 804a338:	c5 f9 d4 c1          	vpaddq %xmm1,%xmm0,%xmm0
 804a33c:	c5 f9 70 c8 ee       	vpshufd $0xee,%xmm0,%xmm1
 804a341:	c5 f9 d4 c1          	vpaddq %xmm1,%xmm0,%xmm0
 804a345:	c5 f9 7e c6          	vmovd  %xmm0,%esi
 804a349:	31 c9                	xor    %ecx,%ecx
 804a34b:	81 fd c8 07 00 00    	cmp    $0x7c8,%ebp
 804a351:	bf 00 00 00 00       	mov    $0x0,%edi
 804a356:	0f 44 fa             	cmove  %edx,%edi
 804a359:	ba 00 00 00 00       	mov    $0x0,%edx
 804a35e:	0f 44 d0             	cmove  %eax,%edx
 804a361:	01 f2                	add    %esi,%edx
 804a363:	c4 e3 79 16 c6 01    	vpextrd $0x1,%xmm0,%esi
 804a369:	11 f7                	adc    %esi,%edi
 804a36b:	b8 74 27 a7 e9       	mov    $0xe9a72774,%eax
 804a370:	81 fd d0 07 00 00    	cmp    $0x7d0,%ebp
 804a376:	be 00 00 00 00       	mov    $0x0,%esi
 804a37b:	0f 44 f0             	cmove  %eax,%esi
 804a37e:	b8 9d 80 ba 3a       	mov    $0x3aba809d,%eax
 804a383:	bb 00 00 00 00       	mov    $0x0,%ebx
 804a388:	0f 44 d8             	cmove  %eax,%ebx
 804a38b:	01 d3                	add    %edx,%ebx
 804a38d:	11 fe                	adc    %edi,%esi
 804a38f:	81 fd d8 07 00 00    	cmp    $0x7d8,%ebp
 804a395:	b8 42 bf f0 93       	mov    $0x93f0bf42,%eax
 804a39a:	ba 00 00 00 00       	mov    $0x0,%edx
 804a39f:	0f 44 d0             	cmove  %eax,%edx
 804a3a2:	b8 d1 4f 6e 21       	mov    $0x216e4fd1,%eax
 804a3a7:	bf 00 00 00 00       	mov    $0x0,%edi
 804a3ac:	0f 44 f8             	cmove  %eax,%edi
 804a3af:	01 df                	add    %ebx,%edi
 804a3b1:	11 f2                	adc    %esi,%edx
 804a3b3:	81 fd e0 07 00 00    	cmp    $0x7e0,%ebp
 804a3b9:	b8 f8 42 5d d9       	mov    $0xd95d42f8,%eax
 804a3be:	be 00 00 00 00       	mov    $0x0,%esi
 804a3c3:	0f 44 f0             	cmove  %eax,%esi
 804a3c6:	b8 21 1f 63 7c       	mov    $0x7c631f21,%eax
 804a3cb:	bb 00 00 00 00       	mov    $0x0,%ebx
 804a3d0:	0f 44 d8             	cmove  %eax,%ebx
 804a3d3:	01 fb                	add    %edi,%ebx
 804a3d5:	11 d6                	adc    %edx,%esi
 804a3d7:	81 fd e8 07 00 00    	cmp    $0x7e8,%ebp
 804a3dd:	b8 1e 86 4c 5d       	mov    $0x5d4c861e,%eax
 804a3e2:	ba 00 00 00 00       	mov    $0x0,%edx
 804a3e7:	0f 44 d0             	cmove  %eax,%edx
 804a3ea:	b8 43 ca c5 0f       	mov    $0xfc5ca43,%eax
 804a3ef:	bf 00 00 00 00       	mov    $0x0,%edi
 804a3f4:	0f 44 f8             	cmove  %eax,%edi
 804a3f7:	01 df                	add    %ebx,%edi
 804a3f9:	11 f2                	adc    %esi,%edx
 804a3fb:	81 fd f0 07 00 00    	cmp    $0x7f0,%ebp
 804a401:	b8 39 db 71 da       	mov    $0xda71db39,%eax
 804a406:	be 00 00 00 00       	mov    $0x0,%esi
 804a40b:	0f 44 f0             	cmove  %eax,%esi
 804a40e:	b8 e3 aa 38 92       	mov    $0x9238aae3,%eax
 804a413:	bb 00 00 00 00       	mov    $0x0,%ebx
 804a418:	0f 44 d8             	cmove  %eax,%ebx
 804a41b:	01 fb                	add    %edi,%ebx
 804a41d:	11 d6                	adc    %edx,%esi
 804a41f:	81 fd f8 07 00 00    	cmp    $0x7f8,%ebp
 804a425:	b8 2a 91 d3 ec       	mov    $0xecd3912a,%eax
 804a42a:	ba 00 00 00 00       	mov    $0x0,%edx
 804a42f:	0f 44 d0             	cmove  %eax,%edx
 804a432:	b8 c6 42 57 15       	mov    $0x155742c6,%eax
 804a437:	0f 44 c8             	cmove  %eax,%ecx
 804a43a:	01 d9                	add    %ebx,%ecx
 804a43c:	89 4c 24 1c          	mov    %ecx,0x1c(%esp)
 804a440:	11 f2                	adc    %esi,%edx
 804a442:	89 94 24 a0 01 00 00 	mov    %edx,0x1a0(%esp)
 804a449:	0f b6 b4 24 a0 00 00 	movzbl 0xa0(%esp),%esi
 804a450:	00 
 804a451:	c1 e6 03             	shl    $0x3,%esi
 804a454:	62 f2 7d 08 7c c6    	vpbroadcastd %esi,%xmm0
 804a45a:	c5 e1 ef db          	vpxor  %xmm3,%xmm3,%xmm3
 804a45e:	c5 f1 ef c9          	vpxor  %xmm1,%xmm1,%xmm1
 804a462:	bf 80 fc ff ff       	mov    $0xfffffc80,%edi
 804a467:	66 0f 1f 84 00 00 00 	nopw   0x0(%eax,%eax,1)
 804a46e:	00 00 
 804a470:	c5 fa 6f 97 8c 33 06 	vmovdqu 0x806338c(%edi),%xmm2
 804a477:	08 
 804a478:	c5 fa 6f a7 9c 33 06 	vmovdqu 0x806339c(%edi),%xmm4
 804a47f:	08 
 804a480:	c5 fc 46 c8          	kxnorw %k0,%k0,%k1
 804a484:	62 f2 fd 29 90 2c 15 	vpgatherdq 0x8062808(,%xmm2,1),%ymm5{%k1}
 804a48b:	08 28 06 08 
 804a48f:	c5 fc 46 c8          	kxnorw %k0,%k0,%k1
 804a493:	62 f2 fd 29 90 34 25 	vpgatherdq 0x8062808(,%xmm4,1),%ymm6{%k1}
 804a49a:	08 28 06 08 
 804a49e:	62 f1 7d 08 76 ca    	vpcmpeqd %xmm2,%xmm0,%k1
 804a4a4:	62 f1 7d 08 76 d4    	vpcmpeqd %xmm4,%xmm0,%k2
 804a4aa:	62 f1 fd a9 6f d5    	vmovdqa64 %ymm5,%ymm2{%k1}{z}
 804a4b0:	c5 ed d4 d3          	vpaddq %ymm3,%ymm2,%ymm2
 804a4b4:	62 f1 fd aa 6f de    	vmovdqa64 %ymm6,%ymm3{%k2}{z}
 804a4ba:	c5 fa 6f a7 ac 33 06 	vmovdqu 0x80633ac(%edi),%xmm4
 804a4c1:	08 
 804a4c2:	c5 fa 6f af bc 33 06 	vmovdqu 0x80633bc(%edi),%xmm5
 804a4c9:	08 
 804a4ca:	c5 fc 46 c8          	kxnorw %k0,%k0,%k1
 804a4ce:	62 f2 fd 29 90 34 25 	vpgatherdq 0x8062808(,%xmm4,1),%ymm6{%k1}
 804a4d5:	08 28 06 08 
 804a4d9:	c5 fc 46 c8          	kxnorw %k0,%k0,%k1
 804a4dd:	62 f2 fd 29 90 3c 2d 	vpgatherdq 0x8062808(,%xmm5,1),%ymm7{%k1}
 804a4e4:	08 28 06 08 
 804a4e8:	c5 e5 d4 d9          	vpaddq %ymm1,%ymm3,%ymm3
 804a4ec:	62 f1 7d 08 76 cc    	vpcmpeqd %xmm4,%xmm0,%k1
 804a4f2:	62 f1 7d 08 76 d5    	vpcmpeqd %xmm5,%xmm0,%k2
 804a4f8:	c5 fa 6f 8f cc 33 06 	vmovdqu 0x80633cc(%edi),%xmm1
 804a4ff:	08 
 804a500:	c5 fc 46 d8          	kxnorw %k0,%k0,%k3
 804a504:	62 f1 7d 08 76 e1    	vpcmpeqd %xmm1,%xmm0,%k4
 804a50a:	62 f2 fd 2b 90 24 0d 	vpgatherdq 0x8062808(,%xmm1,1),%ymm4{%k3}
 804a511:	08 28 06 08 
 804a515:	62 f1 fd a9 6f ce    	vmovdqa64 %ymm6,%ymm1{%k1}{z}
 804a51b:	62 f1 fd ac 6f e4    	vmovdqa64 %ymm4,%ymm4{%k4}{z}
 804a521:	c5 f5 d4 cc          	vpaddq %ymm4,%ymm1,%ymm1
 804a525:	c5 fa 6f a7 dc 33 06 	vmovdqu 0x80633dc(%edi),%xmm4
 804a52c:	08 
 804a52d:	c5 fc 46 c8          	kxnorw %k0,%k0,%k1
 804a531:	62 f1 7d 08 76 dc    	vpcmpeqd %xmm4,%xmm0,%k3
 804a537:	62 f2 fd 29 90 2c 25 	vpgatherdq 0x8062808(,%xmm4,1),%ymm5{%k1}
 804a53e:	08 28 06 08 
 804a542:	c5 ed d4 c9          	vpaddq %ymm1,%ymm2,%ymm1
 804a546:	62 f1 fd aa 6f d7    	vmovdqa64 %ymm7,%ymm2{%k2}{z}
 804a54c:	62 f1 fd ab 6f e5    	vmovdqa64 %ymm5,%ymm4{%k3}{z}
 804a552:	c5 ed d4 d4          	vpaddq %ymm4,%ymm2,%ymm2
 804a556:	c5 e5 d4 d2          	vpaddq %ymm2,%ymm3,%ymm2
 804a55a:	85 ff                	test   %edi,%edi
 804a55c:	74 56                	je     804a5b4 <main+0x1394>
 804a55e:	c5 fa 6f 9f ec 33 06 	vmovdqu 0x80633ec(%edi),%xmm3
 804a565:	08 
 804a566:	c5 fa 6f a7 fc 33 06 	vmovdqu 0x80633fc(%edi),%xmm4
 804a56d:	08 
 804a56e:	c5 fc 46 c8          	kxnorw %k0,%k0,%k1
 804a572:	62 f2 fd 29 90 2c 1d 	vpgatherdq 0x8062808(,%xmm3,1),%ymm5{%k1}
 804a579:	08 28 06 08 
 804a57d:	c5 fc 46 c8          	kxnorw %k0,%k0,%k1
 804a581:	62 f2 fd 29 90 34 25 	vpgatherdq 0x8062808(,%xmm4,1),%ymm6{%k1}
 804a588:	08 28 06 08 
 804a58c:	62 f1 7d 08 76 cb    	vpcmpeqd %xmm3,%xmm0,%k1
 804a592:	62 f1 7d 08 76 d4    	vpcmpeqd %xmm4,%xmm0,%k2
 804a598:	62 f1 fd a9 6f dd    	vmovdqa64 %ymm5,%ymm3{%k1}{z}
 804a59e:	62 f1 fd aa 6f e6    	vmovdqa64 %ymm6,%ymm4{%k2}{z}
 804a5a4:	c5 e5 d4 d9          	vpaddq %ymm1,%ymm3,%ymm3
 804a5a8:	c5 dd d4 ca          	vpaddq %ymm2,%ymm4,%ymm1
 804a5ac:	83 ef 80             	sub    $0xffffff80,%edi
 804a5af:	e9 bc fe ff ff       	jmp    804a470 <main+0x1250>
 804a5b4:	c5 ed d4 c1          	vpaddq %ymm1,%ymm2,%ymm0
 804a5b8:	c4 e3 7d 39 c1 01    	vextracti128 $0x1,%ymm0,%xmm1
 804a5be:	c5 f9 d4 c1          	vpaddq %xmm1,%xmm0,%xmm0
 804a5c2:	c5 f9 70 c8 ee       	vpshufd $0xee,%xmm0,%xmm1
 804a5c7:	c5 f9 d4 c1          	vpaddq %xmm1,%xmm0,%xmm0
 804a5cb:	31 ff                	xor    %edi,%edi
 804a5cd:	81 fe c8 07 00 00    	cmp    $0x7c8,%esi
 804a5d3:	b8 eb 79 82 49       	mov    $0x498279eb,%eax
 804a5d8:	ba 00 00 00 00       	mov    $0x0,%edx
 804a5dd:	0f 44 d0             	cmove  %eax,%edx
 804a5e0:	b8 a2 fb b2 10       	mov    $0x10b2fba2,%eax
 804a5e5:	bb 00 00 00 00       	mov    $0x0,%ebx
 804a5ea:	0f 44 d8             	cmove  %eax,%ebx
 804a5ed:	c5 f9 7e c0          	vmovd  %xmm0,%eax
 804a5f1:	01 c3                	add    %eax,%ebx
 804a5f3:	c4 e3 79 16 c0 01    	vpextrd $0x1,%xmm0,%eax
 804a5f9:	11 c2                	adc    %eax,%edx
 804a5fb:	81 fe d0 07 00 00    	cmp    $0x7d0,%esi
 804a601:	b9 27 74 e9 a7       	mov    $0xa7e97427,%ecx
 804a606:	b8 00 00 00 00       	mov    $0x0,%eax
 804a60b:	0f 44 c1             	cmove  %ecx,%eax
 804a60e:	bd 80 9d 3a ba       	mov    $0xba3a9d80,%ebp
 804a613:	b9 00 00 00 00       	mov    $0x0,%ecx
 804a618:	0f 44 cd             	cmove  %ebp,%ecx
 804a61b:	01 d9                	add    %ebx,%ecx
 804a61d:	11 d0                	adc    %edx,%eax
 804a61f:	81 fe d8 07 00 00    	cmp    $0x7d8,%esi
 804a625:	bb bf 42 93 f0       	mov    $0xf09342bf,%ebx
 804a62a:	ba 00 00 00 00       	mov    $0x0,%edx
 804a62f:	0f 44 d3             	cmove  %ebx,%edx
 804a632:	bd 4f d1 21 6e       	mov    $0x6e21d14f,%ebp
 804a637:	bb 00 00 00 00       	mov    $0x0,%ebx
 804a63c:	0f 44 dd             	cmove  %ebp,%ebx
 804a63f:	01 cb                	add    %ecx,%ebx
 804a641:	11 c2                	adc    %eax,%edx
 804a643:	81 fe e0 07 00 00    	cmp    $0x7e0,%esi
 804a649:	b9 42 f8 d9 5d       	mov    $0x5dd9f842,%ecx
 804a64e:	b8 00 00 00 00       	mov    $0x0,%eax
 804a653:	0f 44 c1             	cmove  %ecx,%eax
 804a656:	bd 1f 21 7c 63       	mov    $0x637c211f,%ebp
 804a65b:	b9 00 00 00 00       	mov    $0x0,%ecx
 804a660:	0f 44 cd             	cmove  %ebp,%ecx
 804a663:	01 d9                	add    %ebx,%ecx
 804a665:	11 d0                	adc    %edx,%eax
 804a667:	81 fe e8 07 00 00    	cmp    $0x7e8,%esi
 804a66d:	bb 86 1e 5d 4c       	mov    $0x4c5d1e86,%ebx
 804a672:	ba 00 00 00 00       	mov    $0x0,%edx
 804a677:	0f 44 d3             	cmove  %ebx,%edx
 804a67a:	bd ca 43 0f c5       	mov    $0xc50f43ca,%ebp
 804a67f:	bb 00 00 00 00       	mov    $0x0,%ebx
 804a684:	0f 44 dd             	cmove  %ebp,%ebx
 804a687:	01 cb                	add    %ecx,%ebx
 804a689:	11 c2                	adc    %eax,%edx
 804a68b:	81 fe f0 07 00 00    	cmp    $0x7f0,%esi
 804a691:	b9 db 39 da 71       	mov    $0x71da39db,%ecx
 804a696:	b8 00 00 00 00       	mov    $0x0,%eax
 804a69b:	0f 44 c1             	cmove  %ecx,%eax
 804a69e:	bd aa e3 92 38       	mov    $0x3892e3aa,%ebp
 804a6a3:	b9 00 00 00 00       	mov    $0x0,%ecx
 804a6a8:	0f 44 cd             	cmove  %ebp,%ecx
 804a6ab:	01 d9                	add    %ebx,%ecx
 804a6ad:	11 d0                	adc    %edx,%eax
 804a6af:	81 fe f8 07 00 00    	cmp    $0x7f8,%esi
 804a6b5:	ba 91 2a ec d3       	mov    $0xd3ec2a91,%edx
 804a6ba:	be 00 00 00 00       	mov    $0x0,%esi
 804a6bf:	0f 44 f2             	cmove  %edx,%esi
 804a6c2:	ba 42 c6 15 57       	mov    $0x5715c642,%edx
 804a6c7:	0f 44 fa             	cmove  %edx,%edi
 804a6ca:	01 cf                	add    %ecx,%edi
 804a6cc:	11 c6                	adc    %eax,%esi
 804a6ce:	8b 44 24 04          	mov    0x4(%esp),%eax
 804a6d2:	33 44 24 20          	xor    0x20(%esp),%eax
 804a6d6:	33 84 24 e0 00 00 00 	xor    0xe0(%esp),%eax
 804a6dd:	33 84 24 00 01 00 00 	xor    0x100(%esp),%eax
 804a6e4:	33 44 24 10          	xor    0x10(%esp),%eax
 804a6e8:	33 44 24 08          	xor    0x8(%esp),%eax
 804a6ec:	33 84 24 80 01 00 00 	xor    0x180(%esp),%eax
 804a6f3:	33 44 24 1c          	xor    0x1c(%esp),%eax
 804a6f7:	31 f8                	xor    %edi,%eax
 804a6f9:	8b 94 24 60 01 00 00 	mov    0x160(%esp),%edx
 804a700:	33 54 24 60          	xor    0x60(%esp),%edx
 804a704:	33 94 24 20 01 00 00 	xor    0x120(%esp),%edx
 804a70b:	33 54 24 14          	xor    0x14(%esp),%edx
 804a70f:	33 54 24 0c          	xor    0xc(%esp),%edx
 804a713:	33 54 24 18          	xor    0x18(%esp),%edx
 804a717:	33 94 24 c0 01 00 00 	xor    0x1c0(%esp),%edx
 804a71e:	33 94 24 a0 01 00 00 	xor    0x1a0(%esp),%edx
 804a725:	31 f2                	xor    %esi,%edx
 804a727:	89 d1                	mov    %edx,%ecx
 804a729:	81 f1 74 2f 54 ba    	xor    $0xba542f74,%ecx
 804a72f:	89 44 24 04          	mov    %eax,0x4(%esp)
 804a733:	35 4d d2 d3 53       	xor    $0x53d3d24d,%eax
 804a738:	89 44 24 20          	mov    %eax,0x20(%esp)
 804a73c:	a3 c8 50 06 08       	mov    %eax,0x80650c8
 804a741:	89 0d cc 50 06 08    	mov    %ecx,0x80650cc
 804a747:	89 4c 24 60          	mov    %ecx,0x60(%esp)
 804a74b:	89 c8                	mov    %ecx,%eax
 804a74d:	c1 e8 15             	shr    $0x15,%eax
 804a750:	83 e0 f8             	and    $0xfffffff8,%eax
 804a753:	62 f2 7d 08 7c c0    	vpbroadcastd %eax,%xmm0
 804a759:	c5 e9 ef d2          	vpxor  %xmm2,%xmm2,%xmm2
 804a75d:	c5 f1 ef c9          	vpxor  %xmm1,%xmm1,%xmm1
 804a761:	b9 80 fc ff ff       	mov    $0xfffffc80,%ecx
 804a766:	66 2e 0f 1f 84 00 00 	nopw   %cs:0x0(%eax,%eax,1)
 804a76d:	00 00 00 
 804a770:	c5 fa 6f 99 8c 33 06 	vmovdqu 0x806338c(%ecx),%xmm3
 804a777:	08 
 804a778:	c5 fa 6f a1 9c 33 06 	vmovdqu 0x806339c(%ecx),%xmm4
 804a77f:	08 
 804a780:	c5 fc 46 c8          	kxnorw %k0,%k0,%k1
 804a784:	62 f2 fd 29 90 2c 1d 	vpgatherdq 0x805f008(,%xmm3,1),%ymm5{%k1}
 804a78b:	08 f0 05 08 
 804a78f:	c5 fc 46 c8          	kxnorw %k0,%k0,%k1
 804a793:	62 f2 fd 29 90 34 25 	vpgatherdq 0x805f008(,%xmm4,1),%ymm6{%k1}
 804a79a:	08 f0 05 08 
 804a79e:	62 f1 7d 08 76 cb    	vpcmpeqd %xmm3,%xmm0,%k1
 804a7a4:	62 f1 7d 08 76 d4    	vpcmpeqd %xmm4,%xmm0,%k2
 804a7aa:	62 f1 fd a9 6f dd    	vmovdqa64 %ymm5,%ymm3{%k1}{z}
 804a7b0:	c5 e5 d4 d2          	vpaddq %ymm2,%ymm3,%ymm2
 804a7b4:	62 f1 fd aa 6f de    	vmovdqa64 %ymm6,%ymm3{%k2}{z}
 804a7ba:	c5 fa 6f a1 ac 33 06 	vmovdqu 0x80633ac(%ecx),%xmm4
 804a7c1:	08 
 804a7c2:	c5 fa 6f a9 bc 33 06 	vmovdqu 0x80633bc(%ecx),%xmm5
 804a7c9:	08 
 804a7ca:	c5 fc 46 c8          	kxnorw %k0,%k0,%k1
 804a7ce:	62 f2 fd 29 90 34 25 	vpgatherdq 0x805f008(,%xmm4,1),%ymm6{%k1}
 804a7d5:	08 f0 05 08 
 804a7d9:	c5 fc 46 c8          	kxnorw %k0,%k0,%k1
 804a7dd:	62 f2 fd 29 90 3c 2d 	vpgatherdq 0x805f008(,%xmm5,1),%ymm7{%k1}
 804a7e4:	08 f0 05 08 
 804a7e8:	c5 e5 d4 d9          	vpaddq %ymm1,%ymm3,%ymm3
 804a7ec:	62 f1 7d 08 76 cc    	vpcmpeqd %xmm4,%xmm0,%k1
 804a7f2:	62 f1 7d 08 76 d5    	vpcmpeqd %xmm5,%xmm0,%k2
 804a7f8:	c5 fa 6f 89 cc 33 06 	vmovdqu 0x80633cc(%ecx),%xmm1
 804a7ff:	08 
 804a800:	c5 fc 46 d8          	kxnorw %k0,%k0,%k3
 804a804:	62 f1 7d 08 76 e1    	vpcmpeqd %xmm1,%xmm0,%k4
 804a80a:	62 f2 fd 2b 90 24 0d 	vpgatherdq 0x805f008(,%xmm1,1),%ymm4{%k3}
 804a811:	08 f0 05 08 
 804a815:	62 f1 fd a9 6f ce    	vmovdqa64 %ymm6,%ymm1{%k1}{z}
 804a81b:	62 f1 fd ac 6f e4    	vmovdqa64 %ymm4,%ymm4{%k4}{z}
 804a821:	c5 f5 d4 cc          	vpaddq %ymm4,%ymm1,%ymm1
 804a825:	c5 fa 6f a1 dc 33 06 	vmovdqu 0x80633dc(%ecx),%xmm4
 804a82c:	08 
 804a82d:	c5 fc 46 c8          	kxnorw %k0,%k0,%k1
 804a831:	62 f1 7d 08 76 dc    	vpcmpeqd %xmm4,%xmm0,%k3
 804a837:	62 f2 fd 29 90 2c 25 	vpgatherdq 0x805f008(,%xmm4,1),%ymm5{%k1}
 804a83e:	08 f0 05 08 
 804a842:	c5 ed d4 c9          	vpaddq %ymm1,%ymm2,%ymm1
 804a846:	62 f1 fd aa 6f d7    	vmovdqa64 %ymm7,%ymm2{%k2}{z}
 804a84c:	62 f1 fd ab 6f e5    	vmovdqa64 %ymm5,%ymm4{%k3}{z}
 804a852:	c5 ed d4 d4          	vpaddq %ymm4,%ymm2,%ymm2
 804a856:	c5 e5 d4 da          	vpaddq %ymm2,%ymm3,%ymm3
 804a85a:	85 c9                	test   %ecx,%ecx
 804a85c:	74 56                	je     804a8b4 <main+0x1694>
 804a85e:	c5 fa 6f 91 ec 33 06 	vmovdqu 0x80633ec(%ecx),%xmm2
 804a865:	08 
 804a866:	c5 fa 6f a1 fc 33 06 	vmovdqu 0x80633fc(%ecx),%xmm4
 804a86d:	08 
 804a86e:	c5 fc 46 c8          	kxnorw %k0,%k0,%k1
 804a872:	62 f2 fd 29 90 2c 15 	vpgatherdq 0x805f008(,%xmm2,1),%ymm5{%k1}
 804a879:	08 f0 05 08 
 804a87d:	c5 fc 46 c8          	kxnorw %k0,%k0,%k1
 804a881:	62 f2 fd 29 90 34 25 	vpgatherdq 0x805f008(,%xmm4,1),%ymm6{%k1}
 804a888:	08 f0 05 08 
 804a88c:	62 f1 7d 08 76 ca    	vpcmpeqd %xmm2,%xmm0,%k1
 804a892:	62 f1 7d 08 76 d4    	vpcmpeqd %xmm4,%xmm0,%k2
 804a898:	62 f1 fd a9 6f d5    	vmovdqa64 %ymm5,%ymm2{%k1}{z}
 804a89e:	62 f1 fd aa 6f e6    	vmovdqa64 %ymm6,%ymm4{%k2}{z}
 804a8a4:	c5 ed d4 d1          	vpaddq %ymm1,%ymm2,%ymm2
 804a8a8:	c5 dd d4 cb          	vpaddq %ymm3,%ymm4,%ymm1
 804a8ac:	83 e9 80             	sub    $0xffffff80,%ecx
 804a8af:	e9 bc fe ff ff       	jmp    804a770 <main+0x1550>
 804a8b4:	89 94 24 60 01 00 00 	mov    %edx,0x160(%esp)
 804a8bb:	c5 e5 d4 c1          	vpaddq %ymm1,%ymm3,%ymm0
 804a8bf:	c4 e3 7d 39 c1 01    	vextracti128 $0x1,%ymm0,%xmm1
 804a8c5:	c5 f9 d4 c1          	vpaddq %xmm1,%xmm0,%xmm0
 804a8c9:	c5 f9 70 c8 ee       	vpshufd $0xee,%xmm0,%xmm1
 804a8ce:	c5 f9 d4 c1          	vpaddq %xmm1,%xmm0,%xmm0
 804a8d2:	c4 e3 79 16 c1 01    	vpextrd $0x1,%xmm0,%ecx
 804a8d8:	c5 f9 7e c2          	vmovd  %xmm0,%edx
 804a8dc:	31 ff                	xor    %edi,%edi
 804a8de:	3d c8 07 00 00       	cmp    $0x7c8,%eax
 804a8e3:	be 00 00 00 00       	mov    $0x0,%esi
 804a8e8:	bb 10 b2 fb a2       	mov    $0xa2fbb210,%ebx
 804a8ed:	0f 44 f3             	cmove  %ebx,%esi
 804a8f0:	bb 00 00 00 00       	mov    $0x0,%ebx
 804a8f5:	bd 49 82 79 eb       	mov    $0xeb798249,%ebp
 804a8fa:	0f 44 dd             	cmove  %ebp,%ebx
 804a8fd:	01 d3                	add    %edx,%ebx
 804a8ff:	11 ce                	adc    %ecx,%esi
 804a901:	3d d0 07 00 00       	cmp    $0x7d0,%eax
 804a906:	b9 00 00 00 00       	mov    $0x0,%ecx
 804a90b:	ba ba 3a 9d 80       	mov    $0x809d3aba,%edx
 804a910:	0f 44 ca             	cmove  %edx,%ecx
 804a913:	ba 00 00 00 00       	mov    $0x0,%edx
 804a918:	bd a7 e9 74 27       	mov    $0x2774e9a7,%ebp
 804a91d:	0f 44 d5             	cmove  %ebp,%edx
 804a920:	01 da                	add    %ebx,%edx
 804a922:	11 f1                	adc    %esi,%ecx
 804a924:	3d d8 07 00 00       	cmp    $0x7d8,%eax
 804a929:	be 00 00 00 00       	mov    $0x0,%esi
 804a92e:	bb 6e 21 d1 4f       	mov    $0x4fd1216e,%ebx
 804a933:	0f 44 f3             	cmove  %ebx,%esi
 804a936:	bb 00 00 00 00       	mov    $0x0,%ebx
 804a93b:	bd f0 93 42 bf       	mov    $0xbf4293f0,%ebp
 804a940:	0f 44 dd             	cmove  %ebp,%ebx
 804a943:	01 d3                	add    %edx,%ebx
 804a945:	11 ce                	adc    %ecx,%esi
 804a947:	3d e0 07 00 00       	cmp    $0x7e0,%eax
 804a94c:	b9 00 00 00 00       	mov    $0x0,%ecx
 804a951:	ba 63 7c 21 1f       	mov    $0x1f217c63,%edx
 804a956:	0f 44 ca             	cmove  %edx,%ecx
 804a959:	ba 00 00 00 00       	mov    $0x0,%edx
 804a95e:	bd 5d d9 f8 42       	mov    $0x42f8d95d,%ebp
 804a963:	0f 44 d5             	cmove  %ebp,%edx
 804a966:	01 da                	add    %ebx,%edx
 804a968:	11 f1                	adc    %esi,%ecx
 804a96a:	3d e8 07 00 00       	cmp    $0x7e8,%eax
 804a96f:	be 00 00 00 00       	mov    $0x0,%esi
 804a974:	bb c5 0f 43 ca       	mov    $0xca430fc5,%ebx
 804a979:	0f 44 f3             	cmove  %ebx,%esi
 804a97c:	bb 00 00 00 00       	mov    $0x0,%ebx
 804a981:	bd 4c 5d 1e 86       	mov    $0x861e5d4c,%ebp
 804a986:	0f 44 dd             	cmove  %ebp,%ebx
 804a989:	01 d3                	add    %edx,%ebx
 804a98b:	11 ce                	adc    %ecx,%esi
 804a98d:	3d f0 07 00 00       	cmp    $0x7f0,%eax
 804a992:	b9 00 00 00 00       	mov    $0x0,%ecx
 804a997:	ba 38 92 e3 aa       	mov    $0xaae39238,%edx
 804a99c:	0f 44 ca             	cmove  %edx,%ecx
 804a99f:	ba 00 00 00 00       	mov    $0x0,%edx
 804a9a4:	bd 71 da 39 db       	mov    $0xdb39da71,%ebp
 804a9a9:	0f 44 d5             	cmove  %ebp,%edx
 804a9ac:	01 da                	add    %ebx,%edx
 804a9ae:	11 f1                	adc    %esi,%ecx
 804a9b0:	3d f8 07 00 00       	cmp    $0x7f8,%eax
 804a9b5:	be 00 00 00 00       	mov    $0x0,%esi
 804a9ba:	b8 57 15 c6 42       	mov    $0x42c61557,%eax
 804a9bf:	0f 44 f0             	cmove  %eax,%esi
 804a9c2:	b8 d3 ec 2a 91       	mov    $0x912aecd3,%eax
 804a9c7:	0f 44 f8             	cmove  %eax,%edi
 804a9ca:	01 d7                	add    %edx,%edi
 804a9cc:	89 bc 24 e0 00 00 00 	mov    %edi,0xe0(%esp)
 804a9d3:	11 ce                	adc    %ecx,%esi
 804a9d5:	89 b4 24 20 01 00 00 	mov    %esi,0x120(%esp)
 804a9dc:	8b 44 24 60          	mov    0x60(%esp),%eax
 804a9e0:	c1 e8 0d             	shr    $0xd,%eax
 804a9e3:	25 f8 07 00 00       	and    $0x7f8,%eax
 804a9e8:	62 f2 7d 08 7c c0    	vpbroadcastd %eax,%xmm0
 804a9ee:	c5 e9 ef d2          	vpxor  %xmm2,%xmm2,%xmm2
 804a9f2:	b9 80 fc ff ff       	mov    $0xfffffc80,%ecx
 804a9f7:	c5 f1 ef c9          	vpxor  %xmm1,%xmm1,%xmm1
 804a9fb:	0f 1f 44 00 00       	nopl   0x0(%eax,%eax,1)
 804aa00:	c5 fa 6f 99 8c 33 06 	vmovdqu 0x806338c(%ecx),%xmm3
 804aa07:	08 
 804aa08:	c5 fa 6f a1 9c 33 06 	vmovdqu 0x806339c(%ecx),%xmm4
 804aa0f:	08 
 804aa10:	c5 fc 46 c8          	kxnorw %k0,%k0,%k1
 804aa14:	62 f2 fd 29 90 2c 1d 	vpgatherdq 0x805f808(,%xmm3,1),%ymm5{%k1}
 804aa1b:	08 f8 05 08 
 804aa1f:	c5 fc 46 c8          	kxnorw %k0,%k0,%k1
 804aa23:	62 f2 fd 29 90 34 25 	vpgatherdq 0x805f808(,%xmm4,1),%ymm6{%k1}
 804aa2a:	08 f8 05 08 
 804aa2e:	62 f1 7d 08 76 cb    	vpcmpeqd %xmm3,%xmm0,%k1
 804aa34:	62 f1 7d 08 76 d4    	vpcmpeqd %xmm4,%xmm0,%k2
 804aa3a:	62 f1 fd a9 6f dd    	vmovdqa64 %ymm5,%ymm3{%k1}{z}
 804aa40:	c5 e5 d4 d2          	vpaddq %ymm2,%ymm3,%ymm2
 804aa44:	62 f1 fd aa 6f de    	vmovdqa64 %ymm6,%ymm3{%k2}{z}
 804aa4a:	c5 fa 6f a1 ac 33 06 	vmovdqu 0x80633ac(%ecx),%xmm4
 804aa51:	08 
 804aa52:	c5 fa 6f a9 bc 33 06 	vmovdqu 0x80633bc(%ecx),%xmm5
 804aa59:	08 
 804aa5a:	c5 fc 46 c8          	kxnorw %k0,%k0,%k1
 804aa5e:	62 f2 fd 29 90 34 25 	vpgatherdq 0x805f808(,%xmm4,1),%ymm6{%k1}
 804aa65:	08 f8 05 08 
 804aa69:	c5 fc 46 c8          	kxnorw %k0,%k0,%k1
 804aa6d:	62 f2 fd 29 90 3c 2d 	vpgatherdq 0x805f808(,%xmm5,1),%ymm7{%k1}
 804aa74:	08 f8 05 08 
 804aa78:	c5 e5 d4 d9          	vpaddq %ymm1,%ymm3,%ymm3
 804aa7c:	62 f1 7d 08 76 cc    	vpcmpeqd %xmm4,%xmm0,%k1
 804aa82:	62 f1 7d 08 76 d5    	vpcmpeqd %xmm5,%xmm0,%k2
 804aa88:	c5 fa 6f 89 cc 33 06 	vmovdqu 0x80633cc(%ecx),%xmm1
 804aa8f:	08 
 804aa90:	c5 fc 46 d8          	kxnorw %k0,%k0,%k3
 804aa94:	62 f1 7d 08 76 e1    	vpcmpeqd %xmm1,%xmm0,%k4
 804aa9a:	62 f2 fd 2b 90 24 0d 	vpgatherdq 0x805f808(,%xmm1,1),%ymm4{%k3}
 804aaa1:	08 f8 05 08 
 804aaa5:	62 f1 fd a9 6f ce    	vmovdqa64 %ymm6,%ymm1{%k1}{z}
 804aaab:	62 f1 fd ac 6f e4    	vmovdqa64 %ymm4,%ymm4{%k4}{z}
 804aab1:	c5 f5 d4 cc          	vpaddq %ymm4,%ymm1,%ymm1
 804aab5:	c5 fa 6f a1 dc 33 06 	vmovdqu 0x80633dc(%ecx),%xmm4
 804aabc:	08 
 804aabd:	c5 fc 46 c8          	kxnorw %k0,%k0,%k1
 804aac1:	62 f1 7d 08 76 dc    	vpcmpeqd %xmm4,%xmm0,%k3
 804aac7:	62 f2 fd 29 90 2c 25 	vpgatherdq 0x805f808(,%xmm4,1),%ymm5{%k1}
 804aace:	08 f8 05 08 
 804aad2:	c5 ed d4 c9          	vpaddq %ymm1,%ymm2,%ymm1
 804aad6:	62 f1 fd aa 6f d7    	vmovdqa64 %ymm7,%ymm2{%k2}{z}
 804aadc:	62 f1 fd ab 6f e5    	vmovdqa64 %ymm5,%ymm4{%k3}{z}
 804aae2:	c5 ed d4 d4          	vpaddq %ymm4,%ymm2,%ymm2
 804aae6:	c5 e5 d4 da          	vpaddq %ymm2,%ymm3,%ymm3
 804aaea:	85 c9                	test   %ecx,%ecx
 804aaec:	74 56                	je     804ab44 <main+0x1924>
 804aaee:	c5 fa 6f 91 ec 33 06 	vmovdqu 0x80633ec(%ecx),%xmm2
 804aaf5:	08 
 804aaf6:	c5 fa 6f a1 fc 33 06 	vmovdqu 0x80633fc(%ecx),%xmm4
 804aafd:	08 
 804aafe:	c5 fc 46 c8          	kxnorw %k0,%k0,%k1
 804ab02:	62 f2 fd 29 90 2c 15 	vpgatherdq 0x805f808(,%xmm2,1),%ymm5{%k1}
 804ab09:	08 f8 05 08 
 804ab0d:	c5 fc 46 c8          	kxnorw %k0,%k0,%k1
 804ab11:	62 f2 fd 29 90 34 25 	vpgatherdq 0x805f808(,%xmm4,1),%ymm6{%k1}
 804ab18:	08 f8 05 08 
 804ab1c:	62 f1 7d 08 76 ca    	vpcmpeqd %xmm2,%xmm0,%k1
 804ab22:	62 f1 7d 08 76 d4    	vpcmpeqd %xmm4,%xmm0,%k2
 804ab28:	62 f1 fd a9 6f d5    	vmovdqa64 %ymm5,%ymm2{%k1}{z}
 804ab2e:	62 f1 fd aa 6f e6    	vmovdqa64 %ymm6,%ymm4{%k2}{z}
 804ab34:	c5 ed d4 d1          	vpaddq %ymm1,%ymm2,%ymm2
 804ab38:	c5 dd d4 cb          	vpaddq %ymm3,%ymm4,%ymm1
 804ab3c:	83 e9 80             	sub    $0xffffff80,%ecx
 804ab3f:	e9 bc fe ff ff       	jmp    804aa00 <main+0x17e0>
 804ab44:	c5 e5 d4 c1          	vpaddq %ymm1,%ymm3,%ymm0
 804ab48:	c4 e3 7d 39 c1 01    	vextracti128 $0x1,%ymm0,%xmm1
 804ab4e:	c5 f9 d4 c1          	vpaddq %xmm1,%xmm0,%xmm0
 804ab52:	c5 f9 70 c8 ee       	vpshufd $0xee,%xmm0,%xmm1
 804ab57:	c5 f9 d4 c1          	vpaddq %xmm1,%xmm0,%xmm0
 804ab5b:	c4 e3 79 16 c1 01    	vpextrd $0x1,%xmm0,%ecx
 804ab61:	c5 f9 7e c2          	vmovd  %xmm0,%edx
 804ab65:	31 ff                	xor    %edi,%edi
 804ab67:	3d c8 07 00 00       	cmp    $0x7c8,%eax
 804ab6c:	be 00 00 00 00       	mov    $0x0,%esi
 804ab71:	bb b2 10 a2 fb       	mov    $0xfba210b2,%ebx
 804ab76:	0f 44 f3             	cmove  %ebx,%esi
 804ab79:	bb 00 00 00 00       	mov    $0x0,%ebx
 804ab7e:	bd 82 49 eb 79       	mov    $0x79eb4982,%ebp
 804ab83:	0f 44 dd             	cmove  %ebp,%ebx
 804ab86:	01 d3                	add    %edx,%ebx
 804ab88:	11 ce                	adc    %ecx,%esi
 804ab8a:	3d d0 07 00 00       	cmp    $0x7d0,%eax
 804ab8f:	b9 00 00 00 00       	mov    $0x0,%ecx
 804ab94:	ba 3a ba 80 9d       	mov    $0x9d80ba3a,%edx
 804ab99:	0f 44 ca             	cmove  %edx,%ecx
 804ab9c:	ba 00 00 00 00       	mov    $0x0,%edx
 804aba1:	bd e9 a7 27 74       	mov    $0x7427a7e9,%ebp
 804aba6:	0f 44 d5             	cmove  %ebp,%edx
 804aba9:	01 da                	add    %ebx,%edx
 804abab:	11 f1                	adc    %esi,%ecx
 804abad:	3d d8 07 00 00       	cmp    $0x7d8,%eax
 804abb2:	be 00 00 00 00       	mov    $0x0,%esi
 804abb7:	bb 21 6e 4f d1       	mov    $0xd14f6e21,%ebx
 804abbc:	0f 44 f3             	cmove  %ebx,%esi
 804abbf:	bb 00 00 00 00       	mov    $0x0,%ebx
 804abc4:	bd 93 f0 bf 42       	mov    $0x42bff093,%ebp
 804abc9:	0f 44 dd             	cmove  %ebp,%ebx
 804abcc:	01 d3                	add    %edx,%ebx
 804abce:	11 ce                	adc    %ecx,%esi
 804abd0:	3d e0 07 00 00       	cmp    $0x7e0,%eax
 804abd5:	b9 00 00 00 00       	mov    $0x0,%ecx
 804abda:	ba 7c 63 1f 21       	mov    $0x211f637c,%edx
 804abdf:	0f 44 ca             	cmove  %edx,%ecx
 804abe2:	ba 00 00 00 00       	mov    $0x0,%edx
 804abe7:	bd d9 5d 42 f8       	mov    $0xf8425dd9,%ebp
 804abec:	0f 44 d5             	cmove  %ebp,%edx
 804abef:	01 da                	add    %ebx,%edx
 804abf1:	11 f1                	adc    %esi,%ecx
 804abf3:	3d e8 07 00 00       	cmp    $0x7e8,%eax
 804abf8:	be 00 00 00 00       	mov    $0x0,%esi
 804abfd:	bb 0f c5 ca 43       	mov    $0x43cac50f,%ebx
 804ac02:	0f 44 f3             	cmove  %ebx,%esi
 804ac05:	bb 00 00 00 00       	mov    $0x0,%ebx
 804ac0a:	bd 5d 4c 86 1e       	mov    $0x1e864c5d,%ebp
 804ac0f:	0f 44 dd             	cmove  %ebp,%ebx
 804ac12:	01 d3                	add    %edx,%ebx
 804ac14:	11 ce                	adc    %ecx,%esi
 804ac16:	3d f0 07 00 00       	cmp    $0x7f0,%eax
 804ac1b:	b9 00 00 00 00       	mov    $0x0,%ecx
 804ac20:	ba 92 38 aa e3       	mov    $0xe3aa3892,%edx
 804ac25:	0f 44 ca             	cmove  %edx,%ecx
 804ac28:	ba 00 00 00 00       	mov    $0x0,%edx
 804ac2d:	bd da 71 db 39       	mov    $0x39db71da,%ebp
 804ac32:	0f 44 d5             	cmove  %ebp,%edx
 804ac35:	01 da                	add    %ebx,%edx
 804ac37:	11 f1                	adc    %esi,%ecx
 804ac39:	3d f8 07 00 00       	cmp    $0x7f8,%eax
 804ac3e:	be 00 00 00 00       	mov    $0x0,%esi
 804ac43:	b8 15 57 42 c6       	mov    $0xc6425715,%eax
 804ac48:	0f 44 f0             	cmove  %eax,%esi
 804ac4b:	b8 ec d3 91 2a       	mov    $0x2a91d3ec,%eax
 804ac50:	0f 44 f8             	cmove  %eax,%edi
 804ac53:	01 d7                	add    %edx,%edi
 804ac55:	89 bc 24 00 01 00 00 	mov    %edi,0x100(%esp)
 804ac5c:	11 ce                	adc    %ecx,%esi
 804ac5e:	89 74 24 14          	mov    %esi,0x14(%esp)
 804ac62:	8b 44 24 60          	mov    0x60(%esp),%eax
 804ac66:	c1 e8 05             	shr    $0x5,%eax
 804ac69:	25 f8 07 00 00       	and    $0x7f8,%eax
 804ac6e:	62 f2 7d 08 7c c0    	vpbroadcastd %eax,%xmm0
 804ac74:	c5 e9 ef d2          	vpxor  %xmm2,%xmm2,%xmm2
 804ac78:	b9 80 fc ff ff       	mov    $0xfffffc80,%ecx
 804ac7d:	c5 f1 ef c9          	vpxor  %xmm1,%xmm1,%xmm1
 804ac81:	66 66 66 66 66 66 2e 	data16 data16 data16 data16 data16 nopw %cs:0x0(%eax,%eax,1)
 804ac88:	0f 1f 84 00 00 00 00 
 804ac8f:	00 
 804ac90:	c5 fa 6f 99 8c 33 06 	vmovdqu 0x806338c(%ecx),%xmm3
 804ac97:	08 
 804ac98:	c5 fa 6f a1 9c 33 06 	vmovdqu 0x806339c(%ecx),%xmm4
 804ac9f:	08 
 804aca0:	c5 fc 46 c8          	kxnorw %k0,%k0,%k1
 804aca4:	62 f2 fd 29 90 2c 1d 	vpgatherdq 0x8060008(,%xmm3,1),%ymm5{%k1}
 804acab:	08 00 06 08 
 804acaf:	c5 fc 46 c8          	kxnorw %k0,%k0,%k1
 804acb3:	62 f2 fd 29 90 34 25 	vpgatherdq 0x8060008(,%xmm4,1),%ymm6{%k1}
 804acba:	08 00 06 08 
 804acbe:	62 f1 7d 08 76 cb    	vpcmpeqd %xmm3,%xmm0,%k1
 804acc4:	62 f1 7d 08 76 d4    	vpcmpeqd %xmm4,%xmm0,%k2
 804acca:	62 f1 fd a9 6f dd    	vmovdqa64 %ymm5,%ymm3{%k1}{z}
 804acd0:	c5 e5 d4 d2          	vpaddq %ymm2,%ymm3,%ymm2
 804acd4:	62 f1 fd aa 6f de    	vmovdqa64 %ymm6,%ymm3{%k2}{z}
 804acda:	c5 fa 6f a1 ac 33 06 	vmovdqu 0x80633ac(%ecx),%xmm4
 804ace1:	08 
 804ace2:	c5 fa 6f a9 bc 33 06 	vmovdqu 0x80633bc(%ecx),%xmm5
 804ace9:	08 
 804acea:	c5 fc 46 c8          	kxnorw %k0,%k0,%k1
 804acee:	62 f2 fd 29 90 34 25 	vpgatherdq 0x8060008(,%xmm4,1),%ymm6{%k1}
 804acf5:	08 00 06 08 
 804acf9:	c5 fc 46 c8          	kxnorw %k0,%k0,%k1
 804acfd:	62 f2 fd 29 90 3c 2d 	vpgatherdq 0x8060008(,%xmm5,1),%ymm7{%k1}
 804ad04:	08 00 06 08 
 804ad08:	c5 e5 d4 d9          	vpaddq %ymm1,%ymm3,%ymm3
 804ad0c:	62 f1 7d 08 76 cc    	vpcmpeqd %xmm4,%xmm0,%k1
 804ad12:	62 f1 7d 08 76 d5    	vpcmpeqd %xmm5,%xmm0,%k2
 804ad18:	c5 fa 6f 89 cc 33 06 	vmovdqu 0x80633cc(%ecx),%xmm1
 804ad1f:	08 
 804ad20:	c5 fc 46 d8          	kxnorw %k0,%k0,%k3
 804ad24:	62 f1 7d 08 76 e1    	vpcmpeqd %xmm1,%xmm0,%k4
 804ad2a:	62 f2 fd 2b 90 24 0d 	vpgatherdq 0x8060008(,%xmm1,1),%ymm4{%k3}
 804ad31:	08 00 06 08 
 804ad35:	62 f1 fd a9 6f ce    	vmovdqa64 %ymm6,%ymm1{%k1}{z}
 804ad3b:	62 f1 fd ac 6f e4    	vmovdqa64 %ymm4,%ymm4{%k4}{z}
 804ad41:	c5 f5 d4 cc          	vpaddq %ymm4,%ymm1,%ymm1
 804ad45:	c5 fa 6f a1 dc 33 06 	vmovdqu 0x80633dc(%ecx),%xmm4
 804ad4c:	08 
 804ad4d:	c5 fc 46 c8          	kxnorw %k0,%k0,%k1
 804ad51:	62 f1 7d 08 76 dc    	vpcmpeqd %xmm4,%xmm0,%k3
 804ad57:	62 f2 fd 29 90 2c 25 	vpgatherdq 0x8060008(,%xmm4,1),%ymm5{%k1}
 804ad5e:	08 00 06 08 
 804ad62:	c5 ed d4 c9          	vpaddq %ymm1,%ymm2,%ymm1
 804ad66:	62 f1 fd aa 6f d7    	vmovdqa64 %ymm7,%ymm2{%k2}{z}
 804ad6c:	62 f1 fd ab 6f e5    	vmovdqa64 %ymm5,%ymm4{%k3}{z}
 804ad72:	c5 ed d4 d4          	vpaddq %ymm4,%ymm2,%ymm2
 804ad76:	c5 e5 d4 da          	vpaddq %ymm2,%ymm3,%ymm3
 804ad7a:	85 c9                	test   %ecx,%ecx
 804ad7c:	74 56                	je     804add4 <main+0x1bb4>
 804ad7e:	c5 fa 6f 91 ec 33 06 	vmovdqu 0x80633ec(%ecx),%xmm2
 804ad85:	08 
 804ad86:	c5 fa 6f a1 fc 33 06 	vmovdqu 0x80633fc(%ecx),%xmm4
 804ad8d:	08 
 804ad8e:	c5 fc 46 c8          	kxnorw %k0,%k0,%k1
 804ad92:	62 f2 fd 29 90 2c 15 	vpgatherdq 0x8060008(,%xmm2,1),%ymm5{%k1}
 804ad99:	08 00 06 08 
 804ad9d:	c5 fc 46 c8          	kxnorw %k0,%k0,%k1
 804ada1:	62 f2 fd 29 90 34 25 	vpgatherdq 0x8060008(,%xmm4,1),%ymm6{%k1}
 804ada8:	08 00 06 08 
 804adac:	62 f1 7d 08 76 ca    	vpcmpeqd %xmm2,%xmm0,%k1
 804adb2:	62 f1 7d 08 76 d4    	vpcmpeqd %xmm4,%xmm0,%k2
 804adb8:	62 f1 fd a9 6f d5    	vmovdqa64 %ymm5,%ymm2{%k1}{z}
 804adbe:	62 f1 fd aa 6f e6    	vmovdqa64 %ymm6,%ymm4{%k2}{z}
 804adc4:	c5 ed d4 d1          	vpaddq %ymm1,%ymm2,%ymm2
 804adc8:	c5 dd d4 cb          	vpaddq %ymm3,%ymm4,%ymm1
 804adcc:	83 e9 80             	sub    $0xffffff80,%ecx
 804adcf:	e9 bc fe ff ff       	jmp    804ac90 <main+0x1a70>
 804add4:	c5 e5 d4 c1          	vpaddq %ymm1,%ymm3,%ymm0
 804add8:	c4 e3 7d 39 c1 01    	vextracti128 $0x1,%ymm0,%xmm1
 804adde:	c5 f9 d4 c1          	vpaddq %xmm1,%xmm0,%xmm0
 804ade2:	c5 f9 70 c8 ee       	vpshufd $0xee,%xmm0,%xmm1
 804ade7:	c5 f9 d4 c1          	vpaddq %xmm1,%xmm0,%xmm0
 804adeb:	c4 e3 79 16 c1 01    	vpextrd $0x1,%xmm0,%ecx
 804adf1:	c5 f9 7e c2          	vmovd  %xmm0,%edx
 804adf5:	31 ff                	xor    %edi,%edi
 804adf7:	3d c8 07 00 00       	cmp    $0x7c8,%eax
 804adfc:	be 00 00 00 00       	mov    $0x0,%esi
 804ae01:	bb fb a2 10 b2       	mov    $0xb210a2fb,%ebx
 804ae06:	0f 44 f3             	cmove  %ebx,%esi
 804ae09:	bb 00 00 00 00       	mov    $0x0,%ebx
 804ae0e:	bd 79 eb 49 82       	mov    $0x8249eb79,%ebp
 804ae13:	0f 44 dd             	cmove  %ebp,%ebx
 804ae16:	01 d3                	add    %edx,%ebx
 804ae18:	11 ce                	adc    %ecx,%esi
 804ae1a:	3d d0 07 00 00       	cmp    $0x7d0,%eax
 804ae1f:	b9 00 00 00 00       	mov    $0x0,%ecx
 804ae24:	ba 9d 80 ba 3a       	mov    $0x3aba809d,%edx
 804ae29:	0f 44 ca             	cmove  %edx,%ecx
 804ae2c:	ba 00 00 00 00       	mov    $0x0,%edx
 804ae31:	bd 74 27 a7 e9       	mov    $0xe9a72774,%ebp
 804ae36:	0f 44 d5             	cmove  %ebp,%edx
 804ae39:	01 da                	add    %ebx,%edx
 804ae3b:	11 f1                	adc    %esi,%ecx
 804ae3d:	3d d8 07 00 00       	cmp    $0x7d8,%eax
 804ae42:	be 00 00 00 00       	mov    $0x0,%esi
 804ae47:	bb d1 4f 6e 21       	mov    $0x216e4fd1,%ebx
 804ae4c:	0f 44 f3             	cmove  %ebx,%esi
 804ae4f:	bb 00 00 00 00       	mov    $0x0,%ebx
 804ae54:	bd 42 bf f0 93       	mov    $0x93f0bf42,%ebp
 804ae59:	0f 44 dd             	cmove  %ebp,%ebx
 804ae5c:	01 d3                	add    %edx,%ebx
 804ae5e:	11 ce                	adc    %ecx,%esi
 804ae60:	3d e0 07 00 00       	cmp    $0x7e0,%eax
 804ae65:	b9 00 00 00 00       	mov    $0x0,%ecx
 804ae6a:	ba 21 1f 63 7c       	mov    $0x7c631f21,%edx
 804ae6f:	0f 44 ca             	cmove  %edx,%ecx
 804ae72:	ba 00 00 00 00       	mov    $0x0,%edx
 804ae77:	bd f8 42 5d d9       	mov    $0xd95d42f8,%ebp
 804ae7c:	0f 44 d5             	cmove  %ebp,%edx
 804ae7f:	01 da                	add    %ebx,%edx
 804ae81:	11 f1                	adc    %esi,%ecx
 804ae83:	3d e8 07 00 00       	cmp    $0x7e8,%eax
 804ae88:	be 00 00 00 00       	mov    $0x0,%esi
 804ae8d:	bb 43 ca c5 0f       	mov    $0xfc5ca43,%ebx
 804ae92:	0f 44 f3             	cmove  %ebx,%esi
 804ae95:	bb 00 00 00 00       	mov    $0x0,%ebx
 804ae9a:	bd 1e 86 4c 5d       	mov    $0x5d4c861e,%ebp
 804ae9f:	0f 44 dd             	cmove  %ebp,%ebx
 804aea2:	01 d3                	add    %edx,%ebx
 804aea4:	11 ce                	adc    %ecx,%esi
 804aea6:	3d f0 07 00 00       	cmp    $0x7f0,%eax
 804aeab:	b9 00 00 00 00       	mov    $0x0,%ecx
 804aeb0:	ba e3 aa 38 92       	mov    $0x9238aae3,%edx
 804aeb5:	0f 44 ca             	cmove  %edx,%ecx
 804aeb8:	ba 00 00 00 00       	mov    $0x0,%edx
 804aebd:	bd 39 db 71 da       	mov    $0xda71db39,%ebp
 804aec2:	0f 44 d5             	cmove  %ebp,%edx
 804aec5:	01 da                	add    %ebx,%edx
 804aec7:	11 f1                	adc    %esi,%ecx
 804aec9:	3d f8 07 00 00       	cmp    $0x7f8,%eax
 804aece:	be 00 00 00 00       	mov    $0x0,%esi
 804aed3:	b8 c6 42 57 15       	mov    $0x155742c6,%eax
 804aed8:	0f 44 f0             	cmove  %eax,%esi
 804aedb:	b8 2a 91 d3 ec       	mov    $0xecd3912a,%eax
 804aee0:	0f 44 f8             	cmove  %eax,%edi
 804aee3:	01 d7                	add    %edx,%edi
 804aee5:	89 7c 24 10          	mov    %edi,0x10(%esp)
 804aee9:	11 ce                	adc    %ecx,%esi
 804aeeb:	89 74 24 0c          	mov    %esi,0xc(%esp)
 804aeef:	8b 44 24 20          	mov    0x20(%esp),%eax
 804aef3:	8b 4c 24 60          	mov    0x60(%esp),%ecx
 804aef7:	0f a4 c1 03          	shld   $0x3,%eax,%ecx
 804aefb:	81 e1 f8 07 00 00    	and    $0x7f8,%ecx
 804af01:	89 ca                	mov    %ecx,%edx
 804af03:	62 f2 7d 08 7c c1    	vpbroadcastd %ecx,%xmm0
 804af09:	c5 e9 ef d2          	vpxor  %xmm2,%xmm2,%xmm2
 804af0d:	b8 80 fc ff ff       	mov    $0xfffffc80,%eax
 804af12:	c5 f1 ef c9          	vpxor  %xmm1,%xmm1,%xmm1
 804af16:	66 2e 0f 1f 84 00 00 	nopw   %cs:0x0(%eax,%eax,1)
 804af1d:	00 00 00 
 804af20:	c5 fa 6f 98 8c 33 06 	vmovdqu 0x806338c(%eax),%xmm3
 804af27:	08 
 804af28:	c5 fa 6f a0 9c 33 06 	vmovdqu 0x806339c(%eax),%xmm4
 804af2f:	08 
 804af30:	c5 fc 46 c8          	kxnorw %k0,%k0,%k1
 804af34:	62 f2 fd 29 90 2c 1d 	vpgatherdq 0x8060808(,%xmm3,1),%ymm5{%k1}
 804af3b:	08 08 06 08 
 804af3f:	c5 fc 46 c8          	kxnorw %k0,%k0,%k1
 804af43:	62 f2 fd 29 90 34 25 	vpgatherdq 0x8060808(,%xmm4,1),%ymm6{%k1}
 804af4a:	08 08 06 08 
 804af4e:	62 f1 7d 08 76 cb    	vpcmpeqd %xmm3,%xmm0,%k1
 804af54:	62 f1 7d 08 76 d4    	vpcmpeqd %xmm4,%xmm0,%k2
 804af5a:	62 f1 fd a9 6f dd    	vmovdqa64 %ymm5,%ymm3{%k1}{z}
 804af60:	c5 e5 d4 d2          	vpaddq %ymm2,%ymm3,%ymm2
 804af64:	62 f1 fd aa 6f de    	vmovdqa64 %ymm6,%ymm3{%k2}{z}
 804af6a:	c5 fa 6f a0 ac 33 06 	vmovdqu 0x80633ac(%eax),%xmm4
 804af71:	08 
 804af72:	c5 fa 6f a8 bc 33 06 	vmovdqu 0x80633bc(%eax),%xmm5
 804af79:	08 
 804af7a:	c5 fc 46 c8          	kxnorw %k0,%k0,%k1
 804af7e:	62 f2 fd 29 90 34 25 	vpgatherdq 0x8060808(,%xmm4,1),%ymm6{%k1}
 804af85:	08 08 06 08 
 804af89:	c5 fc 46 c8          	kxnorw %k0,%k0,%k1
 804af8d:	62 f2 fd 29 90 3c 2d 	vpgatherdq 0x8060808(,%xmm5,1),%ymm7{%k1}
 804af94:	08 08 06 08 
 804af98:	c5 e5 d4 d9          	vpaddq %ymm1,%ymm3,%ymm3
 804af9c:	62 f1 7d 08 76 cc    	vpcmpeqd %xmm4,%xmm0,%k1
 804afa2:	62 f1 7d 08 76 d5    	vpcmpeqd %xmm5,%xmm0,%k2
 804afa8:	c5 fa 6f 88 cc 33 06 	vmovdqu 0x80633cc(%eax),%xmm1
 804afaf:	08 
 804afb0:	c5 fc 46 d8          	kxnorw %k0,%k0,%k3
 804afb4:	62 f1 7d 08 76 e1    	vpcmpeqd %xmm1,%xmm0,%k4
 804afba:	62 f2 fd 2b 90 24 0d 	vpgatherdq 0x8060808(,%xmm1,1),%ymm4{%k3}
 804afc1:	08 08 06 08 
 804afc5:	62 f1 fd a9 6f ce    	vmovdqa64 %ymm6,%ymm1{%k1}{z}
 804afcb:	62 f1 fd ac 6f e4    	vmovdqa64 %ymm4,%ymm4{%k4}{z}
 804afd1:	c5 f5 d4 cc          	vpaddq %ymm4,%ymm1,%ymm1
 804afd5:	c5 fa 6f a0 dc 33 06 	vmovdqu 0x80633dc(%eax),%xmm4
 804afdc:	08 
 804afdd:	c5 fc 46 c8          	kxnorw %k0,%k0,%k1
 804afe1:	62 f1 7d 08 76 dc    	vpcmpeqd %xmm4,%xmm0,%k3
 804afe7:	62 f2 fd 29 90 2c 25 	vpgatherdq 0x8060808(,%xmm4,1),%ymm5{%k1}
 804afee:	08 08 06 08 
 804aff2:	c5 ed d4 c9          	vpaddq %ymm1,%ymm2,%ymm1
 804aff6:	62 f1 fd aa 6f d7    	vmovdqa64 %ymm7,%ymm2{%k2}{z}
 804affc:	62 f1 fd ab 6f e5    	vmovdqa64 %ymm5,%ymm4{%k3}{z}
 804b002:	c5 ed d4 d4          	vpaddq %ymm4,%ymm2,%ymm2
 804b006:	c5 e5 d4 da          	vpaddq %ymm2,%ymm3,%ymm3
 804b00a:	85 c0                	test   %eax,%eax
 804b00c:	74 56                	je     804b064 <main+0x1e44>
 804b00e:	c5 fa 6f 90 ec 33 06 	vmovdqu 0x80633ec(%eax),%xmm2
 804b015:	08 
 804b016:	c5 fa 6f a0 fc 33 06 	vmovdqu 0x80633fc(%eax),%xmm4
 804b01d:	08 
 804b01e:	c5 fc 46 c8          	kxnorw %k0,%k0,%k1
 804b022:	62 f2 fd 29 90 2c 15 	vpgatherdq 0x8060808(,%xmm2,1),%ymm5{%k1}
 804b029:	08 08 06 08 
 804b02d:	c5 fc 46 c8          	kxnorw %k0,%k0,%k1
 804b031:	62 f2 fd 29 90 34 25 	vpgatherdq 0x8060808(,%xmm4,1),%ymm6{%k1}
 804b038:	08 08 06 08 
 804b03c:	62 f1 7d 08 76 ca    	vpcmpeqd %xmm2,%xmm0,%k1
 804b042:	62 f1 7d 08 76 d4    	vpcmpeqd %xmm4,%xmm0,%k2
 804b048:	62 f1 fd a9 6f d5    	vmovdqa64 %ymm5,%ymm2{%k1}{z}
 804b04e:	62 f1 fd aa 6f e6    	vmovdqa64 %ymm6,%ymm4{%k2}{z}
 804b054:	c5 ed d4 d1          	vpaddq %ymm1,%ymm2,%ymm2
 804b058:	c5 dd d4 cb          	vpaddq %ymm3,%ymm4,%ymm1
 804b05c:	83 e8 80             	sub    $0xffffff80,%eax
 804b05f:	e9 bc fe ff ff       	jmp    804af20 <main+0x1d00>
 804b064:	c5 e5 d4 c1          	vpaddq %ymm1,%ymm3,%ymm0
 804b068:	c4 e3 7d 39 c1 01    	vextracti128 $0x1,%ymm0,%xmm1
 804b06e:	c5 f9 d4 c1          	vpaddq %xmm1,%xmm0,%xmm0
 804b072:	c5 f9 70 c8 ee       	vpshufd $0xee,%xmm0,%xmm1
 804b077:	c5 f9 d4 c1          	vpaddq %xmm1,%xmm0,%xmm0
 804b07b:	c4 e3 79 16 c0 01    	vpextrd $0x1,%xmm0,%eax
 804b081:	c5 f9 7e c1          	vmovd  %xmm0,%ecx
 804b085:	31 ff                	xor    %edi,%edi
 804b087:	89 d5                	mov    %edx,%ebp
 804b089:	81 fa c8 07 00 00    	cmp    $0x7c8,%edx
 804b08f:	ba 00 00 00 00       	mov    $0x0,%edx
 804b094:	be a2 fb b2 10       	mov    $0x10b2fba2,%esi
 804b099:	0f 44 d6             	cmove  %esi,%edx
 804b09c:	be 00 00 00 00       	mov    $0x0,%esi
 804b0a1:	bb eb 79 82 49       	mov    $0x498279eb,%ebx
 804b0a6:	0f 44 f3             	cmove  %ebx,%esi
 804b0a9:	01 ce                	add    %ecx,%esi
 804b0ab:	11 c2                	adc    %eax,%edx
 804b0ad:	81 fd d0 07 00 00    	cmp    $0x7d0,%ebp
 804b0b3:	b8 00 00 00 00       	mov    $0x0,%eax
 804b0b8:	b9 80 9d 3a ba       	mov    $0xba3a9d80,%ecx
 804b0bd:	0f 44 c1             	cmove  %ecx,%eax
 804b0c0:	b9 00 00 00 00       	mov    $0x0,%ecx
 804b0c5:	bb 27 74 e9 a7       	mov    $0xa7e97427,%ebx
 804b0ca:	0f 44 cb             	cmove  %ebx,%ecx
 804b0cd:	01 f1                	add    %esi,%ecx
 804b0cf:	11 d0                	adc    %edx,%eax
 804b0d1:	81 fd d8 07 00 00    	cmp    $0x7d8,%ebp
 804b0d7:	ba 00 00 00 00       	mov    $0x0,%edx
 804b0dc:	be 4f d1 21 6e       	mov    $0x6e21d14f,%esi
 804b0e1:	0f 44 d6             	cmove  %esi,%edx
 804b0e4:	be 00 00 00 00       	mov    $0x0,%esi
 804b0e9:	bb bf 42 93 f0       	mov    $0xf09342bf,%ebx
 804b0ee:	0f 44 f3             	cmove  %ebx,%esi
 804b0f1:	01 ce                	add    %ecx,%esi
 804b0f3:	11 c2                	adc    %eax,%edx
 804b0f5:	81 fd e0 07 00 00    	cmp    $0x7e0,%ebp
 804b0fb:	b8 00 00 00 00       	mov    $0x0,%eax
 804b100:	b9 1f 21 7c 63       	mov    $0x637c211f,%ecx
 804b105:	0f 44 c1             	cmove  %ecx,%eax
 804b108:	b9 00 00 00 00       	mov    $0x0,%ecx
 804b10d:	bb 42 f8 d9 5d       	mov    $0x5dd9f842,%ebx
 804b112:	0f 44 cb             	cmove  %ebx,%ecx
 804b115:	01 f1                	add    %esi,%ecx
 804b117:	11 d0                	adc    %edx,%eax
 804b119:	81 fd e8 07 00 00    	cmp    $0x7e8,%ebp
 804b11f:	ba 00 00 00 00       	mov    $0x0,%edx
 804b124:	be ca 43 0f c5       	mov    $0xc50f43ca,%esi
 804b129:	0f 44 d6             	cmove  %esi,%edx
 804b12c:	be 00 00 00 00       	mov    $0x0,%esi
 804b131:	bb 86 1e 5d 4c       	mov    $0x4c5d1e86,%ebx
 804b136:	0f 44 f3             	cmove  %ebx,%esi
 804b139:	01 ce                	add    %ecx,%esi
 804b13b:	11 c2                	adc    %eax,%edx
 804b13d:	81 fd f0 07 00 00    	cmp    $0x7f0,%ebp
 804b143:	b8 00 00 00 00       	mov    $0x0,%eax
 804b148:	b9 aa e3 92 38       	mov    $0x3892e3aa,%ecx
 804b14d:	0f 44 c1             	cmove  %ecx,%eax
 804b150:	b9 00 00 00 00       	mov    $0x0,%ecx
 804b155:	bb db 39 da 71       	mov    $0x71da39db,%ebx
 804b15a:	0f 44 cb             	cmove  %ebx,%ecx
 804b15d:	01 f1                	add    %esi,%ecx
 804b15f:	11 d0                	adc    %edx,%eax
 804b161:	81 fd f8 07 00 00    	cmp    $0x7f8,%ebp
 804b167:	be 00 00 00 00       	mov    $0x0,%esi
 804b16c:	ba 42 c6 15 57       	mov    $0x5715c642,%edx
 804b171:	0f 44 f2             	cmove  %edx,%esi
 804b174:	ba 91 2a ec d3       	mov    $0xd3ec2a91,%edx
 804b179:	0f 44 fa             	cmove  %edx,%edi
 804b17c:	01 cf                	add    %ecx,%edi
 804b17e:	89 7c 24 60          	mov    %edi,0x60(%esp)
 804b182:	11 c6                	adc    %eax,%esi
 804b184:	89 74 24 08          	mov    %esi,0x8(%esp)
 804b188:	8b 44 24 20          	mov    0x20(%esp),%eax
 804b18c:	c1 e8 15             	shr    $0x15,%eax
 804b18f:	83 e0 f8             	and    $0xfffffff8,%eax
 804b192:	62 f2 7d 08 7c c0    	vpbroadcastd %eax,%xmm0
 804b198:	c5 e9 ef d2          	vpxor  %xmm2,%xmm2,%xmm2
 804b19c:	b9 80 fc ff ff       	mov    $0xfffffc80,%ecx
 804b1a1:	c5 f1 ef c9          	vpxor  %xmm1,%xmm1,%xmm1
 804b1a5:	66 66 2e 0f 1f 84 00 	data16 nopw %cs:0x0(%eax,%eax,1)
 804b1ac:	00 00 00 00 
 804b1b0:	c5 fa 6f 99 8c 33 06 	vmovdqu 0x806338c(%ecx),%xmm3
 804b1b7:	08 
 804b1b8:	c5 fa 6f a1 9c 33 06 	vmovdqu 0x806339c(%ecx),%xmm4
 804b1bf:	08 
 804b1c0:	c5 fc 46 c8          	kxnorw %k0,%k0,%k1
 804b1c4:	62 f2 fd 29 90 2c 1d 	vpgatherdq 0x8061008(,%xmm3,1),%ymm5{%k1}
 804b1cb:	08 10 06 08 
 804b1cf:	c5 fc 46 c8          	kxnorw %k0,%k0,%k1
 804b1d3:	62 f2 fd 29 90 34 25 	vpgatherdq 0x8061008(,%xmm4,1),%ymm6{%k1}
 804b1da:	08 10 06 08 
 804b1de:	62 f1 7d 08 76 cb    	vpcmpeqd %xmm3,%xmm0,%k1
 804b1e4:	62 f1 7d 08 76 d4    	vpcmpeqd %xmm4,%xmm0,%k2
 804b1ea:	62 f1 fd a9 6f dd    	vmovdqa64 %ymm5,%ymm3{%k1}{z}
 804b1f0:	c5 e5 d4 d2          	vpaddq %ymm2,%ymm3,%ymm2
 804b1f4:	62 f1 fd aa 6f de    	vmovdqa64 %ymm6,%ymm3{%k2}{z}
 804b1fa:	c5 fa 6f a1 ac 33 06 	vmovdqu 0x80633ac(%ecx),%xmm4
 804b201:	08 
 804b202:	c5 fa 6f a9 bc 33 06 	vmovdqu 0x80633bc(%ecx),%xmm5
 804b209:	08 
 804b20a:	c5 fc 46 c8          	kxnorw %k0,%k0,%k1
 804b20e:	62 f2 fd 29 90 34 25 	vpgatherdq 0x8061008(,%xmm4,1),%ymm6{%k1}
 804b215:	08 10 06 08 
 804b219:	c5 fc 46 c8          	kxnorw %k0,%k0,%k1
 804b21d:	62 f2 fd 29 90 3c 2d 	vpgatherdq 0x8061008(,%xmm5,1),%ymm7{%k1}
 804b224:	08 10 06 08 
 804b228:	c5 e5 d4 d9          	vpaddq %ymm1,%ymm3,%ymm3
 804b22c:	62 f1 7d 08 76 cc    	vpcmpeqd %xmm4,%xmm0,%k1
 804b232:	62 f1 7d 08 76 d5    	vpcmpeqd %xmm5,%xmm0,%k2
 804b238:	c5 fa 6f 89 cc 33 06 	vmovdqu 0x80633cc(%ecx),%xmm1
 804b23f:	08 
 804b240:	c5 fc 46 d8          	kxnorw %k0,%k0,%k3
 804b244:	62 f1 7d 08 76 e1    	vpcmpeqd %xmm1,%xmm0,%k4
 804b24a:	62 f2 fd 2b 90 24 0d 	vpgatherdq 0x8061008(,%xmm1,1),%ymm4{%k3}
 804b251:	08 10 06 08 
 804b255:	62 f1 fd a9 6f ce    	vmovdqa64 %ymm6,%ymm1{%k1}{z}
 804b25b:	62 f1 fd ac 6f e4    	vmovdqa64 %ymm4,%ymm4{%k4}{z}
 804b261:	c5 f5 d4 cc          	vpaddq %ymm4,%ymm1,%ymm1
 804b265:	c5 fa 6f a1 dc 33 06 	vmovdqu 0x80633dc(%ecx),%xmm4
 804b26c:	08 
 804b26d:	c5 fc 46 c8          	kxnorw %k0,%k0,%k1
 804b271:	62 f1 7d 08 76 dc    	vpcmpeqd %xmm4,%xmm0,%k3
 804b277:	62 f2 fd 29 90 2c 25 	vpgatherdq 0x8061008(,%xmm4,1),%ymm5{%k1}
 804b27e:	08 10 06 08 
 804b282:	c5 ed d4 c9          	vpaddq %ymm1,%ymm2,%ymm1
 804b286:	62 f1 fd aa 6f d7    	vmovdqa64 %ymm7,%ymm2{%k2}{z}
 804b28c:	62 f1 fd ab 6f e5    	vmovdqa64 %ymm5,%ymm4{%k3}{z}
 804b292:	c5 ed d4 d4          	vpaddq %ymm4,%ymm2,%ymm2
 804b296:	c5 e5 d4 da          	vpaddq %ymm2,%ymm3,%ymm3
 804b29a:	85 c9                	test   %ecx,%ecx
 804b29c:	74 56                	je     804b2f4 <main+0x20d4>
 804b29e:	c5 fa 6f 91 ec 33 06 	vmovdqu 0x80633ec(%ecx),%xmm2
 804b2a5:	08 
 804b2a6:	c5 fa 6f a1 fc 33 06 	vmovdqu 0x80633fc(%ecx),%xmm4
 804b2ad:	08 
 804b2ae:	c5 fc 46 c8          	kxnorw %k0,%k0,%k1
 804b2b2:	62 f2 fd 29 90 2c 15 	vpgatherdq 0x8061008(,%xmm2,1),%ymm5{%k1}
 804b2b9:	08 10 06 08 
 804b2bd:	c5 fc 46 c8          	kxnorw %k0,%k0,%k1
 804b2c1:	62 f2 fd 29 90 34 25 	vpgatherdq 0x8061008(,%xmm4,1),%ymm6{%k1}
 804b2c8:	08 10 06 08 
 804b2cc:	62 f1 7d 08 76 ca    	vpcmpeqd %xmm2,%xmm0,%k1
 804b2d2:	62 f1 7d 08 76 d4    	vpcmpeqd %xmm4,%xmm0,%k2
 804b2d8:	62 f1 fd a9 6f d5    	vmovdqa64 %ymm5,%ymm2{%k1}{z}
 804b2de:	62 f1 fd aa 6f e6    	vmovdqa64 %ymm6,%ymm4{%k2}{z}
 804b2e4:	c5 ed d4 d1          	vpaddq %ymm1,%ymm2,%ymm2
 804b2e8:	c5 dd d4 cb          	vpaddq %ymm3,%ymm4,%ymm1
 804b2ec:	83 e9 80             	sub    $0xffffff80,%ecx
 804b2ef:	e9 bc fe ff ff       	jmp    804b1b0 <main+0x1f90>
 804b2f4:	c5 e5 d4 c1          	vpaddq %ymm1,%ymm3,%ymm0
 804b2f8:	c4 e3 7d 39 c1 01    	vextracti128 $0x1,%ymm0,%xmm1
 804b2fe:	c5 f9 d4 c1          	vpaddq %xmm1,%xmm0,%xmm0
 804b302:	c5 f9 70 c8 ee       	vpshufd $0xee,%xmm0,%xmm1
 804b307:	c5 f9 d4 c1          	vpaddq %xmm1,%xmm0,%xmm0
 804b30b:	c4 e3 79 16 c1 01    	vpextrd $0x1,%xmm0,%ecx
 804b311:	c5 f9 7e c2          	vmovd  %xmm0,%edx
 804b315:	31 ed                	xor    %ebp,%ebp
 804b317:	3d c8 07 00 00       	cmp    $0x7c8,%eax
 804b31c:	be 00 00 00 00       	mov    $0x0,%esi
 804b321:	bf 49 82 79 eb       	mov    $0xeb798249,%edi
 804b326:	0f 44 f7             	cmove  %edi,%esi
 804b329:	bf 00 00 00 00       	mov    $0x0,%edi
 804b32e:	bb 10 b2 fb a2       	mov    $0xa2fbb210,%ebx
 804b333:	0f 44 fb             	cmove  %ebx,%edi
 804b336:	01 d7                	add    %edx,%edi
 804b338:	11 ce                	adc    %ecx,%esi
 804b33a:	3d d0 07 00 00       	cmp    $0x7d0,%eax
 804b33f:	b9 00 00 00 00       	mov    $0x0,%ecx
 804b344:	ba a7 e9 74 27       	mov    $0x2774e9a7,%edx
 804b349:	0f 44 ca             	cmove  %edx,%ecx
 804b34c:	ba 00 00 00 00       	mov    $0x0,%edx
 804b351:	bb ba 3a 9d 80       	mov    $0x809d3aba,%ebx
 804b356:	0f 44 d3             	cmove  %ebx,%edx
 804b359:	01 fa                	add    %edi,%edx
 804b35b:	11 f1                	adc    %esi,%ecx
 804b35d:	3d d8 07 00 00       	cmp    $0x7d8,%eax
 804b362:	be 00 00 00 00       	mov    $0x0,%esi
 804b367:	bf f0 93 42 bf       	mov    $0xbf4293f0,%edi
 804b36c:	0f 44 f7             	cmove  %edi,%esi
 804b36f:	bf 00 00 00 00       	mov    $0x0,%edi
 804b374:	bb 6e 21 d1 4f       	mov    $0x4fd1216e,%ebx
 804b379:	0f 44 fb             	cmove  %ebx,%edi
 804b37c:	01 d7                	add    %edx,%edi
 804b37e:	11 ce                	adc    %ecx,%esi
 804b380:	3d e0 07 00 00       	cmp    $0x7e0,%eax
 804b385:	b9 00 00 00 00       	mov    $0x0,%ecx
 804b38a:	ba 5d d9 f8 42       	mov    $0x42f8d95d,%edx
 804b38f:	0f 44 ca             	cmove  %edx,%ecx
 804b392:	ba 00 00 00 00       	mov    $0x0,%edx
 804b397:	bb 63 7c 21 1f       	mov    $0x1f217c63,%ebx
 804b39c:	0f 44 d3             	cmove  %ebx,%edx
 804b39f:	01 fa                	add    %edi,%edx
 804b3a1:	11 f1                	adc    %esi,%ecx
 804b3a3:	3d e8 07 00 00       	cmp    $0x7e8,%eax
 804b3a8:	be 00 00 00 00       	mov    $0x0,%esi
 804b3ad:	bf 4c 5d 1e 86       	mov    $0x861e5d4c,%edi
 804b3b2:	0f 44 f7             	cmove  %edi,%esi
 804b3b5:	bf 00 00 00 00       	mov    $0x0,%edi
 804b3ba:	bb c5 0f 43 ca       	mov    $0xca430fc5,%ebx
 804b3bf:	0f 44 fb             	cmove  %ebx,%edi
 804b3c2:	01 d7                	add    %edx,%edi
 804b3c4:	11 ce                	adc    %ecx,%esi
 804b3c6:	3d f0 07 00 00       	cmp    $0x7f0,%eax
 804b3cb:	b9 00 00 00 00       	mov    $0x0,%ecx
 804b3d0:	ba 71 da 39 db       	mov    $0xdb39da71,%edx
 804b3d5:	0f 44 ca             	cmove  %edx,%ecx
 804b3d8:	ba 00 00 00 00       	mov    $0x0,%edx
 804b3dd:	bb 38 92 e3 aa       	mov    $0xaae39238,%ebx
 804b3e2:	0f 44 d3             	cmove  %ebx,%edx
 804b3e5:	01 fa                	add    %edi,%edx
 804b3e7:	11 f1                	adc    %esi,%ecx
 804b3e9:	3d f8 07 00 00       	cmp    $0x7f8,%eax
 804b3ee:	be 00 00 00 00       	mov    $0x0,%esi
 804b3f3:	b8 d3 ec 2a 91       	mov    $0x912aecd3,%eax
 804b3f8:	0f 44 f0             	cmove  %eax,%esi
 804b3fb:	b8 57 15 c6 42       	mov    $0x42c61557,%eax
 804b400:	0f 44 e8             	cmove  %eax,%ebp
 804b403:	01 d5                	add    %edx,%ebp
 804b405:	89 6c 24 18          	mov    %ebp,0x18(%esp)
 804b409:	11 ce                	adc    %ecx,%esi
 804b40b:	89 b4 24 80 01 00 00 	mov    %esi,0x180(%esp)
 804b412:	8b 54 24 20          	mov    0x20(%esp),%edx
 804b416:	c1 ea 0d             	shr    $0xd,%edx
 804b419:	81 e2 f8 07 00 00    	and    $0x7f8,%edx
 804b41f:	62 f2 7d 08 7c c2    	vpbroadcastd %edx,%xmm0
 804b425:	c5 e9 ef d2          	vpxor  %xmm2,%xmm2,%xmm2
 804b429:	b8 80 fc ff ff       	mov    $0xfffffc80,%eax
 804b42e:	c5 f1 ef c9          	vpxor  %xmm1,%xmm1,%xmm1
 804b432:	66 66 66 66 66 2e 0f 	data16 data16 data16 data16 nopw %cs:0x0(%eax,%eax,1)
 804b439:	1f 84 00 00 00 00 00 
 804b440:	c5 fa 6f 98 8c 33 06 	vmovdqu 0x806338c(%eax),%xmm3
 804b447:	08 
 804b448:	c5 fa 6f a0 9c 33 06 	vmovdqu 0x806339c(%eax),%xmm4
 804b44f:	08 
 804b450:	c5 fc 46 c8          	kxnorw %k0,%k0,%k1
 804b454:	62 f2 fd 29 90 2c 1d 	vpgatherdq 0x8061808(,%xmm3,1),%ymm5{%k1}
 804b45b:	08 18 06 08 
 804b45f:	c5 fc 46 c8          	kxnorw %k0,%k0,%k1
 804b463:	62 f2 fd 29 90 34 25 	vpgatherdq 0x8061808(,%xmm4,1),%ymm6{%k1}
 804b46a:	08 18 06 08 
 804b46e:	62 f1 7d 08 76 cb    	vpcmpeqd %xmm3,%xmm0,%k1
 804b474:	62 f1 7d 08 76 d4    	vpcmpeqd %xmm4,%xmm0,%k2
 804b47a:	62 f1 fd a9 6f dd    	vmovdqa64 %ymm5,%ymm3{%k1}{z}
 804b480:	c5 e5 d4 d2          	vpaddq %ymm2,%ymm3,%ymm2
 804b484:	62 f1 fd aa 6f de    	vmovdqa64 %ymm6,%ymm3{%k2}{z}
 804b48a:	c5 fa 6f a0 ac 33 06 	vmovdqu 0x80633ac(%eax),%xmm4
 804b491:	08 
 804b492:	c5 fa 6f a8 bc 33 06 	vmovdqu 0x80633bc(%eax),%xmm5
 804b499:	08 
 804b49a:	c5 fc 46 c8          	kxnorw %k0,%k0,%k1
 804b49e:	62 f2 fd 29 90 34 25 	vpgatherdq 0x8061808(,%xmm4,1),%ymm6{%k1}
 804b4a5:	08 18 06 08 
 804b4a9:	c5 fc 46 c8          	kxnorw %k0,%k0,%k1
 804b4ad:	62 f2 fd 29 90 3c 2d 	vpgatherdq 0x8061808(,%xmm5,1),%ymm7{%k1}
 804b4b4:	08 18 06 08 
 804b4b8:	c5 e5 d4 d9          	vpaddq %ymm1,%ymm3,%ymm3
 804b4bc:	62 f1 7d 08 76 cc    	vpcmpeqd %xmm4,%xmm0,%k1
 804b4c2:	62 f1 7d 08 76 d5    	vpcmpeqd %xmm5,%xmm0,%k2
 804b4c8:	c5 fa 6f 88 cc 33 06 	vmovdqu 0x80633cc(%eax),%xmm1
 804b4cf:	08 
 804b4d0:	c5 fc 46 d8          	kxnorw %k0,%k0,%k3
 804b4d4:	62 f1 7d 08 76 e1    	vpcmpeqd %xmm1,%xmm0,%k4
 804b4da:	62 f2 fd 2b 90 24 0d 	vpgatherdq 0x8061808(,%xmm1,1),%ymm4{%k3}
 804b4e1:	08 18 06 08 
 804b4e5:	62 f1 fd a9 6f ce    	vmovdqa64 %ymm6,%ymm1{%k1}{z}
 804b4eb:	62 f1 fd ac 6f e4    	vmovdqa64 %ymm4,%ymm4{%k4}{z}
 804b4f1:	c5 f5 d4 cc          	vpaddq %ymm4,%ymm1,%ymm1
 804b4f5:	c5 fa 6f a0 dc 33 06 	vmovdqu 0x80633dc(%eax),%xmm4
 804b4fc:	08 
 804b4fd:	c5 fc 46 c8          	kxnorw %k0,%k0,%k1
 804b501:	62 f1 7d 08 76 dc    	vpcmpeqd %xmm4,%xmm0,%k3
 804b507:	62 f2 fd 29 90 2c 25 	vpgatherdq 0x8061808(,%xmm4,1),%ymm5{%k1}
 804b50e:	08 18 06 08 
 804b512:	c5 ed d4 c9          	vpaddq %ymm1,%ymm2,%ymm1
 804b516:	62 f1 fd aa 6f d7    	vmovdqa64 %ymm7,%ymm2{%k2}{z}
 804b51c:	62 f1 fd ab 6f e5    	vmovdqa64 %ymm5,%ymm4{%k3}{z}
 804b522:	c5 ed d4 d4          	vpaddq %ymm4,%ymm2,%ymm2
 804b526:	c5 e5 d4 da          	vpaddq %ymm2,%ymm3,%ymm3
 804b52a:	85 c0                	test   %eax,%eax
 804b52c:	74 56                	je     804b584 <main+0x2364>
 804b52e:	c5 fa 6f 90 ec 33 06 	vmovdqu 0x80633ec(%eax),%xmm2
 804b535:	08 
 804b536:	c5 fa 6f a0 fc 33 06 	vmovdqu 0x80633fc(%eax),%xmm4
 804b53d:	08 
 804b53e:	c5 fc 46 c8          	kxnorw %k0,%k0,%k1
 804b542:	62 f2 fd 29 90 2c 15 	vpgatherdq 0x8061808(,%xmm2,1),%ymm5{%k1}
 804b549:	08 18 06 08 
 804b54d:	c5 fc 46 c8          	kxnorw %k0,%k0,%k1
 804b551:	62 f2 fd 29 90 34 25 	vpgatherdq 0x8061808(,%xmm4,1),%ymm6{%k1}
 804b558:	08 18 06 08 
 804b55c:	62 f1 7d 08 76 ca    	vpcmpeqd %xmm2,%xmm0,%k1
 804b562:	62 f1 7d 08 76 d4    	vpcmpeqd %xmm4,%xmm0,%k2
 804b568:	62 f1 fd a9 6f d5    	vmovdqa64 %ymm5,%ymm2{%k1}{z}
 804b56e:	62 f1 fd aa 6f e6    	vmovdqa64 %ymm6,%ymm4{%k2}{z}
 804b574:	c5 ed d4 d1          	vpaddq %ymm1,%ymm2,%ymm2
 804b578:	c5 dd d4 cb          	vpaddq %ymm3,%ymm4,%ymm1
 804b57c:	83 e8 80             	sub    $0xffffff80,%eax
 804b57f:	e9 bc fe ff ff       	jmp    804b440 <main+0x2220>
 804b584:	c5 e5 d4 c1          	vpaddq %ymm1,%ymm3,%ymm0
 804b588:	c4 e3 7d 39 c1 01    	vextracti128 $0x1,%ymm0,%xmm1
 804b58e:	c5 f9 d4 c1          	vpaddq %xmm1,%xmm0,%xmm0
 804b592:	c5 f9 70 c8 ee       	vpshufd $0xee,%xmm0,%xmm1
 804b597:	c5 f9 d4 c1          	vpaddq %xmm1,%xmm0,%xmm0
 804b59b:	c4 e3 79 16 c1 01    	vpextrd $0x1,%xmm0,%ecx
 804b5a1:	c5 f9 7e c6          	vmovd  %xmm0,%esi
 804b5a5:	31 db                	xor    %ebx,%ebx
 804b5a7:	81 fa c8 07 00 00    	cmp    $0x7c8,%edx
 804b5ad:	bf 00 00 00 00       	mov    $0x0,%edi
 804b5b2:	b8 82 49 eb 79       	mov    $0x79eb4982,%eax
 804b5b7:	0f 44 f8             	cmove  %eax,%edi
 804b5ba:	bd 00 00 00 00       	mov    $0x0,%ebp
 804b5bf:	b8 b2 10 a2 fb       	mov    $0xfba210b2,%eax
 804b5c4:	0f 44 e8             	cmove  %eax,%ebp
 804b5c7:	01 f5                	add    %esi,%ebp
 804b5c9:	11 cf                	adc    %ecx,%edi
 804b5cb:	81 fa d0 07 00 00    	cmp    $0x7d0,%edx
 804b5d1:	b9 00 00 00 00       	mov    $0x0,%ecx
 804b5d6:	b8 e9 a7 27 74       	mov    $0x7427a7e9,%eax
 804b5db:	0f 44 c8             	cmove  %eax,%ecx
 804b5de:	be 00 00 00 00       	mov    $0x0,%esi
 804b5e3:	b8 3a ba 80 9d       	mov    $0x9d80ba3a,%eax
 804b5e8:	0f 44 f0             	cmove  %eax,%esi
 804b5eb:	01 ee                	add    %ebp,%esi
 804b5ed:	11 f9                	adc    %edi,%ecx
 804b5ef:	81 fa d8 07 00 00    	cmp    $0x7d8,%edx
 804b5f5:	bf 00 00 00 00       	mov    $0x0,%edi
 804b5fa:	b8 93 f0 bf 42       	mov    $0x42bff093,%eax
 804b5ff:	0f 44 f8             	cmove  %eax,%edi
 804b602:	bd 00 00 00 00       	mov    $0x0,%ebp
 804b607:	b8 21 6e 4f d1       	mov    $0xd14f6e21,%eax
 804b60c:	0f 44 e8             	cmove  %eax,%ebp
 804b60f:	01 f5                	add    %esi,%ebp
 804b611:	11 cf                	adc    %ecx,%edi
 804b613:	81 fa e0 07 00 00    	cmp    $0x7e0,%edx
 804b619:	b9 00 00 00 00       	mov    $0x0,%ecx
 804b61e:	b8 d9 5d 42 f8       	mov    $0xf8425dd9,%eax
 804b623:	0f 44 c8             	cmove  %eax,%ecx
 804b626:	be 00 00 00 00       	mov    $0x0,%esi
 804b62b:	b8 7c 63 1f 21       	mov    $0x211f637c,%eax
 804b630:	0f 44 f0             	cmove  %eax,%esi
 804b633:	01 ee                	add    %ebp,%esi
 804b635:	11 f9                	adc    %edi,%ecx
 804b637:	81 fa e8 07 00 00    	cmp    $0x7e8,%edx
 804b63d:	bf 00 00 00 00       	mov    $0x0,%edi
 804b642:	b8 5d 4c 86 1e       	mov    $0x1e864c5d,%eax
 804b647:	0f 44 f8             	cmove  %eax,%edi
 804b64a:	bd 00 00 00 00       	mov    $0x0,%ebp
 804b64f:	b8 0f c5 ca 43       	mov    $0x43cac50f,%eax
 804b654:	0f 44 e8             	cmove  %eax,%ebp
 804b657:	01 f5                	add    %esi,%ebp
 804b659:	11 cf                	adc    %ecx,%edi
 804b65b:	81 fa f0 07 00 00    	cmp    $0x7f0,%edx
 804b661:	b9 00 00 00 00       	mov    $0x0,%ecx
 804b666:	b8 da 71 db 39       	mov    $0x39db71da,%eax
 804b66b:	0f 44 c8             	cmove  %eax,%ecx
 804b66e:	be 00 00 00 00       	mov    $0x0,%esi
 804b673:	b8 92 38 aa e3       	mov    $0xe3aa3892,%eax
 804b678:	0f 44 f0             	cmove  %eax,%esi
 804b67b:	01 ee                	add    %ebp,%esi
 804b67d:	11 f9                	adc    %edi,%ecx
 804b67f:	81 fa f8 07 00 00    	cmp    $0x7f8,%edx
 804b685:	ba 00 00 00 00       	mov    $0x0,%edx
 804b68a:	b8 ec d3 91 2a       	mov    $0x2a91d3ec,%eax
 804b68f:	0f 44 d0             	cmove  %eax,%edx
 804b692:	b8 15 57 42 c6       	mov    $0xc6425715,%eax
 804b697:	0f 44 d8             	cmove  %eax,%ebx
 804b69a:	01 f3                	add    %esi,%ebx
 804b69c:	89 9c 24 c0 01 00 00 	mov    %ebx,0x1c0(%esp)
 804b6a3:	11 ca                	adc    %ecx,%edx
 804b6a5:	89 54 24 1c          	mov    %edx,0x1c(%esp)
 804b6a9:	8b 74 24 20          	mov    0x20(%esp),%esi
 804b6ad:	c1 ee 05             	shr    $0x5,%esi
 804b6b0:	81 e6 f8 07 00 00    	and    $0x7f8,%esi
 804b6b6:	62 f2 7d 08 7c c6    	vpbroadcastd %esi,%xmm0
 804b6bc:	c5 e9 ef d2          	vpxor  %xmm2,%xmm2,%xmm2
 804b6c0:	b9 80 fc ff ff       	mov    $0xfffffc80,%ecx
 804b6c5:	c5 f1 ef c9          	vpxor  %xmm1,%xmm1,%xmm1
 804b6c9:	0f 1f 80 00 00 00 00 	nopl   0x0(%eax)
 804b6d0:	c5 fa 6f 99 8c 33 06 	vmovdqu 0x806338c(%ecx),%xmm3
 804b6d7:	08 
 804b6d8:	c5 fa 6f a1 9c 33 06 	vmovdqu 0x806339c(%ecx),%xmm4
 804b6df:	08 
 804b6e0:	c5 fc 46 c8          	kxnorw %k0,%k0,%k1
 804b6e4:	62 f2 fd 29 90 2c 1d 	vpgatherdq 0x8062008(,%xmm3,1),%ymm5{%k1}
 804b6eb:	08 20 06 08 
 804b6ef:	c5 fc 46 c8          	kxnorw %k0,%k0,%k1
 804b6f3:	62 f2 fd 29 90 34 25 	vpgatherdq 0x8062008(,%xmm4,1),%ymm6{%k1}
 804b6fa:	08 20 06 08 
 804b6fe:	62 f1 7d 08 76 cb    	vpcmpeqd %xmm3,%xmm0,%k1
 804b704:	62 f1 7d 08 76 d4    	vpcmpeqd %xmm4,%xmm0,%k2
 804b70a:	62 f1 fd a9 6f dd    	vmovdqa64 %ymm5,%ymm3{%k1}{z}
 804b710:	c5 e5 d4 d2          	vpaddq %ymm2,%ymm3,%ymm2
 804b714:	62 f1 fd aa 6f de    	vmovdqa64 %ymm6,%ymm3{%k2}{z}
 804b71a:	c5 fa 6f a1 ac 33 06 	vmovdqu 0x80633ac(%ecx),%xmm4
 804b721:	08 
 804b722:	c5 fa 6f a9 bc 33 06 	vmovdqu 0x80633bc(%ecx),%xmm5
 804b729:	08 
 804b72a:	c5 fc 46 c8          	kxnorw %k0,%k0,%k1
 804b72e:	62 f2 fd 29 90 34 25 	vpgatherdq 0x8062008(,%xmm4,1),%ymm6{%k1}
 804b735:	08 20 06 08 
 804b739:	c5 fc 46 c8          	kxnorw %k0,%k0,%k1
 804b73d:	62 f2 fd 29 90 3c 2d 	vpgatherdq 0x8062008(,%xmm5,1),%ymm7{%k1}
 804b744:	08 20 06 08 
 804b748:	c5 e5 d4 d9          	vpaddq %ymm1,%ymm3,%ymm3
 804b74c:	62 f1 7d 08 76 cc    	vpcmpeqd %xmm4,%xmm0,%k1
 804b752:	62 f1 7d 08 76 d5    	vpcmpeqd %xmm5,%xmm0,%k2
 804b758:	c5 fa 6f 89 cc 33 06 	vmovdqu 0x80633cc(%ecx),%xmm1
 804b75f:	08 
 804b760:	c5 fc 46 d8          	kxnorw %k0,%k0,%k3
 804b764:	62 f1 7d 08 76 e1    	vpcmpeqd %xmm1,%xmm0,%k4
 804b76a:	62 f2 fd 2b 90 24 0d 	vpgatherdq 0x8062008(,%xmm1,1),%ymm4{%k3}
 804b771:	08 20 06 08 
 804b775:	62 f1 fd a9 6f ce    	vmovdqa64 %ymm6,%ymm1{%k1}{z}
 804b77b:	62 f1 fd ac 6f e4    	vmovdqa64 %ymm4,%ymm4{%k4}{z}
 804b781:	c5 f5 d4 cc          	vpaddq %ymm4,%ymm1,%ymm1
 804b785:	c5 fa 6f a1 dc 33 06 	vmovdqu 0x80633dc(%ecx),%xmm4
 804b78c:	08 
 804b78d:	c5 fc 46 c8          	kxnorw %k0,%k0,%k1
 804b791:	62 f1 7d 08 76 dc    	vpcmpeqd %xmm4,%xmm0,%k3
 804b797:	62 f2 fd 29 90 2c 25 	vpgatherdq 0x8062008(,%xmm4,1),%ymm5{%k1}
 804b79e:	08 20 06 08 
 804b7a2:	c5 ed d4 c9          	vpaddq %ymm1,%ymm2,%ymm1
 804b7a6:	62 f1 fd aa 6f d7    	vmovdqa64 %ymm7,%ymm2{%k2}{z}
 804b7ac:	62 f1 fd ab 6f e5    	vmovdqa64 %ymm5,%ymm4{%k3}{z}
 804b7b2:	c5 ed d4 d4          	vpaddq %ymm4,%ymm2,%ymm2
 804b7b6:	c5 e5 d4 da          	vpaddq %ymm2,%ymm3,%ymm3
 804b7ba:	85 c9                	test   %ecx,%ecx
 804b7bc:	74 56                	je     804b814 <main+0x25f4>
 804b7be:	c5 fa 6f 91 ec 33 06 	vmovdqu 0x80633ec(%ecx),%xmm2
 804b7c5:	08 
 804b7c6:	c5 fa 6f a1 fc 33 06 	vmovdqu 0x80633fc(%ecx),%xmm4
 804b7cd:	08 
 804b7ce:	c5 fc 46 c8          	kxnorw %k0,%k0,%k1
 804b7d2:	62 f2 fd 29 90 2c 15 	vpgatherdq 0x8062008(,%xmm2,1),%ymm5{%k1}
 804b7d9:	08 20 06 08 
 804b7dd:	c5 fc 46 c8          	kxnorw %k0,%k0,%k1
 804b7e1:	62 f2 fd 29 90 34 25 	vpgatherdq 0x8062008(,%xmm4,1),%ymm6{%k1}
 804b7e8:	08 20 06 08 
 804b7ec:	62 f1 7d 08 76 ca    	vpcmpeqd %xmm2,%xmm0,%k1
 804b7f2:	62 f1 7d 08 76 d4    	vpcmpeqd %xmm4,%xmm0,%k2
 804b7f8:	62 f1 fd a9 6f d5    	vmovdqa64 %ymm5,%ymm2{%k1}{z}
 804b7fe:	62 f1 fd aa 6f e6    	vmovdqa64 %ymm6,%ymm4{%k2}{z}
 804b804:	c5 ed d4 d1          	vpaddq %ymm1,%ymm2,%ymm2
 804b808:	c5 dd d4 cb          	vpaddq %ymm3,%ymm4,%ymm1
 804b80c:	83 e9 80             	sub    $0xffffff80,%ecx
 804b80f:	e9 bc fe ff ff       	jmp    804b6d0 <main+0x24b0>
 804b814:	c5 e5 d4 c1          	vpaddq %ymm1,%ymm3,%ymm0
 804b818:	c4 e3 7d 39 c1 01    	vextracti128 $0x1,%ymm0,%xmm1
 804b81e:	c5 f9 d4 c1          	vpaddq %xmm1,%xmm0,%xmm0
 804b822:	c5 f9 70 c8 ee       	vpshufd $0xee,%xmm0,%xmm1
 804b827:	c5 f9 d4 c1          	vpaddq %xmm1,%xmm0,%xmm0
 804b82b:	c4 e3 79 16 c1 01    	vpextrd $0x1,%xmm0,%ecx
 804b831:	c5 f9 7e c7          	vmovd  %xmm0,%edi
 804b835:	31 ed                	xor    %ebp,%ebp
 804b837:	81 fe c8 07 00 00    	cmp    $0x7c8,%esi
 804b83d:	bb 00 00 00 00       	mov    $0x0,%ebx
 804b842:	b8 79 eb 49 82       	mov    $0x8249eb79,%eax
 804b847:	0f 44 d8             	cmove  %eax,%ebx
 804b84a:	b8 00 00 00 00       	mov    $0x0,%eax
 804b84f:	ba fb a2 10 b2       	mov    $0xb210a2fb,%edx
 804b854:	0f 44 c2             	cmove  %edx,%eax
 804b857:	01 f8                	add    %edi,%eax
 804b859:	11 cb                	adc    %ecx,%ebx
 804b85b:	81 fe d0 07 00 00    	cmp    $0x7d0,%esi
 804b861:	b9 00 00 00 00       	mov    $0x0,%ecx
 804b866:	ba 74 27 a7 e9       	mov    $0xe9a72774,%edx
 804b86b:	0f 44 ca             	cmove  %edx,%ecx
 804b86e:	bf 00 00 00 00       	mov    $0x0,%edi
 804b873:	ba 9d 80 ba 3a       	mov    $0x3aba809d,%edx
 804b878:	0f 44 fa             	cmove  %edx,%edi
 804b87b:	01 c7                	add    %eax,%edi
 804b87d:	11 d9                	adc    %ebx,%ecx
 804b87f:	81 fe d8 07 00 00    	cmp    $0x7d8,%esi
 804b885:	b8 00 00 00 00       	mov    $0x0,%eax
 804b88a:	ba 42 bf f0 93       	mov    $0x93f0bf42,%edx
 804b88f:	0f 44 c2             	cmove  %edx,%eax
 804b892:	bb 00 00 00 00       	mov    $0x0,%ebx
 804b897:	ba d1 4f 6e 21       	mov    $0x216e4fd1,%edx
 804b89c:	0f 44 da             	cmove  %edx,%ebx
 804b89f:	01 fb                	add    %edi,%ebx
 804b8a1:	11 c8                	adc    %ecx,%eax
 804b8a3:	81 fe e0 07 00 00    	cmp    $0x7e0,%esi
 804b8a9:	b9 00 00 00 00       	mov    $0x0,%ecx
 804b8ae:	ba f8 42 5d d9       	mov    $0xd95d42f8,%edx
 804b8b3:	0f 44 ca             	cmove  %edx,%ecx
 804b8b6:	bf 00 00 00 00       	mov    $0x0,%edi
 804b8bb:	ba 21 1f 63 7c       	mov    $0x7c631f21,%edx
 804b8c0:	0f 44 fa             	cmove  %edx,%edi
 804b8c3:	01 df                	add    %ebx,%edi
 804b8c5:	11 c1                	adc    %eax,%ecx
 804b8c7:	81 fe e8 07 00 00    	cmp    $0x7e8,%esi
 804b8cd:	b8 00 00 00 00       	mov    $0x0,%eax
 804b8d2:	ba 1e 86 4c 5d       	mov    $0x5d4c861e,%edx
 804b8d7:	0f 44 c2             	cmove  %edx,%eax
 804b8da:	bb 00 00 00 00       	mov    $0x0,%ebx
 804b8df:	ba 43 ca c5 0f       	mov    $0xfc5ca43,%edx
 804b8e4:	0f 44 da             	cmove  %edx,%ebx
 804b8e7:	01 fb                	add    %edi,%ebx
 804b8e9:	11 c8                	adc    %ecx,%eax
 804b8eb:	81 fe f0 07 00 00    	cmp    $0x7f0,%esi
 804b8f1:	b9 00 00 00 00       	mov    $0x0,%ecx
 804b8f6:	ba 39 db 71 da       	mov    $0xda71db39,%edx
 804b8fb:	0f 44 ca             	cmove  %edx,%ecx
 804b8fe:	ba 00 00 00 00       	mov    $0x0,%edx
 804b903:	bf e3 aa 38 92       	mov    $0x9238aae3,%edi
 804b908:	0f 44 d7             	cmove  %edi,%edx
 804b90b:	01 da                	add    %ebx,%edx
 804b90d:	11 c1                	adc    %eax,%ecx
 804b90f:	81 fe f8 07 00 00    	cmp    $0x7f8,%esi
 804b915:	be 00 00 00 00       	mov    $0x0,%esi
 804b91a:	b8 2a 91 d3 ec       	mov    $0xecd3912a,%eax
 804b91f:	0f 44 f0             	cmove  %eax,%esi
 804b922:	b8 c6 42 57 15       	mov    $0x155742c6,%eax
 804b927:	0f 44 e8             	cmove  %eax,%ebp
 804b92a:	01 d5                	add    %edx,%ebp
 804b92c:	89 ac 24 a0 01 00 00 	mov    %ebp,0x1a0(%esp)
 804b933:	11 ce                	adc    %ecx,%esi
 804b935:	89 b4 24 e0 01 00 00 	mov    %esi,0x1e0(%esp)
 804b93c:	0f b6 74 24 20       	movzbl 0x20(%esp),%esi
 804b941:	c1 e6 03             	shl    $0x3,%esi
 804b944:	62 f2 7d 08 7c c6    	vpbroadcastd %esi,%xmm0
 804b94a:	c5 e9 ef d2          	vpxor  %xmm2,%xmm2,%xmm2
 804b94e:	b9 80 fc ff ff       	mov    $0xfffffc80,%ecx
 804b953:	c5 f1 ef c9          	vpxor  %xmm1,%xmm1,%xmm1
 804b957:	66 0f 1f 84 00 00 00 	nopw   0x0(%eax,%eax,1)
 804b95e:	00 00 
 804b960:	c5 fa 6f 99 8c 33 06 	vmovdqu 0x806338c(%ecx),%xmm3
 804b967:	08 
 804b968:	c5 fa 6f a1 9c 33 06 	vmovdqu 0x806339c(%ecx),%xmm4
 804b96f:	08 
 804b970:	c5 fc 46 c8          	kxnorw %k0,%k0,%k1
 804b974:	62 f2 fd 29 90 2c 1d 	vpgatherdq 0x8062808(,%xmm3,1),%ymm5{%k1}
 804b97b:	08 28 06 08 
 804b97f:	c5 fc 46 c8          	kxnorw %k0,%k0,%k1
 804b983:	62 f2 fd 29 90 34 25 	vpgatherdq 0x8062808(,%xmm4,1),%ymm6{%k1}
 804b98a:	08 28 06 08 
 804b98e:	62 f1 7d 08 76 cb    	vpcmpeqd %xmm3,%xmm0,%k1
 804b994:	62 f1 7d 08 76 d4    	vpcmpeqd %xmm4,%xmm0,%k2
 804b99a:	62 f1 fd a9 6f dd    	vmovdqa64 %ymm5,%ymm3{%k1}{z}
 804b9a0:	c5 e5 d4 d2          	vpaddq %ymm2,%ymm3,%ymm2
 804b9a4:	62 f1 fd aa 6f de    	vmovdqa64 %ymm6,%ymm3{%k2}{z}
 804b9aa:	c5 fa 6f a1 ac 33 06 	vmovdqu 0x80633ac(%ecx),%xmm4
 804b9b1:	08 
 804b9b2:	c5 fa 6f a9 bc 33 06 	vmovdqu 0x80633bc(%ecx),%xmm5
 804b9b9:	08 
 804b9ba:	c5 fc 46 c8          	kxnorw %k0,%k0,%k1
 804b9be:	62 f2 fd 29 90 34 25 	vpgatherdq 0x8062808(,%xmm4,1),%ymm6{%k1}
 804b9c5:	08 28 06 08 
 804b9c9:	c5 fc 46 c8          	kxnorw %k0,%k0,%k1
 804b9cd:	62 f2 fd 29 90 3c 2d 	vpgatherdq 0x8062808(,%xmm5,1),%ymm7{%k1}
 804b9d4:	08 28 06 08 
 804b9d8:	c5 e5 d4 d9          	vpaddq %ymm1,%ymm3,%ymm3
 804b9dc:	62 f1 7d 08 76 cc    	vpcmpeqd %xmm4,%xmm0,%k1
 804b9e2:	62 f1 7d 08 76 d5    	vpcmpeqd %xmm5,%xmm0,%k2
 804b9e8:	c5 fa 6f 89 cc 33 06 	vmovdqu 0x80633cc(%ecx),%xmm1
 804b9ef:	08 
 804b9f0:	c5 fc 46 d8          	kxnorw %k0,%k0,%k3
 804b9f4:	62 f1 7d 08 76 e1    	vpcmpeqd %xmm1,%xmm0,%k4
 804b9fa:	62 f2 fd 2b 90 24 0d 	vpgatherdq 0x8062808(,%xmm1,1),%ymm4{%k3}
 804ba01:	08 28 06 08 
 804ba05:	62 f1 fd a9 6f ce    	vmovdqa64 %ymm6,%ymm1{%k1}{z}
 804ba0b:	62 f1 fd ac 6f e4    	vmovdqa64 %ymm4,%ymm4{%k4}{z}
 804ba11:	c5 f5 d4 cc          	vpaddq %ymm4,%ymm1,%ymm1
 804ba15:	c5 fa 6f a1 dc 33 06 	vmovdqu 0x80633dc(%ecx),%xmm4
 804ba1c:	08 
 804ba1d:	c5 fc 46 c8          	kxnorw %k0,%k0,%k1
 804ba21:	62 f1 7d 08 76 dc    	vpcmpeqd %xmm4,%xmm0,%k3
 804ba27:	62 f2 fd 29 90 2c 25 	vpgatherdq 0x8062808(,%xmm4,1),%ymm5{%k1}
 804ba2e:	08 28 06 08 
 804ba32:	c5 ed d4 c9          	vpaddq %ymm1,%ymm2,%ymm1
 804ba36:	62 f1 fd aa 6f d7    	vmovdqa64 %ymm7,%ymm2{%k2}{z}
 804ba3c:	62 f1 fd ab 6f e5    	vmovdqa64 %ymm5,%ymm4{%k3}{z}
 804ba42:	c5 ed d4 d4          	vpaddq %ymm4,%ymm2,%ymm2
 804ba46:	c5 e5 d4 da          	vpaddq %ymm2,%ymm3,%ymm3
 804ba4a:	85 c9                	test   %ecx,%ecx
 804ba4c:	74 56                	je     804baa4 <main+0x2884>
 804ba4e:	c5 fa 6f 91 ec 33 06 	vmovdqu 0x80633ec(%ecx),%xmm2
 804ba55:	08 
 804ba56:	c5 fa 6f a1 fc 33 06 	vmovdqu 0x80633fc(%ecx),%xmm4
 804ba5d:	08 
 804ba5e:	c5 fc 46 c8          	kxnorw %k0,%k0,%k1
 804ba62:	62 f2 fd 29 90 2c 15 	vpgatherdq 0x8062808(,%xmm2,1),%ymm5{%k1}
 804ba69:	08 28 06 08 
 804ba6d:	c5 fc 46 c8          	kxnorw %k0,%k0,%k1
 804ba71:	62 f2 fd 29 90 34 25 	vpgatherdq 0x8062808(,%xmm4,1),%ymm6{%k1}
 804ba78:	08 28 06 08 
 804ba7c:	62 f1 7d 08 76 ca    	vpcmpeqd %xmm2,%xmm0,%k1
 804ba82:	62 f1 7d 08 76 d4    	vpcmpeqd %xmm4,%xmm0,%k2
 804ba88:	62 f1 fd a9 6f d5    	vmovdqa64 %ymm5,%ymm2{%k1}{z}
 804ba8e:	62 f1 fd aa 6f e6    	vmovdqa64 %ymm6,%ymm4{%k2}{z}
 804ba94:	c5 ed d4 d1          	vpaddq %ymm1,%ymm2,%ymm2
 804ba98:	c5 dd d4 cb          	vpaddq %ymm3,%ymm4,%ymm1
 804ba9c:	83 e9 80             	sub    $0xffffff80,%ecx
 804ba9f:	e9 bc fe ff ff       	jmp    804b960 <main+0x2740>
 804baa4:	c5 e5 d4 c1          	vpaddq %ymm1,%ymm3,%ymm0
 804baa8:	c4 e3 7d 39 c1 01    	vextracti128 $0x1,%ymm0,%xmm1
 804baae:	c5 f9 d4 c1          	vpaddq %xmm1,%xmm0,%xmm0
 804bab2:	c5 f9 70 c8 ee       	vpshufd $0xee,%xmm0,%xmm1
 804bab7:	c5 f9 d4 c1          	vpaddq %xmm1,%xmm0,%xmm0
 804babb:	31 c9                	xor    %ecx,%ecx
 804babd:	81 fe c8 07 00 00    	cmp    $0x7c8,%esi
 804bac3:	b8 00 00 00 00       	mov    $0x0,%eax
 804bac8:	ba eb 79 82 49       	mov    $0x498279eb,%edx
 804bacd:	0f 44 c2             	cmove  %edx,%eax
 804bad0:	ba 00 00 00 00       	mov    $0x0,%edx
 804bad5:	bb a2 fb b2 10       	mov    $0x10b2fba2,%ebx
 804bada:	0f 44 d3             	cmove  %ebx,%edx
 804badd:	c5 f9 7e c3          	vmovd  %xmm0,%ebx
 804bae1:	01 da                	add    %ebx,%edx
 804bae3:	c4 e3 79 16 c3 01    	vpextrd $0x1,%xmm0,%ebx
 804bae9:	11 d8                	adc    %ebx,%eax
 804baeb:	81 fe d0 07 00 00    	cmp    $0x7d0,%esi
 804baf1:	bb 00 00 00 00       	mov    $0x0,%ebx
 804baf6:	bf 27 74 e9 a7       	mov    $0xa7e97427,%edi
 804bafb:	0f 44 df             	cmove  %edi,%ebx
 804bafe:	bd 00 00 00 00       	mov    $0x0,%ebp
 804bb03:	bf 80 9d 3a ba       	mov    $0xba3a9d80,%edi
 804bb08:	0f 44 ef             	cmove  %edi,%ebp
 804bb0b:	01 d5                	add    %edx,%ebp
 804bb0d:	11 c3                	adc    %eax,%ebx
 804bb0f:	81 fe d8 07 00 00    	cmp    $0x7d8,%esi
 804bb15:	b8 00 00 00 00       	mov    $0x0,%eax
 804bb1a:	ba bf 42 93 f0       	mov    $0xf09342bf,%edx
 804bb1f:	0f 44 c2             	cmove  %edx,%eax
 804bb22:	ba 00 00 00 00       	mov    $0x0,%edx
 804bb27:	bf 4f d1 21 6e       	mov    $0x6e21d14f,%edi
 804bb2c:	0f 44 d7             	cmove  %edi,%edx
 804bb2f:	01 ea                	add    %ebp,%edx
 804bb31:	11 d8                	adc    %ebx,%eax
 804bb33:	81 fe e0 07 00 00    	cmp    $0x7e0,%esi
 804bb39:	bb 00 00 00 00       	mov    $0x0,%ebx
 804bb3e:	bf 42 f8 d9 5d       	mov    $0x5dd9f842,%edi
 804bb43:	0f 44 df             	cmove  %edi,%ebx
 804bb46:	bd 00 00 00 00       	mov    $0x0,%ebp
 804bb4b:	bf 1f 21 7c 63       	mov    $0x637c211f,%edi
 804bb50:	0f 44 ef             	cmove  %edi,%ebp
 804bb53:	01 d5                	add    %edx,%ebp
 804bb55:	11 c3                	adc    %eax,%ebx
 804bb57:	81 fe e8 07 00 00    	cmp    $0x7e8,%esi
 804bb5d:	b8 00 00 00 00       	mov    $0x0,%eax
 804bb62:	ba 86 1e 5d 4c       	mov    $0x4c5d1e86,%edx
 804bb67:	0f 44 c2             	cmove  %edx,%eax
 804bb6a:	ba 00 00 00 00       	mov    $0x0,%edx
 804bb6f:	bf ca 43 0f c5       	mov    $0xc50f43ca,%edi
 804bb74:	0f 44 d7             	cmove  %edi,%edx
 804bb77:	01 ea                	add    %ebp,%edx
 804bb79:	11 d8                	adc    %ebx,%eax
 804bb7b:	81 fe f0 07 00 00    	cmp    $0x7f0,%esi
 804bb81:	bb 00 00 00 00       	mov    $0x0,%ebx
 804bb86:	bf db 39 da 71       	mov    $0x71da39db,%edi
 804bb8b:	0f 44 df             	cmove  %edi,%ebx
 804bb8e:	bd 00 00 00 00       	mov    $0x0,%ebp
 804bb93:	bf aa e3 92 38       	mov    $0x3892e3aa,%edi
 804bb98:	0f 44 ef             	cmove  %edi,%ebp
 804bb9b:	01 d5                	add    %edx,%ebp
 804bb9d:	11 c3                	adc    %eax,%ebx
 804bb9f:	81 fe f8 07 00 00    	cmp    $0x7f8,%esi
 804bba5:	be 00 00 00 00       	mov    $0x0,%esi
 804bbaa:	b8 91 2a ec d3       	mov    $0xd3ec2a91,%eax
 804bbaf:	0f 44 f0             	cmove  %eax,%esi
 804bbb2:	b8 42 c6 15 57       	mov    $0x5715c642,%eax
 804bbb7:	0f 44 c8             	cmove  %eax,%ecx
 804bbba:	01 e9                	add    %ebp,%ecx
 804bbbc:	11 de                	adc    %ebx,%esi
 804bbbe:	8b 84 24 a0 00 00 00 	mov    0xa0(%esp),%eax
 804bbc5:	33 84 24 e0 00 00 00 	xor    0xe0(%esp),%eax
 804bbcc:	33 84 24 00 01 00 00 	xor    0x100(%esp),%eax
 804bbd3:	33 44 24 10          	xor    0x10(%esp),%eax
 804bbd7:	33 44 24 60          	xor    0x60(%esp),%eax
 804bbdb:	33 44 24 18          	xor    0x18(%esp),%eax
 804bbdf:	33 84 24 c0 01 00 00 	xor    0x1c0(%esp),%eax
 804bbe6:	33 84 24 a0 01 00 00 	xor    0x1a0(%esp),%eax
 804bbed:	31 c8                	xor    %ecx,%eax
 804bbef:	8b bc 24 40 01 00 00 	mov    0x140(%esp),%edi
 804bbf6:	33 bc 24 20 01 00 00 	xor    0x120(%esp),%edi
 804bbfd:	33 7c 24 14          	xor    0x14(%esp),%edi
 804bc01:	33 7c 24 0c          	xor    0xc(%esp),%edi
 804bc05:	33 7c 24 08          	xor    0x8(%esp),%edi
 804bc09:	33 bc 24 80 01 00 00 	xor    0x180(%esp),%edi
 804bc10:	33 7c 24 1c          	xor    0x1c(%esp),%edi
 804bc14:	33 bc 24 e0 01 00 00 	xor    0x1e0(%esp),%edi
 804bc1b:	31 f7                	xor    %esi,%edi
 804bc1d:	89 bc 24 40 01 00 00 	mov    %edi,0x140(%esp)
 804bc24:	81 f7 bf 8d ac 50    	xor    $0x50ac8dbf,%edi
 804bc2a:	89 84 24 a0 00 00 00 	mov    %eax,0xa0(%esp)
 804bc31:	35 4c 9a 52 70       	xor    $0x70529a4c,%eax
 804bc36:	89 44 24 20          	mov    %eax,0x20(%esp)
 804bc3a:	a3 d0 50 06 08       	mov    %eax,0x80650d0
 804bc3f:	89 3d d4 50 06 08    	mov    %edi,0x80650d4
 804bc45:	89 7c 24 60          	mov    %edi,0x60(%esp)
 804bc49:	89 f8                	mov    %edi,%eax
 804bc4b:	c1 e8 15             	shr    $0x15,%eax
 804bc4e:	83 e0 f8             	and    $0xfffffff8,%eax
 804bc51:	62 f2 7d 08 7c c0    	vpbroadcastd %eax,%xmm0
 804bc57:	c5 e9 ef d2          	vpxor  %xmm2,%xmm2,%xmm2
 804bc5b:	b9 80 fc ff ff       	mov    $0xfffffc80,%ecx
 804bc60:	c5 f1 ef c9          	vpxor  %xmm1,%xmm1,%xmm1
 804bc64:	66 66 66 2e 0f 1f 84 	data16 data16 nopw %cs:0x0(%eax,%eax,1)
 804bc6b:	00 00 00 00 00 
 804bc70:	c5 fa 6f 99 8c 33 06 	vmovdqu 0x806338c(%ecx),%xmm3
 804bc77:	08 
 804bc78:	c5 fa 6f a1 9c 33 06 	vmovdqu 0x806339c(%ecx),%xmm4
 804bc7f:	08 
 804bc80:	c5 fc 46 c8          	kxnorw %k0,%k0,%k1
 804bc84:	62 f2 fd 29 90 2c 1d 	vpgatherdq 0x805f008(,%xmm3,1),%ymm5{%k1}
 804bc8b:	08 f0 05 08 
 804bc8f:	c5 fc 46 c8          	kxnorw %k0,%k0,%k1
 804bc93:	62 f2 fd 29 90 34 25 	vpgatherdq 0x805f008(,%xmm4,1),%ymm6{%k1}
 804bc9a:	08 f0 05 08 
 804bc9e:	62 f1 7d 08 76 cb    	vpcmpeqd %xmm3,%xmm0,%k1
 804bca4:	62 f1 7d 08 76 d4    	vpcmpeqd %xmm4,%xmm0,%k2
 804bcaa:	62 f1 fd a9 6f dd    	vmovdqa64 %ymm5,%ymm3{%k1}{z}
 804bcb0:	c5 e5 d4 d2          	vpaddq %ymm2,%ymm3,%ymm2
 804bcb4:	62 f1 fd aa 6f de    	vmovdqa64 %ymm6,%ymm3{%k2}{z}
 804bcba:	c5 fa 6f a1 ac 33 06 	vmovdqu 0x80633ac(%ecx),%xmm4
 804bcc1:	08 
 804bcc2:	c5 fa 6f a9 bc 33 06 	vmovdqu 0x80633bc(%ecx),%xmm5
 804bcc9:	08 
 804bcca:	c5 fc 46 c8          	kxnorw %k0,%k0,%k1
 804bcce:	62 f2 fd 29 90 34 25 	vpgatherdq 0x805f008(,%xmm4,1),%ymm6{%k1}
 804bcd5:	08 f0 05 08 
 804bcd9:	c5 fc 46 c8          	kxnorw %k0,%k0,%k1
 804bcdd:	62 f2 fd 29 90 3c 2d 	vpgatherdq 0x805f008(,%xmm5,1),%ymm7{%k1}
 804bce4:	08 f0 05 08 
 804bce8:	c5 e5 d4 d9          	vpaddq %ymm1,%ymm3,%ymm3
 804bcec:	62 f1 7d 08 76 cc    	vpcmpeqd %xmm4,%xmm0,%k1
 804bcf2:	62 f1 7d 08 76 d5    	vpcmpeqd %xmm5,%xmm0,%k2
 804bcf8:	c5 fa 6f 89 cc 33 06 	vmovdqu 0x80633cc(%ecx),%xmm1
 804bcff:	08 
 804bd00:	c5 fc 46 d8          	kxnorw %k0,%k0,%k3
 804bd04:	62 f1 7d 08 76 e1    	vpcmpeqd %xmm1,%xmm0,%k4
 804bd0a:	62 f2 fd 2b 90 24 0d 	vpgatherdq 0x805f008(,%xmm1,1),%ymm4{%k3}
 804bd11:	08 f0 05 08 
 804bd15:	62 f1 fd a9 6f ce    	vmovdqa64 %ymm6,%ymm1{%k1}{z}
 804bd1b:	62 f1 fd ac 6f e4    	vmovdqa64 %ymm4,%ymm4{%k4}{z}
 804bd21:	c5 f5 d4 cc          	vpaddq %ymm4,%ymm1,%ymm1
 804bd25:	c5 fa 6f a1 dc 33 06 	vmovdqu 0x80633dc(%ecx),%xmm4
 804bd2c:	08 
 804bd2d:	c5 fc 46 c8          	kxnorw %k0,%k0,%k1
 804bd31:	62 f1 7d 08 76 dc    	vpcmpeqd %xmm4,%xmm0,%k3
 804bd37:	62 f2 fd 29 90 2c 25 	vpgatherdq 0x805f008(,%xmm4,1),%ymm5{%k1}
 804bd3e:	08 f0 05 08 
 804bd42:	c5 ed d4 c9          	vpaddq %ymm1,%ymm2,%ymm1
 804bd46:	62 f1 fd aa 6f d7    	vmovdqa64 %ymm7,%ymm2{%k2}{z}
 804bd4c:	62 f1 fd ab 6f e5    	vmovdqa64 %ymm5,%ymm4{%k3}{z}
 804bd52:	c5 ed d4 d4          	vpaddq %ymm4,%ymm2,%ymm2
 804bd56:	c5 e5 d4 da          	vpaddq %ymm2,%ymm3,%ymm3
 804bd5a:	85 c9                	test   %ecx,%ecx
 804bd5c:	74 56                	je     804bdb4 <main+0x2b94>
 804bd5e:	c5 fa 6f 91 ec 33 06 	vmovdqu 0x80633ec(%ecx),%xmm2
 804bd65:	08 
 804bd66:	c5 fa 6f a1 fc 33 06 	vmovdqu 0x80633fc(%ecx),%xmm4
 804bd6d:	08 
 804bd6e:	c5 fc 46 c8          	kxnorw %k0,%k0,%k1
 804bd72:	62 f2 fd 29 90 2c 15 	vpgatherdq 0x805f008(,%xmm2,1),%ymm5{%k1}
 804bd79:	08 f0 05 08 
 804bd7d:	c5 fc 46 c8          	kxnorw %k0,%k0,%k1
 804bd81:	62 f2 fd 29 90 34 25 	vpgatherdq 0x805f008(,%xmm4,1),%ymm6{%k1}
 804bd88:	08 f0 05 08 
 804bd8c:	62 f1 7d 08 76 ca    	vpcmpeqd %xmm2,%xmm0,%k1
 804bd92:	62 f1 7d 08 76 d4    	vpcmpeqd %xmm4,%xmm0,%k2
 804bd98:	62 f1 fd a9 6f d5    	vmovdqa64 %ymm5,%ymm2{%k1}{z}
 804bd9e:	62 f1 fd aa 6f e6    	vmovdqa64 %ymm6,%ymm4{%k2}{z}
 804bda4:	c5 ed d4 d1          	vpaddq %ymm1,%ymm2,%ymm2
 804bda8:	c5 dd d4 cb          	vpaddq %ymm3,%ymm4,%ymm1
 804bdac:	83 e9 80             	sub    $0xffffff80,%ecx
 804bdaf:	e9 bc fe ff ff       	jmp    804bc70 <main+0x2a50>
 804bdb4:	c5 e5 d4 c1          	vpaddq %ymm1,%ymm3,%ymm0
 804bdb8:	c4 e3 7d 39 c1 01    	vextracti128 $0x1,%ymm0,%xmm1
 804bdbe:	c5 f9 d4 c1          	vpaddq %xmm1,%xmm0,%xmm0
 804bdc2:	c5 f9 70 c8 ee       	vpshufd $0xee,%xmm0,%xmm1
 804bdc7:	c5 f9 d4 c1          	vpaddq %xmm1,%xmm0,%xmm0
 804bdcb:	c4 e3 79 16 c1 01    	vpextrd $0x1,%xmm0,%ecx
 804bdd1:	c5 f9 7e c2          	vmovd  %xmm0,%edx
 804bdd5:	31 ff                	xor    %edi,%edi
 804bdd7:	3d c8 07 00 00       	cmp    $0x7c8,%eax
 804bddc:	be 00 00 00 00       	mov    $0x0,%esi
 804bde1:	bb 10 b2 fb a2       	mov    $0xa2fbb210,%ebx
 804bde6:	0f 44 f3             	cmove  %ebx,%esi
 804bde9:	bb 00 00 00 00       	mov    $0x0,%ebx
 804bdee:	bd 49 82 79 eb       	mov    $0xeb798249,%ebp
 804bdf3:	0f 44 dd             	cmove  %ebp,%ebx
 804bdf6:	01 d3                	add    %edx,%ebx
 804bdf8:	11 ce                	adc    %ecx,%esi
 804bdfa:	3d d0 07 00 00       	cmp    $0x7d0,%eax
 804bdff:	b9 00 00 00 00       	mov    $0x0,%ecx
 804be04:	ba ba 3a 9d 80       	mov    $0x809d3aba,%edx
 804be09:	0f 44 ca             	cmove  %edx,%ecx
 804be0c:	ba 00 00 00 00       	mov    $0x0,%edx
 804be11:	bd a7 e9 74 27       	mov    $0x2774e9a7,%ebp
 804be16:	0f 44 d5             	cmove  %ebp,%edx
 804be19:	01 da                	add    %ebx,%edx
 804be1b:	11 f1                	adc    %esi,%ecx
 804be1d:	3d d8 07 00 00       	cmp    $0x7d8,%eax
 804be22:	be 00 00 00 00       	mov    $0x0,%esi
 804be27:	bb 6e 21 d1 4f       	mov    $0x4fd1216e,%ebx
 804be2c:	0f 44 f3             	cmove  %ebx,%esi
 804be2f:	bb 00 00 00 00       	mov    $0x0,%ebx
 804be34:	bd f0 93 42 bf       	mov    $0xbf4293f0,%ebp
 804be39:	0f 44 dd             	cmove  %ebp,%ebx
 804be3c:	01 d3                	add    %edx,%ebx
 804be3e:	11 ce                	adc    %ecx,%esi
 804be40:	3d e0 07 00 00       	cmp    $0x7e0,%eax
 804be45:	b9 00 00 00 00       	mov    $0x0,%ecx
 804be4a:	ba 63 7c 21 1f       	mov    $0x1f217c63,%edx
 804be4f:	0f 44 ca             	cmove  %edx,%ecx
 804be52:	ba 00 00 00 00       	mov    $0x0,%edx
 804be57:	bd 5d d9 f8 42       	mov    $0x42f8d95d,%ebp
 804be5c:	0f 44 d5             	cmove  %ebp,%edx
 804be5f:	01 da                	add    %ebx,%edx
 804be61:	11 f1                	adc    %esi,%ecx
 804be63:	3d e8 07 00 00       	cmp    $0x7e8,%eax
 804be68:	be 00 00 00 00       	mov    $0x0,%esi
 804be6d:	bb c5 0f 43 ca       	mov    $0xca430fc5,%ebx
 804be72:	0f 44 f3             	cmove  %ebx,%esi
 804be75:	bb 00 00 00 00       	mov    $0x0,%ebx
 804be7a:	bd 4c 5d 1e 86       	mov    $0x861e5d4c,%ebp
 804be7f:	0f 44 dd             	cmove  %ebp,%ebx
 804be82:	01 d3                	add    %edx,%ebx
 804be84:	11 ce                	adc    %ecx,%esi
 804be86:	3d f0 07 00 00       	cmp    $0x7f0,%eax
 804be8b:	b9 00 00 00 00       	mov    $0x0,%ecx
 804be90:	ba 38 92 e3 aa       	mov    $0xaae39238,%edx
 804be95:	0f 44 ca             	cmove  %edx,%ecx
 804be98:	ba 00 00 00 00       	mov    $0x0,%edx
 804be9d:	bd 71 da 39 db       	mov    $0xdb39da71,%ebp
 804bea2:	0f 44 d5             	cmove  %ebp,%edx
 804bea5:	01 da                	add    %ebx,%edx
 804bea7:	11 f1                	adc    %esi,%ecx
 804bea9:	3d f8 07 00 00       	cmp    $0x7f8,%eax
 804beae:	be 00 00 00 00       	mov    $0x0,%esi
 804beb3:	b8 57 15 c6 42       	mov    $0x42c61557,%eax
 804beb8:	0f 44 f0             	cmove  %eax,%esi
 804bebb:	b8 d3 ec 2a 91       	mov    $0x912aecd3,%eax
 804bec0:	0f 44 f8             	cmove  %eax,%edi
 804bec3:	01 d7                	add    %edx,%edi
 804bec5:	89 bc 24 e0 00 00 00 	mov    %edi,0xe0(%esp)
 804becc:	11 ce                	adc    %ecx,%esi
 804bece:	89 b4 24 20 01 00 00 	mov    %esi,0x120(%esp)
 804bed5:	8b 44 24 60          	mov    0x60(%esp),%eax
 804bed9:	c1 e8 0d             	shr    $0xd,%eax
 804bedc:	25 f8 07 00 00       	and    $0x7f8,%eax
 804bee1:	62 f2 7d 08 7c c0    	vpbroadcastd %eax,%xmm0
 804bee7:	c5 e9 ef d2          	vpxor  %xmm2,%xmm2,%xmm2
 804beeb:	b9 80 fc ff ff       	mov    $0xfffffc80,%ecx
 804bef0:	c5 f1 ef c9          	vpxor  %xmm1,%xmm1,%xmm1
 804bef4:	66 66 66 2e 0f 1f 84 	data16 data16 nopw %cs:0x0(%eax,%eax,1)
 804befb:	00 00 00 00 00 
 804bf00:	c5 fa 6f 99 8c 33 06 	vmovdqu 0x806338c(%ecx),%xmm3
 804bf07:	08 
 804bf08:	c5 fa 6f a1 9c 33 06 	vmovdqu 0x806339c(%ecx),%xmm4
 804bf0f:	08 
 804bf10:	c5 fc 46 c8          	kxnorw %k0,%k0,%k1
 804bf14:	62 f2 fd 29 90 2c 1d 	vpgatherdq 0x805f808(,%xmm3,1),%ymm5{%k1}
 804bf1b:	08 f8 05 08 
 804bf1f:	c5 fc 46 c8          	kxnorw %k0,%k0,%k1
 804bf23:	62 f2 fd 29 90 34 25 	vpgatherdq 0x805f808(,%xmm4,1),%ymm6{%k1}
 804bf2a:	08 f8 05 08 
 804bf2e:	62 f1 7d 08 76 cb    	vpcmpeqd %xmm3,%xmm0,%k1
 804bf34:	62 f1 7d 08 76 d4    	vpcmpeqd %xmm4,%xmm0,%k2
 804bf3a:	62 f1 fd a9 6f dd    	vmovdqa64 %ymm5,%ymm3{%k1}{z}
 804bf40:	c5 e5 d4 d2          	vpaddq %ymm2,%ymm3,%ymm2
 804bf44:	62 f1 fd aa 6f de    	vmovdqa64 %ymm6,%ymm3{%k2}{z}
 804bf4a:	c5 fa 6f a1 ac 33 06 	vmovdqu 0x80633ac(%ecx),%xmm4
 804bf51:	08 
 804bf52:	c5 fa 6f a9 bc 33 06 	vmovdqu 0x80633bc(%ecx),%xmm5
 804bf59:	08 
 804bf5a:	c5 fc 46 c8          	kxnorw %k0,%k0,%k1
 804bf5e:	62 f2 fd 29 90 34 25 	vpgatherdq 0x805f808(,%xmm4,1),%ymm6{%k1}
 804bf65:	08 f8 05 08 
 804bf69:	c5 fc 46 c8          	kxnorw %k0,%k0,%k1
 804bf6d:	62 f2 fd 29 90 3c 2d 	vpgatherdq 0x805f808(,%xmm5,1),%ymm7{%k1}
 804bf74:	08 f8 05 08 
 804bf78:	c5 e5 d4 d9          	vpaddq %ymm1,%ymm3,%ymm3
 804bf7c:	62 f1 7d 08 76 cc    	vpcmpeqd %xmm4,%xmm0,%k1
 804bf82:	62 f1 7d 08 76 d5    	vpcmpeqd %xmm5,%xmm0,%k2
 804bf88:	c5 fa 6f 89 cc 33 06 	vmovdqu 0x80633cc(%ecx),%xmm1
 804bf8f:	08 
 804bf90:	c5 fc 46 d8          	kxnorw %k0,%k0,%k3
 804bf94:	62 f1 7d 08 76 e1    	vpcmpeqd %xmm1,%xmm0,%k4
 804bf9a:	62 f2 fd 2b 90 24 0d 	vpgatherdq 0x805f808(,%xmm1,1),%ymm4{%k3}
 804bfa1:	08 f8 05 08 
 804bfa5:	62 f1 fd a9 6f ce    	vmovdqa64 %ymm6,%ymm1{%k1}{z}
 804bfab:	62 f1 fd ac 6f e4    	vmovdqa64 %ymm4,%ymm4{%k4}{z}
 804bfb1:	c5 f5 d4 cc          	vpaddq %ymm4,%ymm1,%ymm1
 804bfb5:	c5 fa 6f a1 dc 33 06 	vmovdqu 0x80633dc(%ecx),%xmm4
 804bfbc:	08 
 804bfbd:	c5 fc 46 c8          	kxnorw %k0,%k0,%k1
 804bfc1:	62 f1 7d 08 76 dc    	vpcmpeqd %xmm4,%xmm0,%k3
 804bfc7:	62 f2 fd 29 90 2c 25 	vpgatherdq 0x805f808(,%xmm4,1),%ymm5{%k1}
 804bfce:	08 f8 05 08 
 804bfd2:	c5 ed d4 c9          	vpaddq %ymm1,%ymm2,%ymm1
 804bfd6:	62 f1 fd aa 6f d7    	vmovdqa64 %ymm7,%ymm2{%k2}{z}
 804bfdc:	62 f1 fd ab 6f e5    	vmovdqa64 %ymm5,%ymm4{%k3}{z}
 804bfe2:	c5 ed d4 d4          	vpaddq %ymm4,%ymm2,%ymm2
 804bfe6:	c5 e5 d4 da          	vpaddq %ymm2,%ymm3,%ymm3
 804bfea:	85 c9                	test   %ecx,%ecx
 804bfec:	74 56                	je     804c044 <main+0x2e24>
 804bfee:	c5 fa 6f 91 ec 33 06 	vmovdqu 0x80633ec(%ecx),%xmm2
 804bff5:	08 
 804bff6:	c5 fa 6f a1 fc 33 06 	vmovdqu 0x80633fc(%ecx),%xmm4
 804bffd:	08 
 804bffe:	c5 fc 46 c8          	kxnorw %k0,%k0,%k1
 804c002:	62 f2 fd 29 90 2c 15 	vpgatherdq 0x805f808(,%xmm2,1),%ymm5{%k1}
 804c009:	08 f8 05 08 
 804c00d:	c5 fc 46 c8          	kxnorw %k0,%k0,%k1
 804c011:	62 f2 fd 29 90 34 25 	vpgatherdq 0x805f808(,%xmm4,1),%ymm6{%k1}
 804c018:	08 f8 05 08 
 804c01c:	62 f1 7d 08 76 ca    	vpcmpeqd %xmm2,%xmm0,%k1
 804c022:	62 f1 7d 08 76 d4    	vpcmpeqd %xmm4,%xmm0,%k2
 804c028:	62 f1 fd a9 6f d5    	vmovdqa64 %ymm5,%ymm2{%k1}{z}
 804c02e:	62 f1 fd aa 6f e6    	vmovdqa64 %ymm6,%ymm4{%k2}{z}
 804c034:	c5 ed d4 d1          	vpaddq %ymm1,%ymm2,%ymm2
 804c038:	c5 dd d4 cb          	vpaddq %ymm3,%ymm4,%ymm1
 804c03c:	83 e9 80             	sub    $0xffffff80,%ecx
 804c03f:	e9 bc fe ff ff       	jmp    804bf00 <main+0x2ce0>
 804c044:	c5 e5 d4 c1          	vpaddq %ymm1,%ymm3,%ymm0
 804c048:	c4 e3 7d 39 c1 01    	vextracti128 $0x1,%ymm0,%xmm1
 804c04e:	c5 f9 d4 c1          	vpaddq %xmm1,%xmm0,%xmm0
 804c052:	c5 f9 70 c8 ee       	vpshufd $0xee,%xmm0,%xmm1
 804c057:	c5 f9 d4 c1          	vpaddq %xmm1,%xmm0,%xmm0
 804c05b:	c4 e3 79 16 c1 01    	vpextrd $0x1,%xmm0,%ecx
 804c061:	c5 f9 7e c2          	vmovd  %xmm0,%edx
 804c065:	31 ff                	xor    %edi,%edi
 804c067:	3d c8 07 00 00       	cmp    $0x7c8,%eax
 804c06c:	be 00 00 00 00       	mov    $0x0,%esi
 804c071:	bb b2 10 a2 fb       	mov    $0xfba210b2,%ebx
 804c076:	0f 44 f3             	cmove  %ebx,%esi
 804c079:	bb 00 00 00 00       	mov    $0x0,%ebx
 804c07e:	bd 82 49 eb 79       	mov    $0x79eb4982,%ebp
 804c083:	0f 44 dd             	cmove  %ebp,%ebx
 804c086:	01 d3                	add    %edx,%ebx
 804c088:	11 ce                	adc    %ecx,%esi
 804c08a:	3d d0 07 00 00       	cmp    $0x7d0,%eax
 804c08f:	b9 00 00 00 00       	mov    $0x0,%ecx
 804c094:	ba 3a ba 80 9d       	mov    $0x9d80ba3a,%edx
 804c099:	0f 44 ca             	cmove  %edx,%ecx
 804c09c:	ba 00 00 00 00       	mov    $0x0,%edx
 804c0a1:	bd e9 a7 27 74       	mov    $0x7427a7e9,%ebp
 804c0a6:	0f 44 d5             	cmove  %ebp,%edx
 804c0a9:	01 da                	add    %ebx,%edx
 804c0ab:	11 f1                	adc    %esi,%ecx
 804c0ad:	3d d8 07 00 00       	cmp    $0x7d8,%eax
 804c0b2:	be 00 00 00 00       	mov    $0x0,%esi
 804c0b7:	bb 21 6e 4f d1       	mov    $0xd14f6e21,%ebx
 804c0bc:	0f 44 f3             	cmove  %ebx,%esi
 804c0bf:	bb 00 00 00 00       	mov    $0x0,%ebx
 804c0c4:	bd 93 f0 bf 42       	mov    $0x42bff093,%ebp
 804c0c9:	0f 44 dd             	cmove  %ebp,%ebx
 804c0cc:	01 d3                	add    %edx,%ebx
 804c0ce:	11 ce                	adc    %ecx,%esi
 804c0d0:	3d e0 07 00 00       	cmp    $0x7e0,%eax
 804c0d5:	b9 00 00 00 00       	mov    $0x0,%ecx
 804c0da:	ba 7c 63 1f 21       	mov    $0x211f637c,%edx
 804c0df:	0f 44 ca             	cmove  %edx,%ecx
 804c0e2:	ba 00 00 00 00       	mov    $0x0,%edx
 804c0e7:	bd d9 5d 42 f8       	mov    $0xf8425dd9,%ebp
 804c0ec:	0f 44 d5             	cmove  %ebp,%edx
 804c0ef:	01 da                	add    %ebx,%edx
 804c0f1:	11 f1                	adc    %esi,%ecx
 804c0f3:	3d e8 07 00 00       	cmp    $0x7e8,%eax
 804c0f8:	be 00 00 00 00       	mov    $0x0,%esi
 804c0fd:	bb 0f c5 ca 43       	mov    $0x43cac50f,%ebx
 804c102:	0f 44 f3             	cmove  %ebx,%esi
 804c105:	bb 00 00 00 00       	mov    $0x0,%ebx
 804c10a:	bd 5d 4c 86 1e       	mov    $0x1e864c5d,%ebp
 804c10f:	0f 44 dd             	cmove  %ebp,%ebx
 804c112:	01 d3                	add    %edx,%ebx
 804c114:	11 ce                	adc    %ecx,%esi
 804c116:	3d f0 07 00 00       	cmp    $0x7f0,%eax
 804c11b:	b9 00 00 00 00       	mov    $0x0,%ecx
 804c120:	ba 92 38 aa e3       	mov    $0xe3aa3892,%edx
 804c125:	0f 44 ca             	cmove  %edx,%ecx
 804c128:	ba 00 00 00 00       	mov    $0x0,%edx
 804c12d:	bd da 71 db 39       	mov    $0x39db71da,%ebp
 804c132:	0f 44 d5             	cmove  %ebp,%edx
 804c135:	01 da                	add    %ebx,%edx
 804c137:	11 f1                	adc    %esi,%ecx
 804c139:	3d f8 07 00 00       	cmp    $0x7f8,%eax
 804c13e:	be 00 00 00 00       	mov    $0x0,%esi
 804c143:	b8 15 57 42 c6       	mov    $0xc6425715,%eax
 804c148:	0f 44 f0             	cmove  %eax,%esi
 804c14b:	b8 ec d3 91 2a       	mov    $0x2a91d3ec,%eax
 804c150:	0f 44 f8             	cmove  %eax,%edi
 804c153:	01 d7                	add    %edx,%edi
 804c155:	89 bc 24 00 01 00 00 	mov    %edi,0x100(%esp)
 804c15c:	11 ce                	adc    %ecx,%esi
 804c15e:	89 74 24 14          	mov    %esi,0x14(%esp)
 804c162:	8b 44 24 60          	mov    0x60(%esp),%eax
 804c166:	c1 e8 05             	shr    $0x5,%eax
 804c169:	25 f8 07 00 00       	and    $0x7f8,%eax
 804c16e:	62 f2 7d 08 7c c0    	vpbroadcastd %eax,%xmm0
 804c174:	c5 e9 ef d2          	vpxor  %xmm2,%xmm2,%xmm2
 804c178:	b9 80 fc ff ff       	mov    $0xfffffc80,%ecx
 804c17d:	c5 f1 ef c9          	vpxor  %xmm1,%xmm1,%xmm1
 804c181:	66 66 66 66 66 66 2e 	data16 data16 data16 data16 data16 nopw %cs:0x0(%eax,%eax,1)
 804c188:	0f 1f 84 00 00 00 00 
 804c18f:	00 
 804c190:	c5 fa 6f 99 8c 33 06 	vmovdqu 0x806338c(%ecx),%xmm3
 804c197:	08 
 804c198:	c5 fa 6f a1 9c 33 06 	vmovdqu 0x806339c(%ecx),%xmm4
 804c19f:	08 
 804c1a0:	c5 fc 46 c8          	kxnorw %k0,%k0,%k1
 804c1a4:	62 f2 fd 29 90 2c 1d 	vpgatherdq 0x8060008(,%xmm3,1),%ymm5{%k1}
 804c1ab:	08 00 06 08 
 804c1af:	c5 fc 46 c8          	kxnorw %k0,%k0,%k1
 804c1b3:	62 f2 fd 29 90 34 25 	vpgatherdq 0x8060008(,%xmm4,1),%ymm6{%k1}
 804c1ba:	08 00 06 08 
 804c1be:	62 f1 7d 08 76 cb    	vpcmpeqd %xmm3,%xmm0,%k1
 804c1c4:	62 f1 7d 08 76 d4    	vpcmpeqd %xmm4,%xmm0,%k2
 804c1ca:	62 f1 fd a9 6f dd    	vmovdqa64 %ymm5,%ymm3{%k1}{z}
 804c1d0:	c5 e5 d4 d2          	vpaddq %ymm2,%ymm3,%ymm2
 804c1d4:	62 f1 fd aa 6f de    	vmovdqa64 %ymm6,%ymm3{%k2}{z}
 804c1da:	c5 fa 6f a1 ac 33 06 	vmovdqu 0x80633ac(%ecx),%xmm4
 804c1e1:	08 
 804c1e2:	c5 fa 6f a9 bc 33 06 	vmovdqu 0x80633bc(%ecx),%xmm5
 804c1e9:	08 
 804c1ea:	c5 fc 46 c8          	kxnorw %k0,%k0,%k1
 804c1ee:	62 f2 fd 29 90 34 25 	vpgatherdq 0x8060008(,%xmm4,1),%ymm6{%k1}
 804c1f5:	08 00 06 08 
 804c1f9:	c5 fc 46 c8          	kxnorw %k0,%k0,%k1
 804c1fd:	62 f2 fd 29 90 3c 2d 	vpgatherdq 0x8060008(,%xmm5,1),%ymm7{%k1}
 804c204:	08 00 06 08 
 804c208:	c5 e5 d4 d9          	vpaddq %ymm1,%ymm3,%ymm3
 804c20c:	62 f1 7d 08 76 cc    	vpcmpeqd %xmm4,%xmm0,%k1
 804c212:	62 f1 7d 08 76 d5    	vpcmpeqd %xmm5,%xmm0,%k2
 804c218:	c5 fa 6f 89 cc 33 06 	vmovdqu 0x80633cc(%ecx),%xmm1
 804c21f:	08 
 804c220:	c5 fc 46 d8          	kxnorw %k0,%k0,%k3
 804c224:	62 f1 7d 08 76 e1    	vpcmpeqd %xmm1,%xmm0,%k4
 804c22a:	62 f2 fd 2b 90 24 0d 	vpgatherdq 0x8060008(,%xmm1,1),%ymm4{%k3}
 804c231:	08 00 06 08 
 804c235:	62 f1 fd a9 6f ce    	vmovdqa64 %ymm6,%ymm1{%k1}{z}
 804c23b:	62 f1 fd ac 6f e4    	vmovdqa64 %ymm4,%ymm4{%k4}{z}
 804c241:	c5 f5 d4 cc          	vpaddq %ymm4,%ymm1,%ymm1
 804c245:	c5 fa 6f a1 dc 33 06 	vmovdqu 0x80633dc(%ecx),%xmm4
 804c24c:	08 
 804c24d:	c5 fc 46 c8          	kxnorw %k0,%k0,%k1
 804c251:	62 f1 7d 08 76 dc    	vpcmpeqd %xmm4,%xmm0,%k3
 804c257:	62 f2 fd 29 90 2c 25 	vpgatherdq 0x8060008(,%xmm4,1),%ymm5{%k1}
 804c25e:	08 00 06 08 
 804c262:	c5 ed d4 c9          	vpaddq %ymm1,%ymm2,%ymm1
 804c266:	62 f1 fd aa 6f d7    	vmovdqa64 %ymm7,%ymm2{%k2}{z}
 804c26c:	62 f1 fd ab 6f e5    	vmovdqa64 %ymm5,%ymm4{%k3}{z}
 804c272:	c5 ed d4 d4          	vpaddq %ymm4,%ymm2,%ymm2
 804c276:	c5 e5 d4 da          	vpaddq %ymm2,%ymm3,%ymm3
 804c27a:	85 c9                	test   %ecx,%ecx
 804c27c:	74 56                	je     804c2d4 <main+0x30b4>
 804c27e:	c5 fa 6f 91 ec 33 06 	vmovdqu 0x80633ec(%ecx),%xmm2
 804c285:	08 
 804c286:	c5 fa 6f a1 fc 33 06 	vmovdqu 0x80633fc(%ecx),%xmm4
 804c28d:	08 
 804c28e:	c5 fc 46 c8          	kxnorw %k0,%k0,%k1
 804c292:	62 f2 fd 29 90 2c 15 	vpgatherdq 0x8060008(,%xmm2,1),%ymm5{%k1}
 804c299:	08 00 06 08 
 804c29d:	c5 fc 46 c8          	kxnorw %k0,%k0,%k1
 804c2a1:	62 f2 fd 29 90 34 25 	vpgatherdq 0x8060008(,%xmm4,1),%ymm6{%k1}
 804c2a8:	08 00 06 08 
 804c2ac:	62 f1 7d 08 76 ca    	vpcmpeqd %xmm2,%xmm0,%k1
 804c2b2:	62 f1 7d 08 76 d4    	vpcmpeqd %xmm4,%xmm0,%k2
 804c2b8:	62 f1 fd a9 6f d5    	vmovdqa64 %ymm5,%ymm2{%k1}{z}
 804c2be:	62 f1 fd aa 6f e6    	vmovdqa64 %ymm6,%ymm4{%k2}{z}
 804c2c4:	c5 ed d4 d1          	vpaddq %ymm1,%ymm2,%ymm2
 804c2c8:	c5 dd d4 cb          	vpaddq %ymm3,%ymm4,%ymm1
 804c2cc:	83 e9 80             	sub    $0xffffff80,%ecx
 804c2cf:	e9 bc fe ff ff       	jmp    804c190 <main+0x2f70>
 804c2d4:	c5 e5 d4 c1          	vpaddq %ymm1,%ymm3,%ymm0
 804c2d8:	c4 e3 7d 39 c1 01    	vextracti128 $0x1,%ymm0,%xmm1
 804c2de:	c5 f9 d4 c1          	vpaddq %xmm1,%xmm0,%xmm0
 804c2e2:	c5 f9 70 c8 ee       	vpshufd $0xee,%xmm0,%xmm1
 804c2e7:	c5 f9 d4 c1          	vpaddq %xmm1,%xmm0,%xmm0
 804c2eb:	c4 e3 79 16 c1 01    	vpextrd $0x1,%xmm0,%ecx
 804c2f1:	c5 f9 7e c2          	vmovd  %xmm0,%edx
 804c2f5:	31 ff                	xor    %edi,%edi
 804c2f7:	3d c8 07 00 00       	cmp    $0x7c8,%eax
 804c2fc:	be 00 00 00 00       	mov    $0x0,%esi
 804c301:	bb fb a2 10 b2       	mov    $0xb210a2fb,%ebx
 804c306:	0f 44 f3             	cmove  %ebx,%esi
 804c309:	bb 00 00 00 00       	mov    $0x0,%ebx
 804c30e:	bd 79 eb 49 82       	mov    $0x8249eb79,%ebp
 804c313:	0f 44 dd             	cmove  %ebp,%ebx
 804c316:	01 d3                	add    %edx,%ebx
 804c318:	11 ce                	adc    %ecx,%esi
 804c31a:	3d d0 07 00 00       	cmp    $0x7d0,%eax
 804c31f:	b9 00 00 00 00       	mov    $0x0,%ecx
 804c324:	ba 9d 80 ba 3a       	mov    $0x3aba809d,%edx
 804c329:	0f 44 ca             	cmove  %edx,%ecx
 804c32c:	ba 00 00 00 00       	mov    $0x0,%edx
 804c331:	bd 74 27 a7 e9       	mov    $0xe9a72774,%ebp
 804c336:	0f 44 d5             	cmove  %ebp,%edx
 804c339:	01 da                	add    %ebx,%edx
 804c33b:	11 f1                	adc    %esi,%ecx
 804c33d:	3d d8 07 00 00       	cmp    $0x7d8,%eax
 804c342:	be 00 00 00 00       	mov    $0x0,%esi
 804c347:	bb d1 4f 6e 21       	mov    $0x216e4fd1,%ebx
 804c34c:	0f 44 f3             	cmove  %ebx,%esi
 804c34f:	bb 00 00 00 00       	mov    $0x0,%ebx
 804c354:	bd 42 bf f0 93       	mov    $0x93f0bf42,%ebp
 804c359:	0f 44 dd             	cmove  %ebp,%ebx
 804c35c:	01 d3                	add    %edx,%ebx
 804c35e:	11 ce                	adc    %ecx,%esi
 804c360:	3d e0 07 00 00       	cmp    $0x7e0,%eax
 804c365:	b9 00 00 00 00       	mov    $0x0,%ecx
 804c36a:	ba 21 1f 63 7c       	mov    $0x7c631f21,%edx
 804c36f:	0f 44 ca             	cmove  %edx,%ecx
 804c372:	ba 00 00 00 00       	mov    $0x0,%edx
 804c377:	bd f8 42 5d d9       	mov    $0xd95d42f8,%ebp
 804c37c:	0f 44 d5             	cmove  %ebp,%edx
 804c37f:	01 da                	add    %ebx,%edx
 804c381:	11 f1                	adc    %esi,%ecx
 804c383:	3d e8 07 00 00       	cmp    $0x7e8,%eax
 804c388:	be 00 00 00 00       	mov    $0x0,%esi
 804c38d:	bb 43 ca c5 0f       	mov    $0xfc5ca43,%ebx
 804c392:	0f 44 f3             	cmove  %ebx,%esi
 804c395:	bb 00 00 00 00       	mov    $0x0,%ebx
 804c39a:	bd 1e 86 4c 5d       	mov    $0x5d4c861e,%ebp
 804c39f:	0f 44 dd             	cmove  %ebp,%ebx
 804c3a2:	01 d3                	add    %edx,%ebx
 804c3a4:	11 ce                	adc    %ecx,%esi
 804c3a6:	3d f0 07 00 00       	cmp    $0x7f0,%eax
 804c3ab:	b9 00 00 00 00       	mov    $0x0,%ecx
 804c3b0:	ba e3 aa 38 92       	mov    $0x9238aae3,%edx
 804c3b5:	0f 44 ca             	cmove  %edx,%ecx
 804c3b8:	ba 00 00 00 00       	mov    $0x0,%edx
 804c3bd:	bd 39 db 71 da       	mov    $0xda71db39,%ebp
 804c3c2:	0f 44 d5             	cmove  %ebp,%edx
 804c3c5:	01 da                	add    %ebx,%edx
 804c3c7:	11 f1                	adc    %esi,%ecx
 804c3c9:	3d f8 07 00 00       	cmp    $0x7f8,%eax
 804c3ce:	be 00 00 00 00       	mov    $0x0,%esi
 804c3d3:	b8 c6 42 57 15       	mov    $0x155742c6,%eax
 804c3d8:	0f 44 f0             	cmove  %eax,%esi
 804c3db:	b8 2a 91 d3 ec       	mov    $0xecd3912a,%eax
 804c3e0:	0f 44 f8             	cmove  %eax,%edi
 804c3e3:	01 d7                	add    %edx,%edi
 804c3e5:	89 7c 24 10          	mov    %edi,0x10(%esp)
 804c3e9:	11 ce                	adc    %ecx,%esi
 804c3eb:	89 74 24 0c          	mov    %esi,0xc(%esp)
 804c3ef:	8b 44 24 20          	mov    0x20(%esp),%eax
 804c3f3:	8b 4c 24 60          	mov    0x60(%esp),%ecx
 804c3f7:	0f a4 c1 03          	shld   $0x3,%eax,%ecx
 804c3fb:	81 e1 f8 07 00 00    	and    $0x7f8,%ecx
 804c401:	89 ca                	mov    %ecx,%edx
 804c403:	62 f2 7d 08 7c c1    	vpbroadcastd %ecx,%xmm0
 804c409:	c5 e9 ef d2          	vpxor  %xmm2,%xmm2,%xmm2
 804c40d:	b8 80 fc ff ff       	mov    $0xfffffc80,%eax
 804c412:	c5 f1 ef c9          	vpxor  %xmm1,%xmm1,%xmm1
 804c416:	66 2e 0f 1f 84 00 00 	nopw   %cs:0x0(%eax,%eax,1)
 804c41d:	00 00 00 
 804c420:	c5 fa 6f 98 8c 33 06 	vmovdqu 0x806338c(%eax),%xmm3
 804c427:	08 
 804c428:	c5 fa 6f a0 9c 33 06 	vmovdqu 0x806339c(%eax),%xmm4
 804c42f:	08 
 804c430:	c5 fc 46 c8          	kxnorw %k0,%k0,%k1
 804c434:	62 f2 fd 29 90 2c 1d 	vpgatherdq 0x8060808(,%xmm3,1),%ymm5{%k1}
 804c43b:	08 08 06 08 
 804c43f:	c5 fc 46 c8          	kxnorw %k0,%k0,%k1
 804c443:	62 f2 fd 29 90 34 25 	vpgatherdq 0x8060808(,%xmm4,1),%ymm6{%k1}
 804c44a:	08 08 06 08 
 804c44e:	62 f1 7d 08 76 cb    	vpcmpeqd %xmm3,%xmm0,%k1
 804c454:	62 f1 7d 08 76 d4    	vpcmpeqd %xmm4,%xmm0,%k2
 804c45a:	62 f1 fd a9 6f dd    	vmovdqa64 %ymm5,%ymm3{%k1}{z}
 804c460:	c5 e5 d4 d2          	vpaddq %ymm2,%ymm3,%ymm2
 804c464:	62 f1 fd aa 6f de    	vmovdqa64 %ymm6,%ymm3{%k2}{z}
 804c46a:	c5 fa 6f a0 ac 33 06 	vmovdqu 0x80633ac(%eax),%xmm4
 804c471:	08 
 804c472:	c5 fa 6f a8 bc 33 06 	vmovdqu 0x80633bc(%eax),%xmm5
 804c479:	08 
 804c47a:	c5 fc 46 c8          	kxnorw %k0,%k0,%k1
 804c47e:	62 f2 fd 29 90 34 25 	vpgatherdq 0x8060808(,%xmm4,1),%ymm6{%k1}
 804c485:	08 08 06 08 
 804c489:	c5 fc 46 c8          	kxnorw %k0,%k0,%k1
 804c48d:	62 f2 fd 29 90 3c 2d 	vpgatherdq 0x8060808(,%xmm5,1),%ymm7{%k1}
 804c494:	08 08 06 08 
 804c498:	c5 e5 d4 d9          	vpaddq %ymm1,%ymm3,%ymm3
 804c49c:	62 f1 7d 08 76 cc    	vpcmpeqd %xmm4,%xmm0,%k1
 804c4a2:	62 f1 7d 08 76 d5    	vpcmpeqd %xmm5,%xmm0,%k2
 804c4a8:	c5 fa 6f 88 cc 33 06 	vmovdqu 0x80633cc(%eax),%xmm1
 804c4af:	08 
 804c4b0:	c5 fc 46 d8          	kxnorw %k0,%k0,%k3
 804c4b4:	62 f1 7d 08 76 e1    	vpcmpeqd %xmm1,%xmm0,%k4
 804c4ba:	62 f2 fd 2b 90 24 0d 	vpgatherdq 0x8060808(,%xmm1,1),%ymm4{%k3}
 804c4c1:	08 08 06 08 
 804c4c5:	62 f1 fd a9 6f ce    	vmovdqa64 %ymm6,%ymm1{%k1}{z}
 804c4cb:	62 f1 fd ac 6f e4    	vmovdqa64 %ymm4,%ymm4{%k4}{z}
 804c4d1:	c5 f5 d4 cc          	vpaddq %ymm4,%ymm1,%ymm1
 804c4d5:	c5 fa 6f a0 dc 33 06 	vmovdqu 0x80633dc(%eax),%xmm4
 804c4dc:	08 
 804c4dd:	c5 fc 46 c8          	kxnorw %k0,%k0,%k1
 804c4e1:	62 f1 7d 08 76 dc    	vpcmpeqd %xmm4,%xmm0,%k3
 804c4e7:	62 f2 fd 29 90 2c 25 	vpgatherdq 0x8060808(,%xmm4,1),%ymm5{%k1}
 804c4ee:	08 08 06 08 
 804c4f2:	c5 ed d4 c9          	vpaddq %ymm1,%ymm2,%ymm1
 804c4f6:	62 f1 fd aa 6f d7    	vmovdqa64 %ymm7,%ymm2{%k2}{z}
 804c4fc:	62 f1 fd ab 6f e5    	vmovdqa64 %ymm5,%ymm4{%k3}{z}
 804c502:	c5 ed d4 d4          	vpaddq %ymm4,%ymm2,%ymm2
 804c506:	c5 e5 d4 da          	vpaddq %ymm2,%ymm3,%ymm3
 804c50a:	85 c0                	test   %eax,%eax
 804c50c:	74 56                	je     804c564 <main+0x3344>
 804c50e:	c5 fa 6f 90 ec 33 06 	vmovdqu 0x80633ec(%eax),%xmm2
 804c515:	08 
 804c516:	c5 fa 6f a0 fc 33 06 	vmovdqu 0x80633fc(%eax),%xmm4
 804c51d:	08 
 804c51e:	c5 fc 46 c8          	kxnorw %k0,%k0,%k1
 804c522:	62 f2 fd 29 90 2c 15 	vpgatherdq 0x8060808(,%xmm2,1),%ymm5{%k1}
 804c529:	08 08 06 08 
 804c52d:	c5 fc 46 c8          	kxnorw %k0,%k0,%k1
 804c531:	62 f2 fd 29 90 34 25 	vpgatherdq 0x8060808(,%xmm4,1),%ymm6{%k1}
 804c538:	08 08 06 08 
 804c53c:	62 f1 7d 08 76 ca    	vpcmpeqd %xmm2,%xmm0,%k1
 804c542:	62 f1 7d 08 76 d4    	vpcmpeqd %xmm4,%xmm0,%k2
 804c548:	62 f1 fd a9 6f d5    	vmovdqa64 %ymm5,%ymm2{%k1}{z}
 804c54e:	62 f1 fd aa 6f e6    	vmovdqa64 %ymm6,%ymm4{%k2}{z}
 804c554:	c5 ed d4 d1          	vpaddq %ymm1,%ymm2,%ymm2
 804c558:	c5 dd d4 cb          	vpaddq %ymm3,%ymm4,%ymm1
 804c55c:	83 e8 80             	sub    $0xffffff80,%eax
 804c55f:	e9 bc fe ff ff       	jmp    804c420 <main+0x3200>
 804c564:	c5 e5 d4 c1          	vpaddq %ymm1,%ymm3,%ymm0
 804c568:	c4 e3 7d 39 c1 01    	vextracti128 $0x1,%ymm0,%xmm1
 804c56e:	c5 f9 d4 c1          	vpaddq %xmm1,%xmm0,%xmm0
 804c572:	c5 f9 70 c8 ee       	vpshufd $0xee,%xmm0,%xmm1
 804c577:	c5 f9 d4 c1          	vpaddq %xmm1,%xmm0,%xmm0
 804c57b:	c4 e3 79 16 c0 01    	vpextrd $0x1,%xmm0,%eax
 804c581:	c5 f9 7e c1          	vmovd  %xmm0,%ecx
 804c585:	31 ff                	xor    %edi,%edi
 804c587:	89 d5                	mov    %edx,%ebp
 804c589:	81 fa c8 07 00 00    	cmp    $0x7c8,%edx
 804c58f:	ba 00 00 00 00       	mov    $0x0,%edx
 804c594:	be a2 fb b2 10       	mov    $0x10b2fba2,%esi
 804c599:	0f 44 d6             	cmove  %esi,%edx
 804c59c:	be 00 00 00 00       	mov    $0x0,%esi
 804c5a1:	bb eb 79 82 49       	mov    $0x498279eb,%ebx
 804c5a6:	0f 44 f3             	cmove  %ebx,%esi
 804c5a9:	01 ce                	add    %ecx,%esi
 804c5ab:	11 c2                	adc    %eax,%edx
 804c5ad:	81 fd d0 07 00 00    	cmp    $0x7d0,%ebp
 804c5b3:	b8 00 00 00 00       	mov    $0x0,%eax
 804c5b8:	b9 80 9d 3a ba       	mov    $0xba3a9d80,%ecx
 804c5bd:	0f 44 c1             	cmove  %ecx,%eax
 804c5c0:	b9 00 00 00 00       	mov    $0x0,%ecx
 804c5c5:	bb 27 74 e9 a7       	mov    $0xa7e97427,%ebx
 804c5ca:	0f 44 cb             	cmove  %ebx,%ecx
 804c5cd:	01 f1                	add    %esi,%ecx
 804c5cf:	11 d0                	adc    %edx,%eax
 804c5d1:	81 fd d8 07 00 00    	cmp    $0x7d8,%ebp
 804c5d7:	ba 00 00 00 00       	mov    $0x0,%edx
 804c5dc:	be 4f d1 21 6e       	mov    $0x6e21d14f,%esi
 804c5e1:	0f 44 d6             	cmove  %esi,%edx
 804c5e4:	be 00 00 00 00       	mov    $0x0,%esi
 804c5e9:	bb bf 42 93 f0       	mov    $0xf09342bf,%ebx
 804c5ee:	0f 44 f3             	cmove  %ebx,%esi
 804c5f1:	01 ce                	add    %ecx,%esi
 804c5f3:	11 c2                	adc    %eax,%edx
 804c5f5:	81 fd e0 07 00 00    	cmp    $0x7e0,%ebp
 804c5fb:	b8 00 00 00 00       	mov    $0x0,%eax
 804c600:	b9 1f 21 7c 63       	mov    $0x637c211f,%ecx
 804c605:	0f 44 c1             	cmove  %ecx,%eax
 804c608:	b9 00 00 00 00       	mov    $0x0,%ecx
 804c60d:	bb 42 f8 d9 5d       	mov    $0x5dd9f842,%ebx
 804c612:	0f 44 cb             	cmove  %ebx,%ecx
 804c615:	01 f1                	add    %esi,%ecx
 804c617:	11 d0                	adc    %edx,%eax
 804c619:	81 fd e8 07 00 00    	cmp    $0x7e8,%ebp
 804c61f:	ba 00 00 00 00       	mov    $0x0,%edx
 804c624:	be ca 43 0f c5       	mov    $0xc50f43ca,%esi
 804c629:	0f 44 d6             	cmove  %esi,%edx
 804c62c:	be 00 00 00 00       	mov    $0x0,%esi
 804c631:	bb 86 1e 5d 4c       	mov    $0x4c5d1e86,%ebx
 804c636:	0f 44 f3             	cmove  %ebx,%esi
 804c639:	01 ce                	add    %ecx,%esi
 804c63b:	11 c2                	adc    %eax,%edx
 804c63d:	81 fd f0 07 00 00    	cmp    $0x7f0,%ebp
 804c643:	b8 00 00 00 00       	mov    $0x0,%eax
 804c648:	b9 aa e3 92 38       	mov    $0x3892e3aa,%ecx
 804c64d:	0f 44 c1             	cmove  %ecx,%eax
 804c650:	b9 00 00 00 00       	mov    $0x0,%ecx
 804c655:	bb db 39 da 71       	mov    $0x71da39db,%ebx
 804c65a:	0f 44 cb             	cmove  %ebx,%ecx
 804c65d:	01 f1                	add    %esi,%ecx
 804c65f:	11 d0                	adc    %edx,%eax
 804c661:	81 fd f8 07 00 00    	cmp    $0x7f8,%ebp
 804c667:	be 00 00 00 00       	mov    $0x0,%esi
 804c66c:	ba 42 c6 15 57       	mov    $0x5715c642,%edx
 804c671:	0f 44 f2             	cmove  %edx,%esi
 804c674:	ba 91 2a ec d3       	mov    $0xd3ec2a91,%edx
 804c679:	0f 44 fa             	cmove  %edx,%edi
 804c67c:	01 cf                	add    %ecx,%edi
 804c67e:	89 7c 24 60          	mov    %edi,0x60(%esp)
 804c682:	11 c6                	adc    %eax,%esi
 804c684:	89 74 24 08          	mov    %esi,0x8(%esp)
 804c688:	8b 44 24 20          	mov    0x20(%esp),%eax
 804c68c:	c1 e8 15             	shr    $0x15,%eax
 804c68f:	83 e0 f8             	and    $0xfffffff8,%eax
 804c692:	62 f2 7d 08 7c c0    	vpbroadcastd %eax,%xmm0
 804c698:	c5 e9 ef d2          	vpxor  %xmm2,%xmm2,%xmm2
 804c69c:	b9 80 fc ff ff       	mov    $0xfffffc80,%ecx
 804c6a1:	c5 f1 ef c9          	vpxor  %xmm1,%xmm1,%xmm1
 804c6a5:	66 66 2e 0f 1f 84 00 	data16 nopw %cs:0x0(%eax,%eax,1)
 804c6ac:	00 00 00 00 
 804c6b0:	c5 fa 6f 99 8c 33 06 	vmovdqu 0x806338c(%ecx),%xmm3
 804c6b7:	08 
 804c6b8:	c5 fa 6f a1 9c 33 06 	vmovdqu 0x806339c(%ecx),%xmm4
 804c6bf:	08 
 804c6c0:	c5 fc 46 c8          	kxnorw %k0,%k0,%k1
 804c6c4:	62 f2 fd 29 90 2c 1d 	vpgatherdq 0x8061008(,%xmm3,1),%ymm5{%k1}
 804c6cb:	08 10 06 08 
 804c6cf:	c5 fc 46 c8          	kxnorw %k0,%k0,%k1
 804c6d3:	62 f2 fd 29 90 34 25 	vpgatherdq 0x8061008(,%xmm4,1),%ymm6{%k1}
 804c6da:	08 10 06 08 
 804c6de:	62 f1 7d 08 76 cb    	vpcmpeqd %xmm3,%xmm0,%k1
 804c6e4:	62 f1 7d 08 76 d4    	vpcmpeqd %xmm4,%xmm0,%k2
 804c6ea:	62 f1 fd a9 6f dd    	vmovdqa64 %ymm5,%ymm3{%k1}{z}
 804c6f0:	c5 e5 d4 d2          	vpaddq %ymm2,%ymm3,%ymm2
 804c6f4:	62 f1 fd aa 6f de    	vmovdqa64 %ymm6,%ymm3{%k2}{z}
 804c6fa:	c5 fa 6f a1 ac 33 06 	vmovdqu 0x80633ac(%ecx),%xmm4
 804c701:	08 
 804c702:	c5 fa 6f a9 bc 33 06 	vmovdqu 0x80633bc(%ecx),%xmm5
 804c709:	08 
 804c70a:	c5 fc 46 c8          	kxnorw %k0,%k0,%k1
 804c70e:	62 f2 fd 29 90 34 25 	vpgatherdq 0x8061008(,%xmm4,1),%ymm6{%k1}
 804c715:	08 10 06 08 
 804c719:	c5 fc 46 c8          	kxnorw %k0,%k0,%k1
 804c71d:	62 f2 fd 29 90 3c 2d 	vpgatherdq 0x8061008(,%xmm5,1),%ymm7{%k1}
 804c724:	08 10 06 08 
 804c728:	c5 e5 d4 d9          	vpaddq %ymm1,%ymm3,%ymm3
 804c72c:	62 f1 7d 08 76 cc    	vpcmpeqd %xmm4,%xmm0,%k1
 804c732:	62 f1 7d 08 76 d5    	vpcmpeqd %xmm5,%xmm0,%k2
 804c738:	c5 fa 6f 89 cc 33 06 	vmovdqu 0x80633cc(%ecx),%xmm1
 804c73f:	08 
 804c740:	c5 fc 46 d8          	kxnorw %k0,%k0,%k3
 804c744:	62 f1 7d 08 76 e1    	vpcmpeqd %xmm1,%xmm0,%k4
 804c74a:	62 f2 fd 2b 90 24 0d 	vpgatherdq 0x8061008(,%xmm1,1),%ymm4{%k3}
 804c751:	08 10 06 08 
 804c755:	62 f1 fd a9 6f ce    	vmovdqa64 %ymm6,%ymm1{%k1}{z}
 804c75b:	62 f1 fd ac 6f e4    	vmovdqa64 %ymm4,%ymm4{%k4}{z}
 804c761:	c5 f5 d4 cc          	vpaddq %ymm4,%ymm1,%ymm1
 804c765:	c5 fa 6f a1 dc 33 06 	vmovdqu 0x80633dc(%ecx),%xmm4
 804c76c:	08 
 804c76d:	c5 fc 46 c8          	kxnorw %k0,%k0,%k1
 804c771:	62 f1 7d 08 76 dc    	vpcmpeqd %xmm4,%xmm0,%k3
 804c777:	62 f2 fd 29 90 2c 25 	vpgatherdq 0x8061008(,%xmm4,1),%ymm5{%k1}
 804c77e:	08 10 06 08 
 804c782:	c5 ed d4 c9          	vpaddq %ymm1,%ymm2,%ymm1
 804c786:	62 f1 fd aa 6f d7    	vmovdqa64 %ymm7,%ymm2{%k2}{z}
 804c78c:	62 f1 fd ab 6f e5    	vmovdqa64 %ymm5,%ymm4{%k3}{z}
 804c792:	c5 ed d4 d4          	vpaddq %ymm4,%ymm2,%ymm2
 804c796:	c5 e5 d4 da          	vpaddq %ymm2,%ymm3,%ymm3
 804c79a:	85 c9                	test   %ecx,%ecx
 804c79c:	74 56                	je     804c7f4 <main+0x35d4>
 804c79e:	c5 fa 6f 91 ec 33 06 	vmovdqu 0x80633ec(%ecx),%xmm2
 804c7a5:	08 
 804c7a6:	c5 fa 6f a1 fc 33 06 	vmovdqu 0x80633fc(%ecx),%xmm4
 804c7ad:	08 
 804c7ae:	c5 fc 46 c8          	kxnorw %k0,%k0,%k1
 804c7b2:	62 f2 fd 29 90 2c 15 	vpgatherdq 0x8061008(,%xmm2,1),%ymm5{%k1}
 804c7b9:	08 10 06 08 
 804c7bd:	c5 fc 46 c8          	kxnorw %k0,%k0,%k1
 804c7c1:	62 f2 fd 29 90 34 25 	vpgatherdq 0x8061008(,%xmm4,1),%ymm6{%k1}
 804c7c8:	08 10 06 08 
 804c7cc:	62 f1 7d 08 76 ca    	vpcmpeqd %xmm2,%xmm0,%k1
 804c7d2:	62 f1 7d 08 76 d4    	vpcmpeqd %xmm4,%xmm0,%k2
 804c7d8:	62 f1 fd a9 6f d5    	vmovdqa64 %ymm5,%ymm2{%k1}{z}
 804c7de:	62 f1 fd aa 6f e6    	vmovdqa64 %ymm6,%ymm4{%k2}{z}
 804c7e4:	c5 ed d4 d1          	vpaddq %ymm1,%ymm2,%ymm2
 804c7e8:	c5 dd d4 cb          	vpaddq %ymm3,%ymm4,%ymm1
 804c7ec:	83 e9 80             	sub    $0xffffff80,%ecx
 804c7ef:	e9 bc fe ff ff       	jmp    804c6b0 <main+0x3490>
 804c7f4:	c5 e5 d4 c1          	vpaddq %ymm1,%ymm3,%ymm0
 804c7f8:	c4 e3 7d 39 c1 01    	vextracti128 $0x1,%ymm0,%xmm1
 804c7fe:	c5 f9 d4 c1          	vpaddq %xmm1,%xmm0,%xmm0
 804c802:	c5 f9 70 c8 ee       	vpshufd $0xee,%xmm0,%xmm1
 804c807:	c5 f9 d4 c1          	vpaddq %xmm1,%xmm0,%xmm0
 804c80b:	c4 e3 79 16 c1 01    	vpextrd $0x1,%xmm0,%ecx
 804c811:	c5 f9 7e c2          	vmovd  %xmm0,%edx
 804c815:	31 ed                	xor    %ebp,%ebp
 804c817:	3d c8 07 00 00       	cmp    $0x7c8,%eax
 804c81c:	be 00 00 00 00       	mov    $0x0,%esi
 804c821:	bf 49 82 79 eb       	mov    $0xeb798249,%edi
 804c826:	0f 44 f7             	cmove  %edi,%esi
 804c829:	bf 00 00 00 00       	mov    $0x0,%edi
 804c82e:	bb 10 b2 fb a2       	mov    $0xa2fbb210,%ebx
 804c833:	0f 44 fb             	cmove  %ebx,%edi
 804c836:	01 d7                	add    %edx,%edi
 804c838:	11 ce                	adc    %ecx,%esi
 804c83a:	3d d0 07 00 00       	cmp    $0x7d0,%eax
 804c83f:	b9 00 00 00 00       	mov    $0x0,%ecx
 804c844:	ba a7 e9 74 27       	mov    $0x2774e9a7,%edx
 804c849:	0f 44 ca             	cmove  %edx,%ecx
 804c84c:	ba 00 00 00 00       	mov    $0x0,%edx
 804c851:	bb ba 3a 9d 80       	mov    $0x809d3aba,%ebx
 804c856:	0f 44 d3             	cmove  %ebx,%edx
 804c859:	01 fa                	add    %edi,%edx
 804c85b:	11 f1                	adc    %esi,%ecx
 804c85d:	3d d8 07 00 00       	cmp    $0x7d8,%eax
 804c862:	be 00 00 00 00       	mov    $0x0,%esi
 804c867:	bf f0 93 42 bf       	mov    $0xbf4293f0,%edi
 804c86c:	0f 44 f7             	cmove  %edi,%esi
 804c86f:	bf 00 00 00 00       	mov    $0x0,%edi
 804c874:	bb 6e 21 d1 4f       	mov    $0x4fd1216e,%ebx
 804c879:	0f 44 fb             	cmove  %ebx,%edi
 804c87c:	01 d7                	add    %edx,%edi
 804c87e:	11 ce                	adc    %ecx,%esi
 804c880:	3d e0 07 00 00       	cmp    $0x7e0,%eax
 804c885:	b9 00 00 00 00       	mov    $0x0,%ecx
 804c88a:	ba 5d d9 f8 42       	mov    $0x42f8d95d,%edx
 804c88f:	0f 44 ca             	cmove  %edx,%ecx
 804c892:	ba 00 00 00 00       	mov    $0x0,%edx
 804c897:	bb 63 7c 21 1f       	mov    $0x1f217c63,%ebx
 804c89c:	0f 44 d3             	cmove  %ebx,%edx
 804c89f:	01 fa                	add    %edi,%edx
 804c8a1:	11 f1                	adc    %esi,%ecx
 804c8a3:	3d e8 07 00 00       	cmp    $0x7e8,%eax
 804c8a8:	be 00 00 00 00       	mov    $0x0,%esi
 804c8ad:	bf 4c 5d 1e 86       	mov    $0x861e5d4c,%edi
 804c8b2:	0f 44 f7             	cmove  %edi,%esi
 804c8b5:	bf 00 00 00 00       	mov    $0x0,%edi
 804c8ba:	bb c5 0f 43 ca       	mov    $0xca430fc5,%ebx
 804c8bf:	0f 44 fb             	cmove  %ebx,%edi
 804c8c2:	01 d7                	add    %edx,%edi
 804c8c4:	11 ce                	adc    %ecx,%esi
 804c8c6:	3d f0 07 00 00       	cmp    $0x7f0,%eax
 804c8cb:	b9 00 00 00 00       	mov    $0x0,%ecx
 804c8d0:	ba 71 da 39 db       	mov    $0xdb39da71,%edx
 804c8d5:	0f 44 ca             	cmove  %edx,%ecx
 804c8d8:	ba 00 00 00 00       	mov    $0x0,%edx
 804c8dd:	bb 38 92 e3 aa       	mov    $0xaae39238,%ebx
 804c8e2:	0f 44 d3             	cmove  %ebx,%edx
 804c8e5:	01 fa                	add    %edi,%edx
 804c8e7:	11 f1                	adc    %esi,%ecx
 804c8e9:	3d f8 07 00 00       	cmp    $0x7f8,%eax
 804c8ee:	be 00 00 00 00       	mov    $0x0,%esi
 804c8f3:	b8 d3 ec 2a 91       	mov    $0x912aecd3,%eax
 804c8f8:	0f 44 f0             	cmove  %eax,%esi
 804c8fb:	b8 57 15 c6 42       	mov    $0x42c61557,%eax
 804c900:	0f 44 e8             	cmove  %eax,%ebp
 804c903:	01 d5                	add    %edx,%ebp
 804c905:	89 6c 24 18          	mov    %ebp,0x18(%esp)
 804c909:	11 ce                	adc    %ecx,%esi
 804c90b:	89 b4 24 80 01 00 00 	mov    %esi,0x180(%esp)
 804c912:	8b 4c 24 20          	mov    0x20(%esp),%ecx
 804c916:	c1 e9 0d             	shr    $0xd,%ecx
 804c919:	81 e1 f8 07 00 00    	and    $0x7f8,%ecx
 804c91f:	62 f2 7d 08 7c c1    	vpbroadcastd %ecx,%xmm0
 804c925:	c5 e9 ef d2          	vpxor  %xmm2,%xmm2,%xmm2
 804c929:	b8 80 fc ff ff       	mov    $0xfffffc80,%eax
 804c92e:	c5 f1 ef c9          	vpxor  %xmm1,%xmm1,%xmm1
 804c932:	66 66 66 66 66 2e 0f 	data16 data16 data16 data16 nopw %cs:0x0(%eax,%eax,1)
 804c939:	1f 84 00 00 00 00 00 
 804c940:	c5 fa 6f 98 8c 33 06 	vmovdqu 0x806338c(%eax),%xmm3
 804c947:	08 
 804c948:	c5 fa 6f a0 9c 33 06 	vmovdqu 0x806339c(%eax),%xmm4
 804c94f:	08 
 804c950:	c5 fc 46 c8          	kxnorw %k0,%k0,%k1
 804c954:	62 f2 fd 29 90 2c 1d 	vpgatherdq 0x8061808(,%xmm3,1),%ymm5{%k1}
 804c95b:	08 18 06 08 
 804c95f:	c5 fc 46 c8          	kxnorw %k0,%k0,%k1
 804c963:	62 f2 fd 29 90 34 25 	vpgatherdq 0x8061808(,%xmm4,1),%ymm6{%k1}
 804c96a:	08 18 06 08 
 804c96e:	62 f1 7d 08 76 cb    	vpcmpeqd %xmm3,%xmm0,%k1
 804c974:	62 f1 7d 08 76 d4    	vpcmpeqd %xmm4,%xmm0,%k2
 804c97a:	62 f1 fd a9 6f dd    	vmovdqa64 %ymm5,%ymm3{%k1}{z}
 804c980:	c5 e5 d4 d2          	vpaddq %ymm2,%ymm3,%ymm2
 804c984:	62 f1 fd aa 6f de    	vmovdqa64 %ymm6,%ymm3{%k2}{z}
 804c98a:	c5 fa 6f a0 ac 33 06 	vmovdqu 0x80633ac(%eax),%xmm4
 804c991:	08 
 804c992:	c5 fa 6f a8 bc 33 06 	vmovdqu 0x80633bc(%eax),%xmm5
 804c999:	08 
 804c99a:	c5 fc 46 c8          	kxnorw %k0,%k0,%k1
 804c99e:	62 f2 fd 29 90 34 25 	vpgatherdq 0x8061808(,%xmm4,1),%ymm6{%k1}
 804c9a5:	08 18 06 08 
 804c9a9:	c5 fc 46 c8          	kxnorw %k0,%k0,%k1
 804c9ad:	62 f2 fd 29 90 3c 2d 	vpgatherdq 0x8061808(,%xmm5,1),%ymm7{%k1}
 804c9b4:	08 18 06 08 
 804c9b8:	c5 e5 d4 d9          	vpaddq %ymm1,%ymm3,%ymm3
 804c9bc:	62 f1 7d 08 76 cc    	vpcmpeqd %xmm4,%xmm0,%k1
 804c9c2:	62 f1 7d 08 76 d5    	vpcmpeqd %xmm5,%xmm0,%k2
 804c9c8:	c5 fa 6f 88 cc 33 06 	vmovdqu 0x80633cc(%eax),%xmm1
 804c9cf:	08 
 804c9d0:	c5 fc 46 d8          	kxnorw %k0,%k0,%k3
 804c9d4:	62 f1 7d 08 76 e1    	vpcmpeqd %xmm1,%xmm0,%k4
 804c9da:	62 f2 fd 2b 90 24 0d 	vpgatherdq 0x8061808(,%xmm1,1),%ymm4{%k3}
 804c9e1:	08 18 06 08 
 804c9e5:	62 f1 fd a9 6f ce    	vmovdqa64 %ymm6,%ymm1{%k1}{z}
 804c9eb:	62 f1 fd ac 6f e4    	vmovdqa64 %ymm4,%ymm4{%k4}{z}
 804c9f1:	c5 f5 d4 cc          	vpaddq %ymm4,%ymm1,%ymm1
 804c9f5:	c5 fa 6f a0 dc 33 06 	vmovdqu 0x80633dc(%eax),%xmm4
 804c9fc:	08 
 804c9fd:	c5 fc 46 c8          	kxnorw %k0,%k0,%k1
 804ca01:	62 f1 7d 08 76 dc    	vpcmpeqd %xmm4,%xmm0,%k3
 804ca07:	62 f2 fd 29 90 2c 25 	vpgatherdq 0x8061808(,%xmm4,1),%ymm5{%k1}
 804ca0e:	08 18 06 08 
 804ca12:	c5 ed d4 c9          	vpaddq %ymm1,%ymm2,%ymm1
 804ca16:	62 f1 fd aa 6f d7    	vmovdqa64 %ymm7,%ymm2{%k2}{z}
 804ca1c:	62 f1 fd ab 6f e5    	vmovdqa64 %ymm5,%ymm4{%k3}{z}
 804ca22:	c5 ed d4 d4          	vpaddq %ymm4,%ymm2,%ymm2
 804ca26:	c5 e5 d4 da          	vpaddq %ymm2,%ymm3,%ymm3
 804ca2a:	85 c0                	test   %eax,%eax
 804ca2c:	74 56                	je     804ca84 <main+0x3864>
 804ca2e:	c5 fa 6f 90 ec 33 06 	vmovdqu 0x80633ec(%eax),%xmm2
 804ca35:	08 
 804ca36:	c5 fa 6f a0 fc 33 06 	vmovdqu 0x80633fc(%eax),%xmm4
 804ca3d:	08 
 804ca3e:	c5 fc 46 c8          	kxnorw %k0,%k0,%k1
 804ca42:	62 f2 fd 29 90 2c 15 	vpgatherdq 0x8061808(,%xmm2,1),%ymm5{%k1}
 804ca49:	08 18 06 08 
 804ca4d:	c5 fc 46 c8          	kxnorw %k0,%k0,%k1
 804ca51:	62 f2 fd 29 90 34 25 	vpgatherdq 0x8061808(,%xmm4,1),%ymm6{%k1}
 804ca58:	08 18 06 08 
 804ca5c:	62 f1 7d 08 76 ca    	vpcmpeqd %xmm2,%xmm0,%k1
 804ca62:	62 f1 7d 08 76 d4    	vpcmpeqd %xmm4,%xmm0,%k2
 804ca68:	62 f1 fd a9 6f d5    	vmovdqa64 %ymm5,%ymm2{%k1}{z}
 804ca6e:	62 f1 fd aa 6f e6    	vmovdqa64 %ymm6,%ymm4{%k2}{z}
 804ca74:	c5 ed d4 d1          	vpaddq %ymm1,%ymm2,%ymm2
 804ca78:	c5 dd d4 cb          	vpaddq %ymm3,%ymm4,%ymm1
 804ca7c:	83 e8 80             	sub    $0xffffff80,%eax
 804ca7f:	e9 bc fe ff ff       	jmp    804c940 <main+0x3720>
 804ca84:	c5 e5 d4 c1          	vpaddq %ymm1,%ymm3,%ymm0
 804ca88:	c4 e3 7d 39 c1 01    	vextracti128 $0x1,%ymm0,%xmm1
 804ca8e:	c5 f9 d4 c1          	vpaddq %xmm1,%xmm0,%xmm0
 804ca92:	c5 f9 70 c8 ee       	vpshufd $0xee,%xmm0,%xmm1
 804ca97:	c5 f9 d4 c1          	vpaddq %xmm1,%xmm0,%xmm0
 804ca9b:	c4 e3 79 16 c2 01    	vpextrd $0x1,%xmm0,%edx
 804caa1:	c5 f9 7e c6          	vmovd  %xmm0,%esi
 804caa5:	31 db                	xor    %ebx,%ebx
 804caa7:	81 f9 c8 07 00 00    	cmp    $0x7c8,%ecx
 804caad:	bf 00 00 00 00       	mov    $0x0,%edi
 804cab2:	b8 82 49 eb 79       	mov    $0x79eb4982,%eax
 804cab7:	0f 44 f8             	cmove  %eax,%edi
 804caba:	bd 00 00 00 00       	mov    $0x0,%ebp
 804cabf:	b8 b2 10 a2 fb       	mov    $0xfba210b2,%eax
 804cac4:	0f 44 e8             	cmove  %eax,%ebp
 804cac7:	01 f5                	add    %esi,%ebp
 804cac9:	11 d7                	adc    %edx,%edi
 804cacb:	81 f9 d0 07 00 00    	cmp    $0x7d0,%ecx
 804cad1:	ba 00 00 00 00       	mov    $0x0,%edx
 804cad6:	b8 e9 a7 27 74       	mov    $0x7427a7e9,%eax
 804cadb:	0f 44 d0             	cmove  %eax,%edx
 804cade:	be 00 00 00 00       	mov    $0x0,%esi
 804cae3:	b8 3a ba 80 9d       	mov    $0x9d80ba3a,%eax
 804cae8:	0f 44 f0             	cmove  %eax,%esi
 804caeb:	01 ee                	add    %ebp,%esi
 804caed:	11 fa                	adc    %edi,%edx
 804caef:	81 f9 d8 07 00 00    	cmp    $0x7d8,%ecx
 804caf5:	bf 00 00 00 00       	mov    $0x0,%edi
 804cafa:	b8 93 f0 bf 42       	mov    $0x42bff093,%eax
 804caff:	0f 44 f8             	cmove  %eax,%edi
 804cb02:	bd 00 00 00 00       	mov    $0x0,%ebp
 804cb07:	b8 21 6e 4f d1       	mov    $0xd14f6e21,%eax
 804cb0c:	0f 44 e8             	cmove  %eax,%ebp
 804cb0f:	01 f5                	add    %esi,%ebp
 804cb11:	11 d7                	adc    %edx,%edi
 804cb13:	81 f9 e0 07 00 00    	cmp    $0x7e0,%ecx
 804cb19:	ba 00 00 00 00       	mov    $0x0,%edx
 804cb1e:	b8 d9 5d 42 f8       	mov    $0xf8425dd9,%eax
 804cb23:	0f 44 d0             	cmove  %eax,%edx
 804cb26:	be 00 00 00 00       	mov    $0x0,%esi
 804cb2b:	b8 7c 63 1f 21       	mov    $0x211f637c,%eax
 804cb30:	0f 44 f0             	cmove  %eax,%esi
 804cb33:	01 ee                	add    %ebp,%esi
 804cb35:	11 fa                	adc    %edi,%edx
 804cb37:	81 f9 e8 07 00 00    	cmp    $0x7e8,%ecx
 804cb3d:	bf 00 00 00 00       	mov    $0x0,%edi
 804cb42:	b8 5d 4c 86 1e       	mov    $0x1e864c5d,%eax
 804cb47:	0f 44 f8             	cmove  %eax,%edi
 804cb4a:	bd 00 00 00 00       	mov    $0x0,%ebp
 804cb4f:	b8 0f c5 ca 43       	mov    $0x43cac50f,%eax
 804cb54:	0f 44 e8             	cmove  %eax,%ebp
 804cb57:	01 f5                	add    %esi,%ebp
 804cb59:	11 d7                	adc    %edx,%edi
 804cb5b:	81 f9 f0 07 00 00    	cmp    $0x7f0,%ecx
 804cb61:	ba 00 00 00 00       	mov    $0x0,%edx
 804cb66:	b8 da 71 db 39       	mov    $0x39db71da,%eax
 804cb6b:	0f 44 d0             	cmove  %eax,%edx
 804cb6e:	be 00 00 00 00       	mov    $0x0,%esi
 804cb73:	b8 92 38 aa e3       	mov    $0xe3aa3892,%eax
 804cb78:	0f 44 f0             	cmove  %eax,%esi
 804cb7b:	01 ee                	add    %ebp,%esi
 804cb7d:	11 fa                	adc    %edi,%edx
 804cb7f:	81 f9 f8 07 00 00    	cmp    $0x7f8,%ecx
 804cb85:	b9 00 00 00 00       	mov    $0x0,%ecx
 804cb8a:	b8 ec d3 91 2a       	mov    $0x2a91d3ec,%eax
 804cb8f:	0f 44 c8             	cmove  %eax,%ecx
 804cb92:	b8 15 57 42 c6       	mov    $0xc6425715,%eax
 804cb97:	0f 44 d8             	cmove  %eax,%ebx
 804cb9a:	01 f3                	add    %esi,%ebx
 804cb9c:	89 9c 24 c0 01 00 00 	mov    %ebx,0x1c0(%esp)
 804cba3:	11 d1                	adc    %edx,%ecx
 804cba5:	89 4c 24 1c          	mov    %ecx,0x1c(%esp)
 804cba9:	8b 74 24 20          	mov    0x20(%esp),%esi
 804cbad:	c1 ee 05             	shr    $0x5,%esi
 804cbb0:	81 e6 f8 07 00 00    	and    $0x7f8,%esi
 804cbb6:	62 f2 7d 08 7c c6    	vpbroadcastd %esi,%xmm0
 804cbbc:	c5 e9 ef d2          	vpxor  %xmm2,%xmm2,%xmm2
 804cbc0:	ba 80 fc ff ff       	mov    $0xfffffc80,%edx
 804cbc5:	c5 f1 ef c9          	vpxor  %xmm1,%xmm1,%xmm1
 804cbc9:	0f 1f 80 00 00 00 00 	nopl   0x0(%eax)
 804cbd0:	c5 fa 6f 9a 8c 33 06 	vmovdqu 0x806338c(%edx),%xmm3
 804cbd7:	08 
 804cbd8:	c5 fa 6f a2 9c 33 06 	vmovdqu 0x806339c(%edx),%xmm4
 804cbdf:	08 
 804cbe0:	c5 fc 46 c8          	kxnorw %k0,%k0,%k1
 804cbe4:	62 f2 fd 29 90 2c 1d 	vpgatherdq 0x8062008(,%xmm3,1),%ymm5{%k1}
 804cbeb:	08 20 06 08 
 804cbef:	c5 fc 46 c8          	kxnorw %k0,%k0,%k1
 804cbf3:	62 f2 fd 29 90 34 25 	vpgatherdq 0x8062008(,%xmm4,1),%ymm6{%k1}
 804cbfa:	08 20 06 08 
 804cbfe:	62 f1 7d 08 76 cb    	vpcmpeqd %xmm3,%xmm0,%k1
 804cc04:	62 f1 7d 08 76 d4    	vpcmpeqd %xmm4,%xmm0,%k2
 804cc0a:	62 f1 fd a9 6f dd    	vmovdqa64 %ymm5,%ymm3{%k1}{z}
 804cc10:	c5 e5 d4 d2          	vpaddq %ymm2,%ymm3,%ymm2
 804cc14:	62 f1 fd aa 6f de    	vmovdqa64 %ymm6,%ymm3{%k2}{z}
 804cc1a:	c5 fa 6f a2 ac 33 06 	vmovdqu 0x80633ac(%edx),%xmm4
 804cc21:	08 
 804cc22:	c5 fa 6f aa bc 33 06 	vmovdqu 0x80633bc(%edx),%xmm5
 804cc29:	08 
 804cc2a:	c5 fc 46 c8          	kxnorw %k0,%k0,%k1
 804cc2e:	62 f2 fd 29 90 34 25 	vpgatherdq 0x8062008(,%xmm4,1),%ymm6{%k1}
 804cc35:	08 20 06 08 
 804cc39:	c5 fc 46 c8          	kxnorw %k0,%k0,%k1
 804cc3d:	62 f2 fd 29 90 3c 2d 	vpgatherdq 0x8062008(,%xmm5,1),%ymm7{%k1}
 804cc44:	08 20 06 08 
 804cc48:	c5 e5 d4 d9          	vpaddq %ymm1,%ymm3,%ymm3
 804cc4c:	62 f1 7d 08 76 cc    	vpcmpeqd %xmm4,%xmm0,%k1
 804cc52:	62 f1 7d 08 76 d5    	vpcmpeqd %xmm5,%xmm0,%k2
 804cc58:	c5 fa 6f 8a cc 33 06 	vmovdqu 0x80633cc(%edx),%xmm1
 804cc5f:	08 
 804cc60:	c5 fc 46 d8          	kxnorw %k0,%k0,%k3
 804cc64:	62 f1 7d 08 76 e1    	vpcmpeqd %xmm1,%xmm0,%k4
 804cc6a:	62 f2 fd 2b 90 24 0d 	vpgatherdq 0x8062008(,%xmm1,1),%ymm4{%k3}
 804cc71:	08 20 06 08 
 804cc75:	62 f1 fd a9 6f ce    	vmovdqa64 %ymm6,%ymm1{%k1}{z}
 804cc7b:	62 f1 fd ac 6f e4    	vmovdqa64 %ymm4,%ymm4{%k4}{z}
 804cc81:	c5 f5 d4 cc          	vpaddq %ymm4,%ymm1,%ymm1
 804cc85:	c5 fa 6f a2 dc 33 06 	vmovdqu 0x80633dc(%edx),%xmm4
 804cc8c:	08 
 804cc8d:	c5 fc 46 c8          	kxnorw %k0,%k0,%k1
 804cc91:	62 f1 7d 08 76 dc    	vpcmpeqd %xmm4,%xmm0,%k3
 804cc97:	62 f2 fd 29 90 2c 25 	vpgatherdq 0x8062008(,%xmm4,1),%ymm5{%k1}
 804cc9e:	08 20 06 08 
 804cca2:	c5 ed d4 c9          	vpaddq %ymm1,%ymm2,%ymm1
 804cca6:	62 f1 fd aa 6f d7    	vmovdqa64 %ymm7,%ymm2{%k2}{z}
 804ccac:	62 f1 fd ab 6f e5    	vmovdqa64 %ymm5,%ymm4{%k3}{z}
 804ccb2:	c5 ed d4 d4          	vpaddq %ymm4,%ymm2,%ymm2
 804ccb6:	c5 e5 d4 da          	vpaddq %ymm2,%ymm3,%ymm3
 804ccba:	85 d2                	test   %edx,%edx
 804ccbc:	74 56                	je     804cd14 <main+0x3af4>
 804ccbe:	c5 fa 6f 92 ec 33 06 	vmovdqu 0x80633ec(%edx),%xmm2
 804ccc5:	08 
 804ccc6:	c5 fa 6f a2 fc 33 06 	vmovdqu 0x80633fc(%edx),%xmm4
 804cccd:	08 
 804ccce:	c5 fc 46 c8          	kxnorw %k0,%k0,%k1
 804ccd2:	62 f2 fd 29 90 2c 15 	vpgatherdq 0x8062008(,%xmm2,1),%ymm5{%k1}
 804ccd9:	08 20 06 08 
 804ccdd:	c5 fc 46 c8          	kxnorw %k0,%k0,%k1
 804cce1:	62 f2 fd 29 90 34 25 	vpgatherdq 0x8062008(,%xmm4,1),%ymm6{%k1}
 804cce8:	08 20 06 08 
 804ccec:	62 f1 7d 08 76 ca    	vpcmpeqd %xmm2,%xmm0,%k1
 804ccf2:	62 f1 7d 08 76 d4    	vpcmpeqd %xmm4,%xmm0,%k2
 804ccf8:	62 f1 fd a9 6f d5    	vmovdqa64 %ymm5,%ymm2{%k1}{z}
 804ccfe:	62 f1 fd aa 6f e6    	vmovdqa64 %ymm6,%ymm4{%k2}{z}
 804cd04:	c5 ed d4 d1          	vpaddq %ymm1,%ymm2,%ymm2
 804cd08:	c5 dd d4 cb          	vpaddq %ymm3,%ymm4,%ymm1
 804cd0c:	83 ea 80             	sub    $0xffffff80,%edx
 804cd0f:	e9 bc fe ff ff       	jmp    804cbd0 <main+0x39b0>
 804cd14:	c5 e5 d4 c1          	vpaddq %ymm1,%ymm3,%ymm0
 804cd18:	c4 e3 7d 39 c1 01    	vextracti128 $0x1,%ymm0,%xmm1
 804cd1e:	c5 f9 d4 c1          	vpaddq %xmm1,%xmm0,%xmm0
 804cd22:	c5 f9 70 c8 ee       	vpshufd $0xee,%xmm0,%xmm1
 804cd27:	c5 f9 d4 c1          	vpaddq %xmm1,%xmm0,%xmm0
 804cd2b:	c4 e3 79 16 c7 01    	vpextrd $0x1,%xmm0,%edi
 804cd31:	c5 f9 7e c5          	vmovd  %xmm0,%ebp
 804cd35:	81 fe c8 07 00 00    	cmp    $0x7c8,%esi
 804cd3b:	bb 00 00 00 00       	mov    $0x0,%ebx
 804cd40:	b8 79 eb 49 82       	mov    $0x8249eb79,%eax
 804cd45:	0f 44 d8             	cmove  %eax,%ebx
 804cd48:	b8 00 00 00 00       	mov    $0x0,%eax
 804cd4d:	b9 fb a2 10 b2       	mov    $0xb210a2fb,%ecx
 804cd52:	0f 44 c1             	cmove  %ecx,%eax
 804cd55:	01 e8                	add    %ebp,%eax
 804cd57:	11 fb                	adc    %edi,%ebx
 804cd59:	81 fe d0 07 00 00    	cmp    $0x7d0,%esi
 804cd5f:	bf 00 00 00 00       	mov    $0x0,%edi
 804cd64:	b9 74 27 a7 e9       	mov    $0xe9a72774,%ecx
 804cd69:	0f 44 f9             	cmove  %ecx,%edi
 804cd6c:	bd 00 00 00 00       	mov    $0x0,%ebp
 804cd71:	b9 9d 80 ba 3a       	mov    $0x3aba809d,%ecx
 804cd76:	0f 44 e9             	cmove  %ecx,%ebp
 804cd79:	01 c5                	add    %eax,%ebp
 804cd7b:	11 df                	adc    %ebx,%edi
 804cd7d:	81 fe d8 07 00 00    	cmp    $0x7d8,%esi
 804cd83:	b8 00 00 00 00       	mov    $0x0,%eax
 804cd88:	b9 42 bf f0 93       	mov    $0x93f0bf42,%ecx
 804cd8d:	0f 44 c1             	cmove  %ecx,%eax
 804cd90:	bb 00 00 00 00       	mov    $0x0,%ebx
 804cd95:	b9 d1 4f 6e 21       	mov    $0x216e4fd1,%ecx
 804cd9a:	0f 44 d9             	cmove  %ecx,%ebx
 804cd9d:	01 eb                	add    %ebp,%ebx
 804cd9f:	11 f8                	adc    %edi,%eax
 804cda1:	81 fe e0 07 00 00    	cmp    $0x7e0,%esi
 804cda7:	bf 00 00 00 00       	mov    $0x0,%edi
 804cdac:	b9 f8 42 5d d9       	mov    $0xd95d42f8,%ecx
 804cdb1:	0f 44 f9             	cmove  %ecx,%edi
 804cdb4:	bd 00 00 00 00       	mov    $0x0,%ebp
 804cdb9:	b9 21 1f 63 7c       	mov    $0x7c631f21,%ecx
 804cdbe:	0f 44 e9             	cmove  %ecx,%ebp
 804cdc1:	01 dd                	add    %ebx,%ebp
 804cdc3:	11 c7                	adc    %eax,%edi
 804cdc5:	81 fe e8 07 00 00    	cmp    $0x7e8,%esi
 804cdcb:	b8 00 00 00 00       	mov    $0x0,%eax
 804cdd0:	b9 1e 86 4c 5d       	mov    $0x5d4c861e,%ecx
 804cdd5:	0f 44 c1             	cmove  %ecx,%eax
 804cdd8:	bb 00 00 00 00       	mov    $0x0,%ebx
 804cddd:	b9 43 ca c5 0f       	mov    $0xfc5ca43,%ecx
 804cde2:	0f 44 d9             	cmove  %ecx,%ebx
 804cde5:	01 eb                	add    %ebp,%ebx
 804cde7:	11 f8                	adc    %edi,%eax
 804cde9:	81 fe f0 07 00 00    	cmp    $0x7f0,%esi
 804cdef:	bd 00 00 00 00       	mov    $0x0,%ebp
 804cdf4:	b9 39 db 71 da       	mov    $0xda71db39,%ecx
 804cdf9:	0f 44 e9             	cmove  %ecx,%ebp
 804cdfc:	b9 00 00 00 00       	mov    $0x0,%ecx
 804ce01:	ba e3 aa 38 92       	mov    $0x9238aae3,%edx
 804ce06:	0f 44 ca             	cmove  %edx,%ecx
 804ce09:	01 d9                	add    %ebx,%ecx
 804ce0b:	11 c5                	adc    %eax,%ebp
 804ce0d:	81 fe f8 07 00 00    	cmp    $0x7f8,%esi
 804ce13:	ba 00 00 00 00       	mov    $0x0,%edx
 804ce18:	b8 2a 91 d3 ec       	mov    $0xecd3912a,%eax
 804ce1d:	0f 44 d0             	cmove  %eax,%edx
 804ce20:	b8 c6 42 57 15       	mov    $0x155742c6,%eax
 804ce25:	be 00 00 00 00       	mov    $0x0,%esi
 804ce2a:	0f 44 f0             	cmove  %eax,%esi
 804ce2d:	01 ce                	add    %ecx,%esi
 804ce2f:	89 b4 24 a0 01 00 00 	mov    %esi,0x1a0(%esp)
 804ce36:	11 ea                	adc    %ebp,%edx
 804ce38:	89 94 24 e0 01 00 00 	mov    %edx,0x1e0(%esp)
 804ce3f:	0f b6 74 24 20       	movzbl 0x20(%esp),%esi
 804ce44:	c1 e6 03             	shl    $0x3,%esi
 804ce47:	62 f2 7d 08 7c c6    	vpbroadcastd %esi,%xmm0
 804ce4d:	c5 e9 ef d2          	vpxor  %xmm2,%xmm2,%xmm2
 804ce51:	bd 80 fc ff ff       	mov    $0xfffffc80,%ebp
 804ce56:	c5 f1 ef c9          	vpxor  %xmm1,%xmm1,%xmm1
 804ce5a:	66 0f 1f 44 00 00    	nopw   0x0(%eax,%eax,1)
 804ce60:	c5 fa 6f 9d 8c 33 06 	vmovdqu 0x806338c(%ebp),%xmm3
 804ce67:	08 
 804ce68:	c5 fa 6f a5 9c 33 06 	vmovdqu 0x806339c(%ebp),%xmm4
 804ce6f:	08 
 804ce70:	c5 fc 46 c8          	kxnorw %k0,%k0,%k1
 804ce74:	62 f2 fd 29 90 2c 1d 	vpgatherdq 0x8062808(,%xmm3,1),%ymm5{%k1}
 804ce7b:	08 28 06 08 
 804ce7f:	c5 fc 46 c8          	kxnorw %k0,%k0,%k1
 804ce83:	62 f2 fd 29 90 34 25 	vpgatherdq 0x8062808(,%xmm4,1),%ymm6{%k1}
 804ce8a:	08 28 06 08 
 804ce8e:	62 f1 7d 08 76 cb    	vpcmpeqd %xmm3,%xmm0,%k1
 804ce94:	62 f1 7d 08 76 d4    	vpcmpeqd %xmm4,%xmm0,%k2
 804ce9a:	62 f1 fd a9 6f dd    	vmovdqa64 %ymm5,%ymm3{%k1}{z}
 804cea0:	c5 e5 d4 d2          	vpaddq %ymm2,%ymm3,%ymm2
 804cea4:	62 f1 fd aa 6f de    	vmovdqa64 %ymm6,%ymm3{%k2}{z}
 804ceaa:	c5 fa 6f a5 ac 33 06 	vmovdqu 0x80633ac(%ebp),%xmm4
 804ceb1:	08 
 804ceb2:	c5 fa 6f ad bc 33 06 	vmovdqu 0x80633bc(%ebp),%xmm5
 804ceb9:	08 
 804ceba:	c5 fc 46 c8          	kxnorw %k0,%k0,%k1
 804cebe:	62 f2 fd 29 90 34 25 	vpgatherdq 0x8062808(,%xmm4,1),%ymm6{%k1}
 804cec5:	08 28 06 08 
 804cec9:	c5 fc 46 c8          	kxnorw %k0,%k0,%k1
 804cecd:	62 f2 fd 29 90 3c 2d 	vpgatherdq 0x8062808(,%xmm5,1),%ymm7{%k1}
 804ced4:	08 28 06 08 
 804ced8:	c5 e5 d4 d9          	vpaddq %ymm1,%ymm3,%ymm3
 804cedc:	62 f1 7d 08 76 cc    	vpcmpeqd %xmm4,%xmm0,%k1
 804cee2:	62 f1 7d 08 76 d5    	vpcmpeqd %xmm5,%xmm0,%k2
 804cee8:	c5 fa 6f 8d cc 33 06 	vmovdqu 0x80633cc(%ebp),%xmm1
 804ceef:	08 
 804cef0:	c5 fc 46 d8          	kxnorw %k0,%k0,%k3
 804cef4:	62 f1 7d 08 76 e1    	vpcmpeqd %xmm1,%xmm0,%k4
 804cefa:	62 f2 fd 2b 90 24 0d 	vpgatherdq 0x8062808(,%xmm1,1),%ymm4{%k3}
 804cf01:	08 28 06 08 
 804cf05:	62 f1 fd a9 6f ce    	vmovdqa64 %ymm6,%ymm1{%k1}{z}
 804cf0b:	62 f1 fd ac 6f e4    	vmovdqa64 %ymm4,%ymm4{%k4}{z}
 804cf11:	c5 f5 d4 cc          	vpaddq %ymm4,%ymm1,%ymm1
 804cf15:	c5 fa 6f a5 dc 33 06 	vmovdqu 0x80633dc(%ebp),%xmm4
 804cf1c:	08 
 804cf1d:	c5 fc 46 c8          	kxnorw %k0,%k0,%k1
 804cf21:	62 f1 7d 08 76 dc    	vpcmpeqd %xmm4,%xmm0,%k3
 804cf27:	62 f2 fd 29 90 2c 25 	vpgatherdq 0x8062808(,%xmm4,1),%ymm5{%k1}
 804cf2e:	08 28 06 08 
 804cf32:	c5 ed d4 c9          	vpaddq %ymm1,%ymm2,%ymm1
 804cf36:	62 f1 fd aa 6f d7    	vmovdqa64 %ymm7,%ymm2{%k2}{z}
 804cf3c:	62 f1 fd ab 6f e5    	vmovdqa64 %ymm5,%ymm4{%k3}{z}
 804cf42:	c5 ed d4 d4          	vpaddq %ymm4,%ymm2,%ymm2
 804cf46:	c5 e5 d4 da          	vpaddq %ymm2,%ymm3,%ymm3
 804cf4a:	85 ed                	test   %ebp,%ebp
 804cf4c:	74 56                	je     804cfa4 <main+0x3d84>
 804cf4e:	c5 fa 6f 95 ec 33 06 	vmovdqu 0x80633ec(%ebp),%xmm2
 804cf55:	08 
 804cf56:	c5 fa 6f a5 fc 33 06 	vmovdqu 0x80633fc(%ebp),%xmm4
 804cf5d:	08 
 804cf5e:	c5 fc 46 c8          	kxnorw %k0,%k0,%k1
 804cf62:	62 f2 fd 29 90 2c 15 	vpgatherdq 0x8062808(,%xmm2,1),%ymm5{%k1}
 804cf69:	08 28 06 08 
 804cf6d:	c5 fc 46 c8          	kxnorw %k0,%k0,%k1
 804cf71:	62 f2 fd 29 90 34 25 	vpgatherdq 0x8062808(,%xmm4,1),%ymm6{%k1}
 804cf78:	08 28 06 08 
 804cf7c:	62 f1 7d 08 76 ca    	vpcmpeqd %xmm2,%xmm0,%k1
 804cf82:	62 f1 7d 08 76 d4    	vpcmpeqd %xmm4,%xmm0,%k2
 804cf88:	62 f1 fd a9 6f d5    	vmovdqa64 %ymm5,%ymm2{%k1}{z}
 804cf8e:	62 f1 fd aa 6f e6    	vmovdqa64 %ymm6,%ymm4{%k2}{z}
 804cf94:	c5 ed d4 d1          	vpaddq %ymm1,%ymm2,%ymm2
 804cf98:	c5 dd d4 cb          	vpaddq %ymm3,%ymm4,%ymm1
 804cf9c:	83 ed 80             	sub    $0xffffff80,%ebp
 804cf9f:	e9 bc fe ff ff       	jmp    804ce60 <main+0x3c40>
 804cfa4:	c5 e5 d4 c1          	vpaddq %ymm1,%ymm3,%ymm0
 804cfa8:	c4 e3 7d 39 c1 01    	vextracti128 $0x1,%ymm0,%xmm1
 804cfae:	c5 f9 d4 c1          	vpaddq %xmm1,%xmm0,%xmm0
 804cfb2:	c5 f9 70 c8 ee       	vpshufd $0xee,%xmm0,%xmm1
 804cfb7:	c5 f9 d4 c1          	vpaddq %xmm1,%xmm0,%xmm0
 804cfbb:	31 ed                	xor    %ebp,%ebp
 804cfbd:	81 fe c8 07 00 00    	cmp    $0x7c8,%esi
 804cfc3:	b8 00 00 00 00       	mov    $0x0,%eax
 804cfc8:	b9 eb 79 82 49       	mov    $0x498279eb,%ecx
 804cfcd:	0f 44 c1             	cmove  %ecx,%eax
 804cfd0:	b9 00 00 00 00       	mov    $0x0,%ecx
 804cfd5:	ba a2 fb b2 10       	mov    $0x10b2fba2,%edx
 804cfda:	0f 44 ca             	cmove  %edx,%ecx
 804cfdd:	c5 f9 7e c3          	vmovd  %xmm0,%ebx
 804cfe1:	01 d9                	add    %ebx,%ecx
 804cfe3:	c4 e3 79 16 c3 01    	vpextrd $0x1,%xmm0,%ebx
 804cfe9:	11 d8                	adc    %ebx,%eax
 804cfeb:	81 fe d0 07 00 00    	cmp    $0x7d0,%esi
 804cff1:	bb 00 00 00 00       	mov    $0x0,%ebx
 804cff6:	ba 27 74 e9 a7       	mov    $0xa7e97427,%edx
 804cffb:	0f 44 da             	cmove  %edx,%ebx
 804cffe:	ba 00 00 00 00       	mov    $0x0,%edx
 804d003:	bf 80 9d 3a ba       	mov    $0xba3a9d80,%edi
 804d008:	0f 44 d7             	cmove  %edi,%edx
 804d00b:	01 ca                	add    %ecx,%edx
 804d00d:	11 c3                	adc    %eax,%ebx
 804d00f:	81 fe d8 07 00 00    	cmp    $0x7d8,%esi
 804d015:	b8 00 00 00 00       	mov    $0x0,%eax
 804d01a:	b9 bf 42 93 f0       	mov    $0xf09342bf,%ecx
 804d01f:	0f 44 c1             	cmove  %ecx,%eax
 804d022:	b9 00 00 00 00       	mov    $0x0,%ecx
 804d027:	bf 4f d1 21 6e       	mov    $0x6e21d14f,%edi
 804d02c:	0f 44 cf             	cmove  %edi,%ecx
 804d02f:	01 d1                	add    %edx,%ecx
 804d031:	11 d8                	adc    %ebx,%eax
 804d033:	81 fe e0 07 00 00    	cmp    $0x7e0,%esi
 804d039:	ba 00 00 00 00       	mov    $0x0,%edx
 804d03e:	bf 42 f8 d9 5d       	mov    $0x5dd9f842,%edi
 804d043:	0f 44 d7             	cmove  %edi,%edx
 804d046:	bb 00 00 00 00       	mov    $0x0,%ebx
 804d04b:	bf 1f 21 7c 63       	mov    $0x637c211f,%edi
 804d050:	0f 44 df             	cmove  %edi,%ebx
 804d053:	01 cb                	add    %ecx,%ebx
 804d055:	11 c2                	adc    %eax,%edx
 804d057:	81 fe e8 07 00 00    	cmp    $0x7e8,%esi
 804d05d:	b8 00 00 00 00       	mov    $0x0,%eax
 804d062:	b9 86 1e 5d 4c       	mov    $0x4c5d1e86,%ecx
 804d067:	0f 44 c1             	cmove  %ecx,%eax
 804d06a:	b9 00 00 00 00       	mov    $0x0,%ecx
 804d06f:	bf ca 43 0f c5       	mov    $0xc50f43ca,%edi
 804d074:	0f 44 cf             	cmove  %edi,%ecx
 804d077:	01 d9                	add    %ebx,%ecx
 804d079:	11 d0                	adc    %edx,%eax
 804d07b:	81 fe f0 07 00 00    	cmp    $0x7f0,%esi
 804d081:	ba 00 00 00 00       	mov    $0x0,%edx
 804d086:	bf db 39 da 71       	mov    $0x71da39db,%edi
 804d08b:	0f 44 d7             	cmove  %edi,%edx
 804d08e:	bb 00 00 00 00       	mov    $0x0,%ebx
 804d093:	bf aa e3 92 38       	mov    $0x3892e3aa,%edi
 804d098:	0f 44 df             	cmove  %edi,%ebx
 804d09b:	01 cb                	add    %ecx,%ebx
 804d09d:	11 c2                	adc    %eax,%edx
 804d09f:	81 fe f8 07 00 00    	cmp    $0x7f8,%esi
 804d0a5:	be 00 00 00 00       	mov    $0x0,%esi
 804d0aa:	b8 91 2a ec d3       	mov    $0xd3ec2a91,%eax
 804d0af:	0f 44 f0             	cmove  %eax,%esi
 804d0b2:	b8 42 c6 15 57       	mov    $0x5715c642,%eax
 804d0b7:	0f 44 e8             	cmove  %eax,%ebp
 804d0ba:	01 dd                	add    %ebx,%ebp
 804d0bc:	11 d6                	adc    %edx,%esi
 804d0be:	8b 44 24 04          	mov    0x4(%esp),%eax
 804d0c2:	33 84 24 e0 00 00 00 	xor    0xe0(%esp),%eax
 804d0c9:	33 84 24 00 01 00 00 	xor    0x100(%esp),%eax
 804d0d0:	33 44 24 10          	xor    0x10(%esp),%eax
 804d0d4:	33 44 24 60          	xor    0x60(%esp),%eax
 804d0d8:	33 44 24 18          	xor    0x18(%esp),%eax
 804d0dc:	33 84 24 c0 01 00 00 	xor    0x1c0(%esp),%eax
 804d0e3:	33 84 24 a0 01 00 00 	xor    0x1a0(%esp),%eax
 804d0ea:	31 e8                	xor    %ebp,%eax
 804d0ec:	8b 94 24 60 01 00 00 	mov    0x160(%esp),%edx
 804d0f3:	33 94 24 20 01 00 00 	xor    0x120(%esp),%edx
 804d0fa:	33 54 24 14          	xor    0x14(%esp),%edx
 804d0fe:	33 54 24 0c          	xor    0xc(%esp),%edx
 804d102:	33 54 24 08          	xor    0x8(%esp),%edx
 804d106:	33 94 24 80 01 00 00 	xor    0x180(%esp),%edx
 804d10d:	33 54 24 1c          	xor    0x1c(%esp),%edx
 804d111:	33 94 24 e0 01 00 00 	xor    0x1e0(%esp),%edx
 804d118:	31 f2                	xor    %esi,%edx
 804d11a:	89 d1                	mov    %edx,%ecx
 804d11c:	81 f1 a5 b8 81 50    	xor    $0x5081b8a5,%ecx
 804d122:	89 44 24 04          	mov    %eax,0x4(%esp)
 804d126:	35 eb 89 82 60       	xor    $0x608289eb,%eax
 804d12b:	89 44 24 20          	mov    %eax,0x20(%esp)
 804d12f:	a3 d8 50 06 08       	mov    %eax,0x80650d8
 804d134:	89 0d dc 50 06 08    	mov    %ecx,0x80650dc
 804d13a:	89 4c 24 60          	mov    %ecx,0x60(%esp)
 804d13e:	89 c8                	mov    %ecx,%eax
 804d140:	c1 e8 15             	shr    $0x15,%eax
 804d143:	83 e0 f8             	and    $0xfffffff8,%eax
 804d146:	62 f2 7d 08 7c c0    	vpbroadcastd %eax,%xmm0
 804d14c:	c5 e9 ef d2          	vpxor  %xmm2,%xmm2,%xmm2
 804d150:	b9 80 fc ff ff       	mov    $0xfffffc80,%ecx
 804d155:	c5 f1 ef c9          	vpxor  %xmm1,%xmm1,%xmm1
 804d159:	0f 1f 80 00 00 00 00 	nopl   0x0(%eax)
 804d160:	c5 fa 6f 99 8c 33 06 	vmovdqu 0x806338c(%ecx),%xmm3
 804d167:	08 
 804d168:	c5 fa 6f a1 9c 33 06 	vmovdqu 0x806339c(%ecx),%xmm4
 804d16f:	08 
 804d170:	c5 fc 46 c8          	kxnorw %k0,%k0,%k1
 804d174:	62 f2 fd 29 90 2c 1d 	vpgatherdq 0x805f008(,%xmm3,1),%ymm5{%k1}
 804d17b:	08 f0 05 08 
 804d17f:	c5 fc 46 c8          	kxnorw %k0,%k0,%k1
 804d183:	62 f2 fd 29 90 34 25 	vpgatherdq 0x805f008(,%xmm4,1),%ymm6{%k1}
 804d18a:	08 f0 05 08 
 804d18e:	62 f1 65 08 76 c8    	vpcmpeqd %xmm0,%xmm3,%k1
 804d194:	62 f1 5d 08 76 d0    	vpcmpeqd %xmm0,%xmm4,%k2
 804d19a:	62 f1 fd a9 6f dd    	vmovdqa64 %ymm5,%ymm3{%k1}{z}
 804d1a0:	c5 e5 d4 d2          	vpaddq %ymm2,%ymm3,%ymm2
 804d1a4:	62 f1 fd aa 6f de    	vmovdqa64 %ymm6,%ymm3{%k2}{z}
 804d1aa:	c5 fa 6f a1 ac 33 06 	vmovdqu 0x80633ac(%ecx),%xmm4
 804d1b1:	08 
 804d1b2:	c5 fa 6f a9 bc 33 06 	vmovdqu 0x80633bc(%ecx),%xmm5
 804d1b9:	08 
 804d1ba:	c5 fc 46 c8          	kxnorw %k0,%k0,%k1
 804d1be:	62 f2 fd 29 90 34 25 	vpgatherdq 0x805f008(,%xmm4,1),%ymm6{%k1}
 804d1c5:	08 f0 05 08 
 804d1c9:	c5 fc 46 c8          	kxnorw %k0,%k0,%k1
 804d1cd:	62 f2 fd 29 90 3c 2d 	vpgatherdq 0x805f008(,%xmm5,1),%ymm7{%k1}
 804d1d4:	08 f0 05 08 
 804d1d8:	c5 e5 d4 d9          	vpaddq %ymm1,%ymm3,%ymm3
 804d1dc:	62 f1 5d 08 76 c8    	vpcmpeqd %xmm0,%xmm4,%k1
 804d1e2:	62 f1 55 08 76 d0    	vpcmpeqd %xmm0,%xmm5,%k2
 804d1e8:	c5 fa 6f 89 cc 33 06 	vmovdqu 0x80633cc(%ecx),%xmm1
 804d1ef:	08 
 804d1f0:	c5 fc 46 d8          	kxnorw %k0,%k0,%k3
 804d1f4:	62 f1 75 08 76 e0    	vpcmpeqd %xmm0,%xmm1,%k4
 804d1fa:	62 f2 fd 2b 90 24 0d 	vpgatherdq 0x805f008(,%xmm1,1),%ymm4{%k3}
 804d201:	08 f0 05 08 
 804d205:	62 f1 fd a9 6f ce    	vmovdqa64 %ymm6,%ymm1{%k1}{z}
 804d20b:	62 f1 fd ac 6f e4    	vmovdqa64 %ymm4,%ymm4{%k4}{z}
 804d211:	c5 f5 d4 cc          	vpaddq %ymm4,%ymm1,%ymm1
 804d215:	c5 fa 6f a1 dc 33 06 	vmovdqu 0x80633dc(%ecx),%xmm4
 804d21c:	08 
 804d21d:	c5 fc 46 c8          	kxnorw %k0,%k0,%k1
 804d221:	62 f1 5d 08 76 d8    	vpcmpeqd %xmm0,%xmm4,%k3
 804d227:	62 f2 fd 29 90 2c 25 	vpgatherdq 0x805f008(,%xmm4,1),%ymm5{%k1}
 804d22e:	08 f0 05 08 
 804d232:	c5 ed d4 c9          	vpaddq %ymm1,%ymm2,%ymm1
 804d236:	62 f1 fd aa 6f d7    	vmovdqa64 %ymm7,%ymm2{%k2}{z}
 804d23c:	62 f1 fd ab 6f e5    	vmovdqa64 %ymm5,%ymm4{%k3}{z}
 804d242:	c5 ed d4 d4          	vpaddq %ymm4,%ymm2,%ymm2
 804d246:	c5 e5 d4 da          	vpaddq %ymm2,%ymm3,%ymm3
 804d24a:	85 c9                	test   %ecx,%ecx
 804d24c:	74 56                	je     804d2a4 <main+0x4084>
 804d24e:	c5 fa 6f 91 ec 33 06 	vmovdqu 0x80633ec(%ecx),%xmm2
 804d255:	08 
 804d256:	c5 fa 6f a1 fc 33 06 	vmovdqu 0x80633fc(%ecx),%xmm4
 804d25d:	08 
 804d25e:	c5 fc 46 c8          	kxnorw %k0,%k0,%k1
 804d262:	62 f2 fd 29 90 2c 15 	vpgatherdq 0x805f008(,%xmm2,1),%ymm5{%k1}
 804d269:	08 f0 05 08 
 804d26d:	c5 fc 46 c8          	kxnorw %k0,%k0,%k1
 804d271:	62 f2 fd 29 90 34 25 	vpgatherdq 0x805f008(,%xmm4,1),%ymm6{%k1}
 804d278:	08 f0 05 08 
 804d27c:	62 f1 6d 08 76 c8    	vpcmpeqd %xmm0,%xmm2,%k1
 804d282:	62 f1 5d 08 76 d0    	vpcmpeqd %xmm0,%xmm4,%k2
 804d288:	62 f1 fd a9 6f d5    	vmovdqa64 %ymm5,%ymm2{%k1}{z}
 804d28e:	62 f1 fd aa 6f e6    	vmovdqa64 %ymm6,%ymm4{%k2}{z}
 804d294:	c5 ed d4 d1          	vpaddq %ymm1,%ymm2,%ymm2
 804d298:	c5 dd d4 cb          	vpaddq %ymm3,%ymm4,%ymm1
 804d29c:	83 e9 80             	sub    $0xffffff80,%ecx
 804d29f:	e9 bc fe ff ff       	jmp    804d160 <main+0x3f40>
 804d2a4:	89 94 24 60 01 00 00 	mov    %edx,0x160(%esp)
 804d2ab:	c5 e5 d4 c1          	vpaddq %ymm1,%ymm3,%ymm0
 804d2af:	c4 e3 7d 39 c1 01    	vextracti128 $0x1,%ymm0,%xmm1
 804d2b5:	c5 f9 d4 c1          	vpaddq %xmm1,%xmm0,%xmm0
 804d2b9:	c5 f9 70 c8 ee       	vpshufd $0xee,%xmm0,%xmm1
 804d2be:	c5 f9 d4 c1          	vpaddq %xmm1,%xmm0,%xmm0
 804d2c2:	c4 e3 79 16 c1 01    	vpextrd $0x1,%xmm0,%ecx
 804d2c8:	c5 f9 7e c2          	vmovd  %xmm0,%edx
 804d2cc:	31 ff                	xor    %edi,%edi
 804d2ce:	3d c8 07 00 00       	cmp    $0x7c8,%eax
 804d2d3:	be 00 00 00 00       	mov    $0x0,%esi
 804d2d8:	bb 10 b2 fb a2       	mov    $0xa2fbb210,%ebx
 804d2dd:	0f 44 f3             	cmove  %ebx,%esi
 804d2e0:	bb 00 00 00 00       	mov    $0x0,%ebx
 804d2e5:	bd 49 82 79 eb       	mov    $0xeb798249,%ebp
 804d2ea:	0f 44 dd             	cmove  %ebp,%ebx
 804d2ed:	01 d3                	add    %edx,%ebx
 804d2ef:	11 ce                	adc    %ecx,%esi
 804d2f1:	3d d0 07 00 00       	cmp    $0x7d0,%eax
 804d2f6:	b9 00 00 00 00       	mov    $0x0,%ecx
 804d2fb:	ba ba 3a 9d 80       	mov    $0x809d3aba,%edx
 804d300:	0f 44 ca             	cmove  %edx,%ecx
 804d303:	ba 00 00 00 00       	mov    $0x0,%edx
 804d308:	bd a7 e9 74 27       	mov    $0x2774e9a7,%ebp
 804d30d:	0f 44 d5             	cmove  %ebp,%edx
 804d310:	01 da                	add    %ebx,%edx
 804d312:	11 f1                	adc    %esi,%ecx
 804d314:	3d d8 07 00 00       	cmp    $0x7d8,%eax
 804d319:	be 00 00 00 00       	mov    $0x0,%esi
 804d31e:	bb 6e 21 d1 4f       	mov    $0x4fd1216e,%ebx
 804d323:	0f 44 f3             	cmove  %ebx,%esi
 804d326:	bb 00 00 00 00       	mov    $0x0,%ebx
 804d32b:	bd f0 93 42 bf       	mov    $0xbf4293f0,%ebp
 804d330:	0f 44 dd             	cmove  %ebp,%ebx
 804d333:	01 d3                	add    %edx,%ebx
 804d335:	11 ce                	adc    %ecx,%esi
 804d337:	3d e0 07 00 00       	cmp    $0x7e0,%eax
 804d33c:	b9 00 00 00 00       	mov    $0x0,%ecx
 804d341:	ba 63 7c 21 1f       	mov    $0x1f217c63,%edx
 804d346:	0f 44 ca             	cmove  %edx,%ecx
 804d349:	ba 00 00 00 00       	mov    $0x0,%edx
 804d34e:	bd 5d d9 f8 42       	mov    $0x42f8d95d,%ebp
 804d353:	0f 44 d5             	cmove  %ebp,%edx
 804d356:	01 da                	add    %ebx,%edx
 804d358:	11 f1                	adc    %esi,%ecx
 804d35a:	3d e8 07 00 00       	cmp    $0x7e8,%eax
 804d35f:	be 00 00 00 00       	mov    $0x0,%esi
 804d364:	bb c5 0f 43 ca       	mov    $0xca430fc5,%ebx
 804d369:	0f 44 f3             	cmove  %ebx,%esi
 804d36c:	bb 00 00 00 00       	mov    $0x0,%ebx
 804d371:	bd 4c 5d 1e 86       	mov    $0x861e5d4c,%ebp
 804d376:	0f 44 dd             	cmove  %ebp,%ebx
 804d379:	01 d3                	add    %edx,%ebx
 804d37b:	11 ce                	adc    %ecx,%esi
 804d37d:	3d f0 07 00 00       	cmp    $0x7f0,%eax
 804d382:	b9 00 00 00 00       	mov    $0x0,%ecx
 804d387:	ba 38 92 e3 aa       	mov    $0xaae39238,%edx
 804d38c:	0f 44 ca             	cmove  %edx,%ecx
 804d38f:	ba 00 00 00 00       	mov    $0x0,%edx
 804d394:	bd 71 da 39 db       	mov    $0xdb39da71,%ebp
 804d399:	0f 44 d5             	cmove  %ebp,%edx
 804d39c:	01 da                	add    %ebx,%edx
 804d39e:	11 f1                	adc    %esi,%ecx
 804d3a0:	3d f8 07 00 00       	cmp    $0x7f8,%eax
 804d3a5:	be 00 00 00 00       	mov    $0x0,%esi
 804d3aa:	b8 57 15 c6 42       	mov    $0x42c61557,%eax
 804d3af:	0f 44 f0             	cmove  %eax,%esi
 804d3b2:	b8 d3 ec 2a 91       	mov    $0x912aecd3,%eax
 804d3b7:	0f 44 f8             	cmove  %eax,%edi
 804d3ba:	01 d7                	add    %edx,%edi
 804d3bc:	89 bc 24 e0 00 00 00 	mov    %edi,0xe0(%esp)
 804d3c3:	11 ce                	adc    %ecx,%esi
 804d3c5:	89 b4 24 20 01 00 00 	mov    %esi,0x120(%esp)
 804d3cc:	8b 44 24 60          	mov    0x60(%esp),%eax
 804d3d0:	c1 e8 0d             	shr    $0xd,%eax
 804d3d3:	25 f8 07 00 00       	and    $0x7f8,%eax
 804d3d8:	62 f2 7d 08 7c c0    	vpbroadcastd %eax,%xmm0
 804d3de:	c5 e9 ef d2          	vpxor  %xmm2,%xmm2,%xmm2
 804d3e2:	b9 80 fc ff ff       	mov    $0xfffffc80,%ecx
 804d3e7:	c5 f1 ef c9          	vpxor  %xmm1,%xmm1,%xmm1
 804d3eb:	0f 1f 44 00 00       	nopl   0x0(%eax,%eax,1)
 804d3f0:	c5 fa 6f 99 8c 33 06 	vmovdqu 0x806338c(%ecx),%xmm3
 804d3f7:	08 
 804d3f8:	c5 fa 6f a1 9c 33 06 	vmovdqu 0x806339c(%ecx),%xmm4
 804d3ff:	08 
 804d400:	c5 fc 46 c8          	kxnorw %k0,%k0,%k1
 804d404:	62 f2 fd 29 90 2c 1d 	vpgatherdq 0x805f808(,%xmm3,1),%ymm5{%k1}
 804d40b:	08 f8 05 08 
 804d40f:	c5 fc 46 c8          	kxnorw %k0,%k0,%k1
 804d413:	62 f2 fd 29 90 34 25 	vpgatherdq 0x805f808(,%xmm4,1),%ymm6{%k1}
 804d41a:	08 f8 05 08 
 804d41e:	62 f1 7d 08 76 cb    	vpcmpeqd %xmm3,%xmm0,%k1
 804d424:	62 f1 7d 08 76 d4    	vpcmpeqd %xmm4,%xmm0,%k2
 804d42a:	62 f1 fd a9 6f dd    	vmovdqa64 %ymm5,%ymm3{%k1}{z}
 804d430:	c5 e5 d4 d2          	vpaddq %ymm2,%ymm3,%ymm2
 804d434:	62 f1 fd aa 6f de    	vmovdqa64 %ymm6,%ymm3{%k2}{z}
 804d43a:	c5 fa 6f a1 ac 33 06 	vmovdqu 0x80633ac(%ecx),%xmm4
 804d441:	08 
 804d442:	c5 fa 6f a9 bc 33 06 	vmovdqu 0x80633bc(%ecx),%xmm5
 804d449:	08 
 804d44a:	c5 fc 46 c8          	kxnorw %k0,%k0,%k1
 804d44e:	62 f2 fd 29 90 34 25 	vpgatherdq 0x805f808(,%xmm4,1),%ymm6{%k1}
 804d455:	08 f8 05 08 
 804d459:	c5 fc 46 c8          	kxnorw %k0,%k0,%k1
 804d45d:	62 f2 fd 29 90 3c 2d 	vpgatherdq 0x805f808(,%xmm5,1),%ymm7{%k1}
 804d464:	08 f8 05 08 
 804d468:	c5 e5 d4 d9          	vpaddq %ymm1,%ymm3,%ymm3
 804d46c:	62 f1 7d 08 76 cc    	vpcmpeqd %xmm4,%xmm0,%k1
 804d472:	62 f1 7d 08 76 d5    	vpcmpeqd %xmm5,%xmm0,%k2
 804d478:	c5 fa 6f 89 cc 33 06 	vmovdqu 0x80633cc(%ecx),%xmm1
 804d47f:	08 
 804d480:	c5 fc 46 d8          	kxnorw %k0,%k0,%k3
 804d484:	62 f1 7d 08 76 e1    	vpcmpeqd %xmm1,%xmm0,%k4
 804d48a:	62 f2 fd 2b 90 24 0d 	vpgatherdq 0x805f808(,%xmm1,1),%ymm4{%k3}
 804d491:	08 f8 05 08 
 804d495:	62 f1 fd a9 6f ce    	vmovdqa64 %ymm6,%ymm1{%k1}{z}
 804d49b:	62 f1 fd ac 6f e4    	vmovdqa64 %ymm4,%ymm4{%k4}{z}
 804d4a1:	c5 f5 d4 cc          	vpaddq %ymm4,%ymm1,%ymm1
 804d4a5:	c5 fa 6f a1 dc 33 06 	vmovdqu 0x80633dc(%ecx),%xmm4
 804d4ac:	08 
 804d4ad:	c5 fc 46 c8          	kxnorw %k0,%k0,%k1
 804d4b1:	62 f1 7d 08 76 dc    	vpcmpeqd %xmm4,%xmm0,%k3
 804d4b7:	62 f2 fd 29 90 2c 25 	vpgatherdq 0x805f808(,%xmm4,1),%ymm5{%k1}
 804d4be:	08 f8 05 08 
 804d4c2:	c5 ed d4 c9          	vpaddq %ymm1,%ymm2,%ymm1
 804d4c6:	62 f1 fd aa 6f d7    	vmovdqa64 %ymm7,%ymm2{%k2}{z}
 804d4cc:	62 f1 fd ab 6f e5    	vmovdqa64 %ymm5,%ymm4{%k3}{z}
 804d4d2:	c5 ed d4 d4          	vpaddq %ymm4,%ymm2,%ymm2
 804d4d6:	c5 e5 d4 da          	vpaddq %ymm2,%ymm3,%ymm3
 804d4da:	85 c9                	test   %ecx,%ecx
 804d4dc:	74 56                	je     804d534 <main+0x4314>
 804d4de:	c5 fa 6f 91 ec 33 06 	vmovdqu 0x80633ec(%ecx),%xmm2
 804d4e5:	08 
 804d4e6:	c5 fa 6f a1 fc 33 06 	vmovdqu 0x80633fc(%ecx),%xmm4
 804d4ed:	08 
 804d4ee:	c5 fc 46 c8          	kxnorw %k0,%k0,%k1
 804d4f2:	62 f2 fd 29 90 2c 15 	vpgatherdq 0x805f808(,%xmm2,1),%ymm5{%k1}
 804d4f9:	08 f8 05 08 
 804d4fd:	c5 fc 46 c8          	kxnorw %k0,%k0,%k1
 804d501:	62 f2 fd 29 90 34 25 	vpgatherdq 0x805f808(,%xmm4,1),%ymm6{%k1}
 804d508:	08 f8 05 08 
 804d50c:	62 f1 7d 08 76 ca    	vpcmpeqd %xmm2,%xmm0,%k1
 804d512:	62 f1 7d 08 76 d4    	vpcmpeqd %xmm4,%xmm0,%k2
 804d518:	62 f1 fd a9 6f d5    	vmovdqa64 %ymm5,%ymm2{%k1}{z}
 804d51e:	62 f1 fd aa 6f e6    	vmovdqa64 %ymm6,%ymm4{%k2}{z}
 804d524:	c5 ed d4 d1          	vpaddq %ymm1,%ymm2,%ymm2
 804d528:	c5 dd d4 cb          	vpaddq %ymm3,%ymm4,%ymm1
 804d52c:	83 e9 80             	sub    $0xffffff80,%ecx
 804d52f:	e9 bc fe ff ff       	jmp    804d3f0 <main+0x41d0>
 804d534:	c5 e5 d4 c1          	vpaddq %ymm1,%ymm3,%ymm0
 804d538:	c4 e3 7d 39 c1 01    	vextracti128 $0x1,%ymm0,%xmm1
 804d53e:	c5 f9 d4 c1          	vpaddq %xmm1,%xmm0,%xmm0
 804d542:	c5 f9 70 c8 ee       	vpshufd $0xee,%xmm0,%xmm1
 804d547:	c5 f9 d4 c1          	vpaddq %xmm1,%xmm0,%xmm0
 804d54b:	c4 e3 79 16 c1 01    	vpextrd $0x1,%xmm0,%ecx
 804d551:	c5 f9 7e c2          	vmovd  %xmm0,%edx
 804d555:	31 ff                	xor    %edi,%edi
 804d557:	3d c8 07 00 00       	cmp    $0x7c8,%eax
 804d55c:	be 00 00 00 00       	mov    $0x0,%esi
 804d561:	bb b2 10 a2 fb       	mov    $0xfba210b2,%ebx
 804d566:	0f 44 f3             	cmove  %ebx,%esi
 804d569:	bb 00 00 00 00       	mov    $0x0,%ebx
 804d56e:	bd 82 49 eb 79       	mov    $0x79eb4982,%ebp
 804d573:	0f 44 dd             	cmove  %ebp,%ebx
 804d576:	01 d3                	add    %edx,%ebx
 804d578:	11 ce                	adc    %ecx,%esi
 804d57a:	3d d0 07 00 00       	cmp    $0x7d0,%eax
 804d57f:	b9 00 00 00 00       	mov    $0x0,%ecx
 804d584:	ba 3a ba 80 9d       	mov    $0x9d80ba3a,%edx
 804d589:	0f 44 ca             	cmove  %edx,%ecx
 804d58c:	ba 00 00 00 00       	mov    $0x0,%edx
 804d591:	bd e9 a7 27 74       	mov    $0x7427a7e9,%ebp
 804d596:	0f 44 d5             	cmove  %ebp,%edx
 804d599:	01 da                	add    %ebx,%edx
 804d59b:	11 f1                	adc    %esi,%ecx
 804d59d:	3d d8 07 00 00       	cmp    $0x7d8,%eax
 804d5a2:	be 00 00 00 00       	mov    $0x0,%esi
 804d5a7:	bb 21 6e 4f d1       	mov    $0xd14f6e21,%ebx
 804d5ac:	0f 44 f3             	cmove  %ebx,%esi
 804d5af:	bb 00 00 00 00       	mov    $0x0,%ebx
 804d5b4:	bd 93 f0 bf 42       	mov    $0x42bff093,%ebp
 804d5b9:	0f 44 dd             	cmove  %ebp,%ebx
 804d5bc:	01 d3                	add    %edx,%ebx
 804d5be:	11 ce                	adc    %ecx,%esi
 804d5c0:	3d e0 07 00 00       	cmp    $0x7e0,%eax
 804d5c5:	b9 00 00 00 00       	mov    $0x0,%ecx
 804d5ca:	ba 7c 63 1f 21       	mov    $0x211f637c,%edx
 804d5cf:	0f 44 ca             	cmove  %edx,%ecx
 804d5d2:	ba 00 00 00 00       	mov    $0x0,%edx
 804d5d7:	bd d9 5d 42 f8       	mov    $0xf8425dd9,%ebp
 804d5dc:	0f 44 d5             	cmove  %ebp,%edx
 804d5df:	01 da                	add    %ebx,%edx
 804d5e1:	11 f1                	adc    %esi,%ecx
 804d5e3:	3d e8 07 00 00       	cmp    $0x7e8,%eax
 804d5e8:	be 00 00 00 00       	mov    $0x0,%esi
 804d5ed:	bb 0f c5 ca 43       	mov    $0x43cac50f,%ebx
 804d5f2:	0f 44 f3             	cmove  %ebx,%esi
 804d5f5:	bb 00 00 00 00       	mov    $0x0,%ebx
 804d5fa:	bd 5d 4c 86 1e       	mov    $0x1e864c5d,%ebp
 804d5ff:	0f 44 dd             	cmove  %ebp,%ebx
 804d602:	01 d3                	add    %edx,%ebx
 804d604:	11 ce                	adc    %ecx,%esi
 804d606:	3d f0 07 00 00       	cmp    $0x7f0,%eax
 804d60b:	b9 00 00 00 00       	mov    $0x0,%ecx
 804d610:	ba 92 38 aa e3       	mov    $0xe3aa3892,%edx
 804d615:	0f 44 ca             	cmove  %edx,%ecx
 804d618:	ba 00 00 00 00       	mov    $0x0,%edx
 804d61d:	bd da 71 db 39       	mov    $0x39db71da,%ebp
 804d622:	0f 44 d5             	cmove  %ebp,%edx
 804d625:	01 da                	add    %ebx,%edx
 804d627:	11 f1                	adc    %esi,%ecx
 804d629:	3d f8 07 00 00       	cmp    $0x7f8,%eax
 804d62e:	be 00 00 00 00       	mov    $0x0,%esi
 804d633:	b8 15 57 42 c6       	mov    $0xc6425715,%eax
 804d638:	0f 44 f0             	cmove  %eax,%esi
 804d63b:	b8 ec d3 91 2a       	mov    $0x2a91d3ec,%eax
 804d640:	0f 44 f8             	cmove  %eax,%edi
 804d643:	01 d7                	add    %edx,%edi
 804d645:	89 bc 24 00 01 00 00 	mov    %edi,0x100(%esp)
 804d64c:	11 ce                	adc    %ecx,%esi
 804d64e:	89 74 24 14          	mov    %esi,0x14(%esp)
 804d652:	8b 44 24 60          	mov    0x60(%esp),%eax
 804d656:	c1 e8 05             	shr    $0x5,%eax
 804d659:	25 f8 07 00 00       	and    $0x7f8,%eax
 804d65e:	62 f2 7d 08 7c c0    	vpbroadcastd %eax,%xmm0
 804d664:	c5 e9 ef d2          	vpxor  %xmm2,%xmm2,%xmm2
 804d668:	b9 80 fc ff ff       	mov    $0xfffffc80,%ecx
 804d66d:	c5 f1 ef c9          	vpxor  %xmm1,%xmm1,%xmm1
 804d671:	66 66 66 66 66 66 2e 	data16 data16 data16 data16 data16 nopw %cs:0x0(%eax,%eax,1)
 804d678:	0f 1f 84 00 00 00 00 
 804d67f:	00 
 804d680:	c5 fa 6f 99 8c 33 06 	vmovdqu 0x806338c(%ecx),%xmm3
 804d687:	08 
 804d688:	c5 fa 6f a1 9c 33 06 	vmovdqu 0x806339c(%ecx),%xmm4
 804d68f:	08 
 804d690:	c5 fc 46 c8          	kxnorw %k0,%k0,%k1
 804d694:	62 f2 fd 29 90 2c 1d 	vpgatherdq 0x8060008(,%xmm3,1),%ymm5{%k1}
 804d69b:	08 00 06 08 
 804d69f:	c5 fc 46 c8          	kxnorw %k0,%k0,%k1
 804d6a3:	62 f2 fd 29 90 34 25 	vpgatherdq 0x8060008(,%xmm4,1),%ymm6{%k1}
 804d6aa:	08 00 06 08 
 804d6ae:	62 f1 7d 08 76 cb    	vpcmpeqd %xmm3,%xmm0,%k1
 804d6b4:	62 f1 7d 08 76 d4    	vpcmpeqd %xmm4,%xmm0,%k2
 804d6ba:	62 f1 fd a9 6f dd    	vmovdqa64 %ymm5,%ymm3{%k1}{z}
 804d6c0:	c5 e5 d4 d2          	vpaddq %ymm2,%ymm3,%ymm2
 804d6c4:	62 f1 fd aa 6f de    	vmovdqa64 %ymm6,%ymm3{%k2}{z}
 804d6ca:	c5 fa 6f a1 ac 33 06 	vmovdqu 0x80633ac(%ecx),%xmm4
 804d6d1:	08 
 804d6d2:	c5 fa 6f a9 bc 33 06 	vmovdqu 0x80633bc(%ecx),%xmm5
 804d6d9:	08 
 804d6da:	c5 fc 46 c8          	kxnorw %k0,%k0,%k1
 804d6de:	62 f2 fd 29 90 34 25 	vpgatherdq 0x8060008(,%xmm4,1),%ymm6{%k1}
 804d6e5:	08 00 06 08 
 804d6e9:	c5 fc 46 c8          	kxnorw %k0,%k0,%k1
 804d6ed:	62 f2 fd 29 90 3c 2d 	vpgatherdq 0x8060008(,%xmm5,1),%ymm7{%k1}
 804d6f4:	08 00 06 08 
 804d6f8:	c5 e5 d4 d9          	vpaddq %ymm1,%ymm3,%ymm3
 804d6fc:	62 f1 7d 08 76 cc    	vpcmpeqd %xmm4,%xmm0,%k1
 804d702:	62 f1 7d 08 76 d5    	vpcmpeqd %xmm5,%xmm0,%k2
 804d708:	c5 fa 6f 89 cc 33 06 	vmovdqu 0x80633cc(%ecx),%xmm1
 804d70f:	08 
 804d710:	c5 fc 46 d8          	kxnorw %k0,%k0,%k3
 804d714:	62 f1 7d 08 76 e1    	vpcmpeqd %xmm1,%xmm0,%k4
 804d71a:	62 f2 fd 2b 90 24 0d 	vpgatherdq 0x8060008(,%xmm1,1),%ymm4{%k3}
 804d721:	08 00 06 08 
 804d725:	62 f1 fd a9 6f ce    	vmovdqa64 %ymm6,%ymm1{%k1}{z}
 804d72b:	62 f1 fd ac 6f e4    	vmovdqa64 %ymm4,%ymm4{%k4}{z}
 804d731:	c5 f5 d4 cc          	vpaddq %ymm4,%ymm1,%ymm1
 804d735:	c5 fa 6f a1 dc 33 06 	vmovdqu 0x80633dc(%ecx),%xmm4
 804d73c:	08 
 804d73d:	c5 fc 46 c8          	kxnorw %k0,%k0,%k1
 804d741:	62 f1 7d 08 76 dc    	vpcmpeqd %xmm4,%xmm0,%k3
 804d747:	62 f2 fd 29 90 2c 25 	vpgatherdq 0x8060008(,%xmm4,1),%ymm5{%k1}
 804d74e:	08 00 06 08 
 804d752:	c5 ed d4 c9          	vpaddq %ymm1,%ymm2,%ymm1
 804d756:	62 f1 fd aa 6f d7    	vmovdqa64 %ymm7,%ymm2{%k2}{z}
 804d75c:	62 f1 fd ab 6f e5    	vmovdqa64 %ymm5,%ymm4{%k3}{z}
 804d762:	c5 ed d4 d4          	vpaddq %ymm4,%ymm2,%ymm2
 804d766:	c5 e5 d4 da          	vpaddq %ymm2,%ymm3,%ymm3
 804d76a:	85 c9                	test   %ecx,%ecx
 804d76c:	74 56                	je     804d7c4 <main+0x45a4>
 804d76e:	c5 fa 6f 91 ec 33 06 	vmovdqu 0x80633ec(%ecx),%xmm2
 804d775:	08 
 804d776:	c5 fa 6f a1 fc 33 06 	vmovdqu 0x80633fc(%ecx),%xmm4
 804d77d:	08 
 804d77e:	c5 fc 46 c8          	kxnorw %k0,%k0,%k1
 804d782:	62 f2 fd 29 90 2c 15 	vpgatherdq 0x8060008(,%xmm2,1),%ymm5{%k1}
 804d789:	08 00 06 08 
 804d78d:	c5 fc 46 c8          	kxnorw %k0,%k0,%k1
 804d791:	62 f2 fd 29 90 34 25 	vpgatherdq 0x8060008(,%xmm4,1),%ymm6{%k1}
 804d798:	08 00 06 08 
 804d79c:	62 f1 7d 08 76 ca    	vpcmpeqd %xmm2,%xmm0,%k1
 804d7a2:	62 f1 7d 08 76 d4    	vpcmpeqd %xmm4,%xmm0,%k2
 804d7a8:	62 f1 fd a9 6f d5    	vmovdqa64 %ymm5,%ymm2{%k1}{z}
 804d7ae:	62 f1 fd aa 6f e6    	vmovdqa64 %ymm6,%ymm4{%k2}{z}
 804d7b4:	c5 ed d4 d1          	vpaddq %ymm1,%ymm2,%ymm2
 804d7b8:	c5 dd d4 cb          	vpaddq %ymm3,%ymm4,%ymm1
 804d7bc:	83 e9 80             	sub    $0xffffff80,%ecx
 804d7bf:	e9 bc fe ff ff       	jmp    804d680 <main+0x4460>
 804d7c4:	c5 e5 d4 c1          	vpaddq %ymm1,%ymm3,%ymm0
 804d7c8:	c4 e3 7d 39 c1 01    	vextracti128 $0x1,%ymm0,%xmm1
 804d7ce:	c5 f9 d4 c1          	vpaddq %xmm1,%xmm0,%xmm0
 804d7d2:	c5 f9 70 c8 ee       	vpshufd $0xee,%xmm0,%xmm1
 804d7d7:	c5 f9 d4 c1          	vpaddq %xmm1,%xmm0,%xmm0
 804d7db:	c4 e3 79 16 c1 01    	vpextrd $0x1,%xmm0,%ecx
 804d7e1:	c5 f9 7e c2          	vmovd  %xmm0,%edx
 804d7e5:	31 ff                	xor    %edi,%edi
 804d7e7:	3d c8 07 00 00       	cmp    $0x7c8,%eax
 804d7ec:	be 00 00 00 00       	mov    $0x0,%esi
 804d7f1:	bb fb a2 10 b2       	mov    $0xb210a2fb,%ebx
 804d7f6:	0f 44 f3             	cmove  %ebx,%esi
 804d7f9:	bb 00 00 00 00       	mov    $0x0,%ebx
 804d7fe:	bd 79 eb 49 82       	mov    $0x8249eb79,%ebp
 804d803:	0f 44 dd             	cmove  %ebp,%ebx
 804d806:	01 d3                	add    %edx,%ebx
 804d808:	11 ce                	adc    %ecx,%esi
 804d80a:	3d d0 07 00 00       	cmp    $0x7d0,%eax
 804d80f:	b9 00 00 00 00       	mov    $0x0,%ecx
 804d814:	ba 9d 80 ba 3a       	mov    $0x3aba809d,%edx
 804d819:	0f 44 ca             	cmove  %edx,%ecx
 804d81c:	ba 00 00 00 00       	mov    $0x0,%edx
 804d821:	bd 74 27 a7 e9       	mov    $0xe9a72774,%ebp
 804d826:	0f 44 d5             	cmove  %ebp,%edx
 804d829:	01 da                	add    %ebx,%edx
 804d82b:	11 f1                	adc    %esi,%ecx
 804d82d:	3d d8 07 00 00       	cmp    $0x7d8,%eax
 804d832:	be 00 00 00 00       	mov    $0x0,%esi
 804d837:	bb d1 4f 6e 21       	mov    $0x216e4fd1,%ebx
 804d83c:	0f 44 f3             	cmove  %ebx,%esi
 804d83f:	bb 00 00 00 00       	mov    $0x0,%ebx
 804d844:	bd 42 bf f0 93       	mov    $0x93f0bf42,%ebp
 804d849:	0f 44 dd             	cmove  %ebp,%ebx
 804d84c:	01 d3                	add    %edx,%ebx
 804d84e:	11 ce                	adc    %ecx,%esi
 804d850:	3d e0 07 00 00       	cmp    $0x7e0,%eax
 804d855:	b9 00 00 00 00       	mov    $0x0,%ecx
 804d85a:	ba 21 1f 63 7c       	mov    $0x7c631f21,%edx
 804d85f:	0f 44 ca             	cmove  %edx,%ecx
 804d862:	ba 00 00 00 00       	mov    $0x0,%edx
 804d867:	bd f8 42 5d d9       	mov    $0xd95d42f8,%ebp
 804d86c:	0f 44 d5             	cmove  %ebp,%edx
 804d86f:	01 da                	add    %ebx,%edx
 804d871:	11 f1                	adc    %esi,%ecx
 804d873:	3d e8 07 00 00       	cmp    $0x7e8,%eax
 804d878:	be 00 00 00 00       	mov    $0x0,%esi
 804d87d:	bb 43 ca c5 0f       	mov    $0xfc5ca43,%ebx
 804d882:	0f 44 f3             	cmove  %ebx,%esi
 804d885:	bb 00 00 00 00       	mov    $0x0,%ebx
 804d88a:	bd 1e 86 4c 5d       	mov    $0x5d4c861e,%ebp
 804d88f:	0f 44 dd             	cmove  %ebp,%ebx
 804d892:	01 d3                	add    %edx,%ebx
 804d894:	11 ce                	adc    %ecx,%esi
 804d896:	3d f0 07 00 00       	cmp    $0x7f0,%eax
 804d89b:	b9 00 00 00 00       	mov    $0x0,%ecx
 804d8a0:	ba e3 aa 38 92       	mov    $0x9238aae3,%edx
 804d8a5:	0f 44 ca             	cmove  %edx,%ecx
 804d8a8:	ba 00 00 00 00       	mov    $0x0,%edx
 804d8ad:	bd 39 db 71 da       	mov    $0xda71db39,%ebp
 804d8b2:	0f 44 d5             	cmove  %ebp,%edx
 804d8b5:	01 da                	add    %ebx,%edx
 804d8b7:	11 f1                	adc    %esi,%ecx
 804d8b9:	3d f8 07 00 00       	cmp    $0x7f8,%eax
 804d8be:	be 00 00 00 00       	mov    $0x0,%esi
 804d8c3:	b8 c6 42 57 15       	mov    $0x155742c6,%eax
 804d8c8:	0f 44 f0             	cmove  %eax,%esi
 804d8cb:	b8 2a 91 d3 ec       	mov    $0xecd3912a,%eax
 804d8d0:	0f 44 f8             	cmove  %eax,%edi
 804d8d3:	01 d7                	add    %edx,%edi
 804d8d5:	89 7c 24 10          	mov    %edi,0x10(%esp)
 804d8d9:	11 ce                	adc    %ecx,%esi
 804d8db:	89 74 24 0c          	mov    %esi,0xc(%esp)
 804d8df:	8b 44 24 20          	mov    0x20(%esp),%eax
 804d8e3:	8b 4c 24 60          	mov    0x60(%esp),%ecx
 804d8e7:	0f a4 c1 03          	shld   $0x3,%eax,%ecx
 804d8eb:	81 e1 f8 07 00 00    	and    $0x7f8,%ecx
 804d8f1:	89 ca                	mov    %ecx,%edx
 804d8f3:	62 f2 7d 08 7c c1    	vpbroadcastd %ecx,%xmm0
 804d8f9:	c5 e9 ef d2          	vpxor  %xmm2,%xmm2,%xmm2
 804d8fd:	b8 80 fc ff ff       	mov    $0xfffffc80,%eax
 804d902:	c5 f1 ef c9          	vpxor  %xmm1,%xmm1,%xmm1
 804d906:	66 2e 0f 1f 84 00 00 	nopw   %cs:0x0(%eax,%eax,1)
 804d90d:	00 00 00 
 804d910:	c5 fa 6f 98 8c 33 06 	vmovdqu 0x806338c(%eax),%xmm3
 804d917:	08 
 804d918:	c5 fa 6f a0 9c 33 06 	vmovdqu 0x806339c(%eax),%xmm4
 804d91f:	08 
 804d920:	c5 fc 46 c8          	kxnorw %k0,%k0,%k1
 804d924:	62 f2 fd 29 90 2c 1d 	vpgatherdq 0x8060808(,%xmm3,1),%ymm5{%k1}
 804d92b:	08 08 06 08 
 804d92f:	c5 fc 46 c8          	kxnorw %k0,%k0,%k1
 804d933:	62 f2 fd 29 90 34 25 	vpgatherdq 0x8060808(,%xmm4,1),%ymm6{%k1}
 804d93a:	08 08 06 08 
 804d93e:	62 f1 7d 08 76 cb    	vpcmpeqd %xmm3,%xmm0,%k1
 804d944:	62 f1 7d 08 76 d4    	vpcmpeqd %xmm4,%xmm0,%k2
 804d94a:	62 f1 fd a9 6f dd    	vmovdqa64 %ymm5,%ymm3{%k1}{z}
 804d950:	c5 e5 d4 d2          	vpaddq %ymm2,%ymm3,%ymm2
 804d954:	62 f1 fd aa 6f de    	vmovdqa64 %ymm6,%ymm3{%k2}{z}
 804d95a:	c5 fa 6f a0 ac 33 06 	vmovdqu 0x80633ac(%eax),%xmm4
 804d961:	08 
 804d962:	c5 fa 6f a8 bc 33 06 	vmovdqu 0x80633bc(%eax),%xmm5
 804d969:	08 
 804d96a:	c5 fc 46 c8          	kxnorw %k0,%k0,%k1
 804d96e:	62 f2 fd 29 90 34 25 	vpgatherdq 0x8060808(,%xmm4,1),%ymm6{%k1}
 804d975:	08 08 06 08 
 804d979:	c5 fc 46 c8          	kxnorw %k0,%k0,%k1
 804d97d:	62 f2 fd 29 90 3c 2d 	vpgatherdq 0x8060808(,%xmm5,1),%ymm7{%k1}
 804d984:	08 08 06 08 
 804d988:	c5 e5 d4 d9          	vpaddq %ymm1,%ymm3,%ymm3
 804d98c:	62 f1 7d 08 76 cc    	vpcmpeqd %xmm4,%xmm0,%k1
 804d992:	62 f1 7d 08 76 d5    	vpcmpeqd %xmm5,%xmm0,%k2
 804d998:	c5 fa 6f 88 cc 33 06 	vmovdqu 0x80633cc(%eax),%xmm1
 804d99f:	08 
 804d9a0:	c5 fc 46 d8          	kxnorw %k0,%k0,%k3
 804d9a4:	62 f1 7d 08 76 e1    	vpcmpeqd %xmm1,%xmm0,%k4
 804d9aa:	62 f2 fd 2b 90 24 0d 	vpgatherdq 0x8060808(,%xmm1,1),%ymm4{%k3}
 804d9b1:	08 08 06 08 
 804d9b5:	62 f1 fd a9 6f ce    	vmovdqa64 %ymm6,%ymm1{%k1}{z}
 804d9bb:	62 f1 fd ac 6f e4    	vmovdqa64 %ymm4,%ymm4{%k4}{z}
 804d9c1:	c5 f5 d4 cc          	vpaddq %ymm4,%ymm1,%ymm1
 804d9c5:	c5 fa 6f a0 dc 33 06 	vmovdqu 0x80633dc(%eax),%xmm4
 804d9cc:	08 
 804d9cd:	c5 fc 46 c8          	kxnorw %k0,%k0,%k1
 804d9d1:	62 f1 7d 08 76 dc    	vpcmpeqd %xmm4,%xmm0,%k3
 804d9d7:	62 f2 fd 29 90 2c 25 	vpgatherdq 0x8060808(,%xmm4,1),%ymm5{%k1}
 804d9de:	08 08 06 08 
 804d9e2:	c5 ed d4 c9          	vpaddq %ymm1,%ymm2,%ymm1
 804d9e6:	62 f1 fd aa 6f d7    	vmovdqa64 %ymm7,%ymm2{%k2}{z}
 804d9ec:	62 f1 fd ab 6f e5    	vmovdqa64 %ymm5,%ymm4{%k3}{z}
 804d9f2:	c5 ed d4 d4          	vpaddq %ymm4,%ymm2,%ymm2
 804d9f6:	c5 e5 d4 da          	vpaddq %ymm2,%ymm3,%ymm3
 804d9fa:	85 c0                	test   %eax,%eax
 804d9fc:	74 56                	je     804da54 <main+0x4834>
 804d9fe:	c5 fa 6f 90 ec 33 06 	vmovdqu 0x80633ec(%eax),%xmm2
 804da05:	08 
 804da06:	c5 fa 6f a0 fc 33 06 	vmovdqu 0x80633fc(%eax),%xmm4
 804da0d:	08 
 804da0e:	c5 fc 46 c8          	kxnorw %k0,%k0,%k1
 804da12:	62 f2 fd 29 90 2c 15 	vpgatherdq 0x8060808(,%xmm2,1),%ymm5{%k1}
 804da19:	08 08 06 08 
 804da1d:	c5 fc 46 c8          	kxnorw %k0,%k0,%k1
 804da21:	62 f2 fd 29 90 34 25 	vpgatherdq 0x8060808(,%xmm4,1),%ymm6{%k1}
 804da28:	08 08 06 08 
 804da2c:	62 f1 7d 08 76 ca    	vpcmpeqd %xmm2,%xmm0,%k1
 804da32:	62 f1 7d 08 76 d4    	vpcmpeqd %xmm4,%xmm0,%k2
 804da38:	62 f1 fd a9 6f d5    	vmovdqa64 %ymm5,%ymm2{%k1}{z}
 804da3e:	62 f1 fd aa 6f e6    	vmovdqa64 %ymm6,%ymm4{%k2}{z}
 804da44:	c5 ed d4 d1          	vpaddq %ymm1,%ymm2,%ymm2
 804da48:	c5 dd d4 cb          	vpaddq %ymm3,%ymm4,%ymm1
 804da4c:	83 e8 80             	sub    $0xffffff80,%eax
 804da4f:	e9 bc fe ff ff       	jmp    804d910 <main+0x46f0>
 804da54:	c5 e5 d4 c1          	vpaddq %ymm1,%ymm3,%ymm0
 804da58:	c4 e3 7d 39 c1 01    	vextracti128 $0x1,%ymm0,%xmm1
 804da5e:	c5 f9 d4 c1          	vpaddq %xmm1,%xmm0,%xmm0
 804da62:	c5 f9 70 c8 ee       	vpshufd $0xee,%xmm0,%xmm1
 804da67:	c5 f9 d4 c1          	vpaddq %xmm1,%xmm0,%xmm0
 804da6b:	c4 e3 79 16 c0 01    	vpextrd $0x1,%xmm0,%eax
 804da71:	c5 f9 7e c1          	vmovd  %xmm0,%ecx
 804da75:	31 ff                	xor    %edi,%edi
 804da77:	89 d5                	mov    %edx,%ebp
 804da79:	81 fa c8 07 00 00    	cmp    $0x7c8,%edx
 804da7f:	ba 00 00 00 00       	mov    $0x0,%edx
 804da84:	be a2 fb b2 10       	mov    $0x10b2fba2,%esi
 804da89:	0f 44 d6             	cmove  %esi,%edx
 804da8c:	be 00 00 00 00       	mov    $0x0,%esi
 804da91:	bb eb 79 82 49       	mov    $0x498279eb,%ebx
 804da96:	0f 44 f3             	cmove  %ebx,%esi
 804da99:	01 ce                	add    %ecx,%esi
 804da9b:	11 c2                	adc    %eax,%edx
 804da9d:	81 fd d0 07 00 00    	cmp    $0x7d0,%ebp
 804daa3:	b8 00 00 00 00       	mov    $0x0,%eax
 804daa8:	b9 80 9d 3a ba       	mov    $0xba3a9d80,%ecx
 804daad:	0f 44 c1             	cmove  %ecx,%eax
 804dab0:	b9 00 00 00 00       	mov    $0x0,%ecx
 804dab5:	bb 27 74 e9 a7       	mov    $0xa7e97427,%ebx
 804daba:	0f 44 cb             	cmove  %ebx,%ecx
 804dabd:	01 f1                	add    %esi,%ecx
 804dabf:	11 d0                	adc    %edx,%eax
 804dac1:	81 fd d8 07 00 00    	cmp    $0x7d8,%ebp
 804dac7:	ba 00 00 00 00       	mov    $0x0,%edx
 804dacc:	be 4f d1 21 6e       	mov    $0x6e21d14f,%esi
 804dad1:	0f 44 d6             	cmove  %esi,%edx
 804dad4:	be 00 00 00 00       	mov    $0x0,%esi
 804dad9:	bb bf 42 93 f0       	mov    $0xf09342bf,%ebx
 804dade:	0f 44 f3             	cmove  %ebx,%esi
 804dae1:	01 ce                	add    %ecx,%esi
 804dae3:	11 c2                	adc    %eax,%edx
 804dae5:	81 fd e0 07 00 00    	cmp    $0x7e0,%ebp
 804daeb:	b8 00 00 00 00       	mov    $0x0,%eax
 804daf0:	b9 1f 21 7c 63       	mov    $0x637c211f,%ecx
 804daf5:	0f 44 c1             	cmove  %ecx,%eax
 804daf8:	b9 00 00 00 00       	mov    $0x0,%ecx
 804dafd:	bb 42 f8 d9 5d       	mov    $0x5dd9f842,%ebx
 804db02:	0f 44 cb             	cmove  %ebx,%ecx
 804db05:	01 f1                	add    %esi,%ecx
 804db07:	11 d0                	adc    %edx,%eax
 804db09:	81 fd e8 07 00 00    	cmp    $0x7e8,%ebp
 804db0f:	ba 00 00 00 00       	mov    $0x0,%edx
 804db14:	be ca 43 0f c5       	mov    $0xc50f43ca,%esi
 804db19:	0f 44 d6             	cmove  %esi,%edx
 804db1c:	be 00 00 00 00       	mov    $0x0,%esi
 804db21:	bb 86 1e 5d 4c       	mov    $0x4c5d1e86,%ebx
 804db26:	0f 44 f3             	cmove  %ebx,%esi
 804db29:	01 ce                	add    %ecx,%esi
 804db2b:	11 c2                	adc    %eax,%edx
 804db2d:	81 fd f0 07 00 00    	cmp    $0x7f0,%ebp
 804db33:	b8 00 00 00 00       	mov    $0x0,%eax
 804db38:	b9 aa e3 92 38       	mov    $0x3892e3aa,%ecx
 804db3d:	0f 44 c1             	cmove  %ecx,%eax
 804db40:	b9 00 00 00 00       	mov    $0x0,%ecx
 804db45:	bb db 39 da 71       	mov    $0x71da39db,%ebx
 804db4a:	0f 44 cb             	cmove  %ebx,%ecx
 804db4d:	01 f1                	add    %esi,%ecx
 804db4f:	11 d0                	adc    %edx,%eax
 804db51:	81 fd f8 07 00 00    	cmp    $0x7f8,%ebp
 804db57:	be 00 00 00 00       	mov    $0x0,%esi
 804db5c:	ba 42 c6 15 57       	mov    $0x5715c642,%edx
 804db61:	0f 44 f2             	cmove  %edx,%esi
 804db64:	ba 91 2a ec d3       	mov    $0xd3ec2a91,%edx
 804db69:	0f 44 fa             	cmove  %edx,%edi
 804db6c:	01 cf                	add    %ecx,%edi
 804db6e:	89 7c 24 08          	mov    %edi,0x8(%esp)
 804db72:	11 c6                	adc    %eax,%esi
 804db74:	89 74 24 18          	mov    %esi,0x18(%esp)
 804db78:	8b 44 24 20          	mov    0x20(%esp),%eax
 804db7c:	c1 e8 15             	shr    $0x15,%eax
 804db7f:	83 e0 f8             	and    $0xfffffff8,%eax
 804db82:	62 f2 7d 08 7c c0    	vpbroadcastd %eax,%xmm0
 804db88:	c5 e9 ef d2          	vpxor  %xmm2,%xmm2,%xmm2
 804db8c:	b9 80 fc ff ff       	mov    $0xfffffc80,%ecx
 804db91:	c5 f1 ef c9          	vpxor  %xmm1,%xmm1,%xmm1
 804db95:	66 66 2e 0f 1f 84 00 	data16 nopw %cs:0x0(%eax,%eax,1)
 804db9c:	00 00 00 00 
 804dba0:	c5 fa 6f 99 8c 33 06 	vmovdqu 0x806338c(%ecx),%xmm3
 804dba7:	08 
 804dba8:	c5 fa 6f a1 9c 33 06 	vmovdqu 0x806339c(%ecx),%xmm4
 804dbaf:	08 
 804dbb0:	c5 fc 46 c8          	kxnorw %k0,%k0,%k1
 804dbb4:	62 f2 fd 29 90 2c 1d 	vpgatherdq 0x8061008(,%xmm3,1),%ymm5{%k1}
 804dbbb:	08 10 06 08 
 804dbbf:	c5 fc 46 c8          	kxnorw %k0,%k0,%k1
 804dbc3:	62 f2 fd 29 90 34 25 	vpgatherdq 0x8061008(,%xmm4,1),%ymm6{%k1}
 804dbca:	08 10 06 08 
 804dbce:	62 f1 7d 08 76 cb    	vpcmpeqd %xmm3,%xmm0,%k1
 804dbd4:	62 f1 7d 08 76 d4    	vpcmpeqd %xmm4,%xmm0,%k2
 804dbda:	62 f1 fd a9 6f dd    	vmovdqa64 %ymm5,%ymm3{%k1}{z}
 804dbe0:	c5 e5 d4 d2          	vpaddq %ymm2,%ymm3,%ymm2
 804dbe4:	62 f1 fd aa 6f de    	vmovdqa64 %ymm6,%ymm3{%k2}{z}
 804dbea:	c5 fa 6f a1 ac 33 06 	vmovdqu 0x80633ac(%ecx),%xmm4
 804dbf1:	08 
 804dbf2:	c5 fa 6f a9 bc 33 06 	vmovdqu 0x80633bc(%ecx),%xmm5
 804dbf9:	08 
 804dbfa:	c5 fc 46 c8          	kxnorw %k0,%k0,%k1
 804dbfe:	62 f2 fd 29 90 34 25 	vpgatherdq 0x8061008(,%xmm4,1),%ymm6{%k1}
 804dc05:	08 10 06 08 
 804dc09:	c5 fc 46 c8          	kxnorw %k0,%k0,%k1
 804dc0d:	62 f2 fd 29 90 3c 2d 	vpgatherdq 0x8061008(,%xmm5,1),%ymm7{%k1}
 804dc14:	08 10 06 08 
 804dc18:	c5 e5 d4 d9          	vpaddq %ymm1,%ymm3,%ymm3
 804dc1c:	62 f1 7d 08 76 cc    	vpcmpeqd %xmm4,%xmm0,%k1
 804dc22:	62 f1 7d 08 76 d5    	vpcmpeqd %xmm5,%xmm0,%k2
 804dc28:	c5 fa 6f 89 cc 33 06 	vmovdqu 0x80633cc(%ecx),%xmm1
 804dc2f:	08 
 804dc30:	c5 fc 46 d8          	kxnorw %k0,%k0,%k3
 804dc34:	62 f1 7d 08 76 e1    	vpcmpeqd %xmm1,%xmm0,%k4
 804dc3a:	62 f2 fd 2b 90 24 0d 	vpgatherdq 0x8061008(,%xmm1,1),%ymm4{%k3}
 804dc41:	08 10 06 08 
 804dc45:	62 f1 fd a9 6f ce    	vmovdqa64 %ymm6,%ymm1{%k1}{z}
 804dc4b:	62 f1 fd ac 6f e4    	vmovdqa64 %ymm4,%ymm4{%k4}{z}
 804dc51:	c5 f5 d4 cc          	vpaddq %ymm4,%ymm1,%ymm1
 804dc55:	c5 fa 6f a1 dc 33 06 	vmovdqu 0x80633dc(%ecx),%xmm4
 804dc5c:	08 
 804dc5d:	c5 fc 46 c8          	kxnorw %k0,%k0,%k1
 804dc61:	62 f1 7d 08 76 dc    	vpcmpeqd %xmm4,%xmm0,%k3
 804dc67:	62 f2 fd 29 90 2c 25 	vpgatherdq 0x8061008(,%xmm4,1),%ymm5{%k1}
 804dc6e:	08 10 06 08 
 804dc72:	c5 ed d4 c9          	vpaddq %ymm1,%ymm2,%ymm1
 804dc76:	62 f1 fd aa 6f d7    	vmovdqa64 %ymm7,%ymm2{%k2}{z}
 804dc7c:	62 f1 fd ab 6f e5    	vmovdqa64 %ymm5,%ymm4{%k3}{z}
 804dc82:	c5 ed d4 d4          	vpaddq %ymm4,%ymm2,%ymm2
 804dc86:	c5 e5 d4 da          	vpaddq %ymm2,%ymm3,%ymm3
 804dc8a:	85 c9                	test   %ecx,%ecx
 804dc8c:	74 56                	je     804dce4 <main+0x4ac4>
 804dc8e:	c5 fa 6f 91 ec 33 06 	vmovdqu 0x80633ec(%ecx),%xmm2
 804dc95:	08 
 804dc96:	c5 fa 6f a1 fc 33 06 	vmovdqu 0x80633fc(%ecx),%xmm4
 804dc9d:	08 
 804dc9e:	c5 fc 46 c8          	kxnorw %k0,%k0,%k1
 804dca2:	62 f2 fd 29 90 2c 15 	vpgatherdq 0x8061008(,%xmm2,1),%ymm5{%k1}
 804dca9:	08 10 06 08 
 804dcad:	c5 fc 46 c8          	kxnorw %k0,%k0,%k1
 804dcb1:	62 f2 fd 29 90 34 25 	vpgatherdq 0x8061008(,%xmm4,1),%ymm6{%k1}
 804dcb8:	08 10 06 08 
 804dcbc:	62 f1 7d 08 76 ca    	vpcmpeqd %xmm2,%xmm0,%k1
 804dcc2:	62 f1 7d 08 76 d4    	vpcmpeqd %xmm4,%xmm0,%k2
 804dcc8:	62 f1 fd a9 6f d5    	vmovdqa64 %ymm5,%ymm2{%k1}{z}
 804dcce:	62 f1 fd aa 6f e6    	vmovdqa64 %ymm6,%ymm4{%k2}{z}
 804dcd4:	c5 ed d4 d1          	vpaddq %ymm1,%ymm2,%ymm2
 804dcd8:	c5 dd d4 cb          	vpaddq %ymm3,%ymm4,%ymm1
 804dcdc:	83 e9 80             	sub    $0xffffff80,%ecx
 804dcdf:	e9 bc fe ff ff       	jmp    804dba0 <main+0x4980>
 804dce4:	c5 e5 d4 c1          	vpaddq %ymm1,%ymm3,%ymm0
 804dce8:	c4 e3 7d 39 c1 01    	vextracti128 $0x1,%ymm0,%xmm1
 804dcee:	c5 f9 d4 c1          	vpaddq %xmm1,%xmm0,%xmm0
 804dcf2:	c5 f9 70 c8 ee       	vpshufd $0xee,%xmm0,%xmm1
 804dcf7:	c5 f9 d4 c1          	vpaddq %xmm1,%xmm0,%xmm0
 804dcfb:	c4 e3 79 16 c1 01    	vpextrd $0x1,%xmm0,%ecx
 804dd01:	c5 f9 7e c2          	vmovd  %xmm0,%edx
 804dd05:	31 ed                	xor    %ebp,%ebp
 804dd07:	3d c8 07 00 00       	cmp    $0x7c8,%eax
 804dd0c:	be 00 00 00 00       	mov    $0x0,%esi
 804dd11:	bf 49 82 79 eb       	mov    $0xeb798249,%edi
 804dd16:	0f 44 f7             	cmove  %edi,%esi
 804dd19:	bf 00 00 00 00       	mov    $0x0,%edi
 804dd1e:	bb 10 b2 fb a2       	mov    $0xa2fbb210,%ebx
 804dd23:	0f 44 fb             	cmove  %ebx,%edi
 804dd26:	01 d7                	add    %edx,%edi
 804dd28:	11 ce                	adc    %ecx,%esi
 804dd2a:	3d d0 07 00 00       	cmp    $0x7d0,%eax
 804dd2f:	b9 00 00 00 00       	mov    $0x0,%ecx
 804dd34:	ba a7 e9 74 27       	mov    $0x2774e9a7,%edx
 804dd39:	0f 44 ca             	cmove  %edx,%ecx
 804dd3c:	ba 00 00 00 00       	mov    $0x0,%edx
 804dd41:	bb ba 3a 9d 80       	mov    $0x809d3aba,%ebx
 804dd46:	0f 44 d3             	cmove  %ebx,%edx
 804dd49:	01 fa                	add    %edi,%edx
 804dd4b:	11 f1                	adc    %esi,%ecx
 804dd4d:	3d d8 07 00 00       	cmp    $0x7d8,%eax
 804dd52:	be 00 00 00 00       	mov    $0x0,%esi
 804dd57:	bf f0 93 42 bf       	mov    $0xbf4293f0,%edi
 804dd5c:	0f 44 f7             	cmove  %edi,%esi
 804dd5f:	bf 00 00 00 00       	mov    $0x0,%edi
 804dd64:	bb 6e 21 d1 4f       	mov    $0x4fd1216e,%ebx
 804dd69:	0f 44 fb             	cmove  %ebx,%edi
 804dd6c:	01 d7                	add    %edx,%edi
 804dd6e:	11 ce                	adc    %ecx,%esi
 804dd70:	3d e0 07 00 00       	cmp    $0x7e0,%eax
 804dd75:	b9 00 00 00 00       	mov    $0x0,%ecx
 804dd7a:	ba 5d d9 f8 42       	mov    $0x42f8d95d,%edx
 804dd7f:	0f 44 ca             	cmove  %edx,%ecx
 804dd82:	ba 00 00 00 00       	mov    $0x0,%edx
 804dd87:	bb 63 7c 21 1f       	mov    $0x1f217c63,%ebx
 804dd8c:	0f 44 d3             	cmove  %ebx,%edx
 804dd8f:	01 fa                	add    %edi,%edx
 804dd91:	11 f1                	adc    %esi,%ecx
 804dd93:	3d e8 07 00 00       	cmp    $0x7e8,%eax
 804dd98:	be 00 00 00 00       	mov    $0x0,%esi
 804dd9d:	bf 4c 5d 1e 86       	mov    $0x861e5d4c,%edi
 804dda2:	0f 44 f7             	cmove  %edi,%esi
 804dda5:	bf 00 00 00 00       	mov    $0x0,%edi
 804ddaa:	bb c5 0f 43 ca       	mov    $0xca430fc5,%ebx
 804ddaf:	0f 44 fb             	cmove  %ebx,%edi
 804ddb2:	01 d7                	add    %edx,%edi
 804ddb4:	11 ce                	adc    %ecx,%esi
 804ddb6:	3d f0 07 00 00       	cmp    $0x7f0,%eax
 804ddbb:	b9 00 00 00 00       	mov    $0x0,%ecx
 804ddc0:	ba 71 da 39 db       	mov    $0xdb39da71,%edx
 804ddc5:	0f 44 ca             	cmove  %edx,%ecx
 804ddc8:	ba 00 00 00 00       	mov    $0x0,%edx
 804ddcd:	bb 38 92 e3 aa       	mov    $0xaae39238,%ebx
 804ddd2:	0f 44 d3             	cmove  %ebx,%edx
 804ddd5:	01 fa                	add    %edi,%edx
 804ddd7:	11 f1                	adc    %esi,%ecx
 804ddd9:	3d f8 07 00 00       	cmp    $0x7f8,%eax
 804ddde:	be 00 00 00 00       	mov    $0x0,%esi
 804dde3:	b8 d3 ec 2a 91       	mov    $0x912aecd3,%eax
 804dde8:	0f 44 f0             	cmove  %eax,%esi
 804ddeb:	b8 57 15 c6 42       	mov    $0x42c61557,%eax
 804ddf0:	0f 44 e8             	cmove  %eax,%ebp
 804ddf3:	01 d5                	add    %edx,%ebp
 804ddf5:	89 ac 24 80 01 00 00 	mov    %ebp,0x180(%esp)
 804ddfc:	11 ce                	adc    %ecx,%esi
 804ddfe:	89 b4 24 c0 01 00 00 	mov    %esi,0x1c0(%esp)
 804de05:	8b 4c 24 20          	mov    0x20(%esp),%ecx
 804de09:	c1 e9 0d             	shr    $0xd,%ecx
 804de0c:	81 e1 f8 07 00 00    	and    $0x7f8,%ecx
 804de12:	62 f2 7d 08 7c c1    	vpbroadcastd %ecx,%xmm0
 804de18:	c5 e9 ef d2          	vpxor  %xmm2,%xmm2,%xmm2
 804de1c:	b8 80 fc ff ff       	mov    $0xfffffc80,%eax
 804de21:	c5 f1 ef c9          	vpxor  %xmm1,%xmm1,%xmm1
 804de25:	66 66 2e 0f 1f 84 00 	data16 nopw %cs:0x0(%eax,%eax,1)
 804de2c:	00 00 00 00 
 804de30:	c5 fa 6f 98 8c 33 06 	vmovdqu 0x806338c(%eax),%xmm3
 804de37:	08 
 804de38:	c5 fa 6f a0 9c 33 06 	vmovdqu 0x806339c(%eax),%xmm4
 804de3f:	08 
 804de40:	c5 fc 46 c8          	kxnorw %k0,%k0,%k1
 804de44:	62 f2 fd 29 90 2c 1d 	vpgatherdq 0x8061808(,%xmm3,1),%ymm5{%k1}
 804de4b:	08 18 06 08 
 804de4f:	c5 fc 46 c8          	kxnorw %k0,%k0,%k1
 804de53:	62 f2 fd 29 90 34 25 	vpgatherdq 0x8061808(,%xmm4,1),%ymm6{%k1}
 804de5a:	08 18 06 08 
 804de5e:	62 f1 7d 08 76 cb    	vpcmpeqd %xmm3,%xmm0,%k1
 804de64:	62 f1 7d 08 76 d4    	vpcmpeqd %xmm4,%xmm0,%k2
 804de6a:	62 f1 fd a9 6f dd    	vmovdqa64 %ymm5,%ymm3{%k1}{z}
 804de70:	c5 e5 d4 d2          	vpaddq %ymm2,%ymm3,%ymm2
 804de74:	62 f1 fd aa 6f de    	vmovdqa64 %ymm6,%ymm3{%k2}{z}
 804de7a:	c5 fa 6f a0 ac 33 06 	vmovdqu 0x80633ac(%eax),%xmm4
 804de81:	08 
 804de82:	c5 fa 6f a8 bc 33 06 	vmovdqu 0x80633bc(%eax),%xmm5
 804de89:	08 
 804de8a:	c5 fc 46 c8          	kxnorw %k0,%k0,%k1
 804de8e:	62 f2 fd 29 90 34 25 	vpgatherdq 0x8061808(,%xmm4,1),%ymm6{%k1}
 804de95:	08 18 06 08 
 804de99:	c5 fc 46 c8          	kxnorw %k0,%k0,%k1
 804de9d:	62 f2 fd 29 90 3c 2d 	vpgatherdq 0x8061808(,%xmm5,1),%ymm7{%k1}
 804dea4:	08 18 06 08 
 804dea8:	c5 e5 d4 d9          	vpaddq %ymm1,%ymm3,%ymm3
 804deac:	62 f1 7d 08 76 cc    	vpcmpeqd %xmm4,%xmm0,%k1
 804deb2:	62 f1 7d 08 76 d5    	vpcmpeqd %xmm5,%xmm0,%k2
 804deb8:	c5 fa 6f 88 cc 33 06 	vmovdqu 0x80633cc(%eax),%xmm1
 804debf:	08 
 804dec0:	c5 fc 46 d8          	kxnorw %k0,%k0,%k3
 804dec4:	62 f1 7d 08 76 e1    	vpcmpeqd %xmm1,%xmm0,%k4
 804deca:	62 f2 fd 2b 90 24 0d 	vpgatherdq 0x8061808(,%xmm1,1),%ymm4{%k3}
 804ded1:	08 18 06 08 
 804ded5:	62 f1 fd a9 6f ce    	vmovdqa64 %ymm6,%ymm1{%k1}{z}
 804dedb:	62 f1 fd ac 6f e4    	vmovdqa64 %ymm4,%ymm4{%k4}{z}
 804dee1:	c5 f5 d4 cc          	vpaddq %ymm4,%ymm1,%ymm1
 804dee5:	c5 fa 6f a0 dc 33 06 	vmovdqu 0x80633dc(%eax),%xmm4
 804deec:	08 
 804deed:	c5 fc 46 c8          	kxnorw %k0,%k0,%k1
 804def1:	62 f1 7d 08 76 dc    	vpcmpeqd %xmm4,%xmm0,%k3
 804def7:	62 f2 fd 29 90 2c 25 	vpgatherdq 0x8061808(,%xmm4,1),%ymm5{%k1}
 804defe:	08 18 06 08 
 804df02:	c5 ed d4 c9          	vpaddq %ymm1,%ymm2,%ymm1
 804df06:	62 f1 fd aa 6f d7    	vmovdqa64 %ymm7,%ymm2{%k2}{z}
 804df0c:	62 f1 fd ab 6f e5    	vmovdqa64 %ymm5,%ymm4{%k3}{z}
 804df12:	c5 ed d4 d4          	vpaddq %ymm4,%ymm2,%ymm2
 804df16:	c5 e5 d4 da          	vpaddq %ymm2,%ymm3,%ymm3
 804df1a:	85 c0                	test   %eax,%eax
 804df1c:	74 56                	je     804df74 <main+0x4d54>
 804df1e:	c5 fa 6f 90 ec 33 06 	vmovdqu 0x80633ec(%eax),%xmm2
 804df25:	08 
 804df26:	c5 fa 6f a0 fc 33 06 	vmovdqu 0x80633fc(%eax),%xmm4
 804df2d:	08 
 804df2e:	c5 fc 46 c8          	kxnorw %k0,%k0,%k1
 804df32:	62 f2 fd 29 90 2c 15 	vpgatherdq 0x8061808(,%xmm2,1),%ymm5{%k1}
 804df39:	08 18 06 08 
 804df3d:	c5 fc 46 c8          	kxnorw %k0,%k0,%k1
 804df41:	62 f2 fd 29 90 34 25 	vpgatherdq 0x8061808(,%xmm4,1),%ymm6{%k1}
 804df48:	08 18 06 08 
 804df4c:	62 f1 7d 08 76 ca    	vpcmpeqd %xmm2,%xmm0,%k1
 804df52:	62 f1 7d 08 76 d4    	vpcmpeqd %xmm4,%xmm0,%k2
 804df58:	62 f1 fd a9 6f d5    	vmovdqa64 %ymm5,%ymm2{%k1}{z}
 804df5e:	62 f1 fd aa 6f e6    	vmovdqa64 %ymm6,%ymm4{%k2}{z}
 804df64:	c5 ed d4 d1          	vpaddq %ymm1,%ymm2,%ymm2
 804df68:	c5 dd d4 cb          	vpaddq %ymm3,%ymm4,%ymm1
 804df6c:	83 e8 80             	sub    $0xffffff80,%eax
 804df6f:	e9 bc fe ff ff       	jmp    804de30 <main+0x4c10>
 804df74:	c5 e5 d4 c1          	vpaddq %ymm1,%ymm3,%ymm0
 804df78:	c4 e3 7d 39 c1 01    	vextracti128 $0x1,%ymm0,%xmm1
 804df7e:	c5 f9 d4 c1          	vpaddq %xmm1,%xmm0,%xmm0
 804df82:	c5 f9 70 c8 ee       	vpshufd $0xee,%xmm0,%xmm1
 804df87:	c5 f9 d4 c1          	vpaddq %xmm1,%xmm0,%xmm0
 804df8b:	c4 e3 79 16 c2 01    	vpextrd $0x1,%xmm0,%edx
 804df91:	c5 f9 7e c6          	vmovd  %xmm0,%esi
 804df95:	31 db                	xor    %ebx,%ebx
 804df97:	81 f9 c8 07 00 00    	cmp    $0x7c8,%ecx
 804df9d:	bf 00 00 00 00       	mov    $0x0,%edi
 804dfa2:	b8 82 49 eb 79       	mov    $0x79eb4982,%eax
 804dfa7:	0f 44 f8             	cmove  %eax,%edi
 804dfaa:	bd 00 00 00 00       	mov    $0x0,%ebp
 804dfaf:	b8 b2 10 a2 fb       	mov    $0xfba210b2,%eax
 804dfb4:	0f 44 e8             	cmove  %eax,%ebp
 804dfb7:	01 f5                	add    %esi,%ebp
 804dfb9:	11 d7                	adc    %edx,%edi
 804dfbb:	81 f9 d0 07 00 00    	cmp    $0x7d0,%ecx
 804dfc1:	ba 00 00 00 00       	mov    $0x0,%edx
 804dfc6:	b8 e9 a7 27 74       	mov    $0x7427a7e9,%eax
 804dfcb:	0f 44 d0             	cmove  %eax,%edx
 804dfce:	be 00 00 00 00       	mov    $0x0,%esi
 804dfd3:	b8 3a ba 80 9d       	mov    $0x9d80ba3a,%eax
 804dfd8:	0f 44 f0             	cmove  %eax,%esi
 804dfdb:	01 ee                	add    %ebp,%esi
 804dfdd:	11 fa                	adc    %edi,%edx
 804dfdf:	81 f9 d8 07 00 00    	cmp    $0x7d8,%ecx
 804dfe5:	bf 00 00 00 00       	mov    $0x0,%edi
 804dfea:	b8 93 f0 bf 42       	mov    $0x42bff093,%eax
 804dfef:	0f 44 f8             	cmove  %eax,%edi
 804dff2:	bd 00 00 00 00       	mov    $0x0,%ebp
 804dff7:	b8 21 6e 4f d1       	mov    $0xd14f6e21,%eax
 804dffc:	0f 44 e8             	cmove  %eax,%ebp
 804dfff:	01 f5                	add    %esi,%ebp
 804e001:	11 d7                	adc    %edx,%edi
 804e003:	81 f9 e0 07 00 00    	cmp    $0x7e0,%ecx
 804e009:	ba 00 00 00 00       	mov    $0x0,%edx
 804e00e:	b8 d9 5d 42 f8       	mov    $0xf8425dd9,%eax
 804e013:	0f 44 d0             	cmove  %eax,%edx
 804e016:	be 00 00 00 00       	mov    $0x0,%esi
 804e01b:	b8 7c 63 1f 21       	mov    $0x211f637c,%eax
 804e020:	0f 44 f0             	cmove  %eax,%esi
 804e023:	01 ee                	add    %ebp,%esi
 804e025:	11 fa                	adc    %edi,%edx
 804e027:	81 f9 e8 07 00 00    	cmp    $0x7e8,%ecx
 804e02d:	bf 00 00 00 00       	mov    $0x0,%edi
 804e032:	b8 5d 4c 86 1e       	mov    $0x1e864c5d,%eax
 804e037:	0f 44 f8             	cmove  %eax,%edi
 804e03a:	bd 00 00 00 00       	mov    $0x0,%ebp
 804e03f:	b8 0f c5 ca 43       	mov    $0x43cac50f,%eax
 804e044:	0f 44 e8             	cmove  %eax,%ebp
 804e047:	01 f5                	add    %esi,%ebp
 804e049:	11 d7                	adc    %edx,%edi
 804e04b:	81 f9 f0 07 00 00    	cmp    $0x7f0,%ecx
 804e051:	ba 00 00 00 00       	mov    $0x0,%edx
 804e056:	b8 da 71 db 39       	mov    $0x39db71da,%eax
 804e05b:	0f 44 d0             	cmove  %eax,%edx
 804e05e:	be 00 00 00 00       	mov    $0x0,%esi
 804e063:	b8 92 38 aa e3       	mov    $0xe3aa3892,%eax
 804e068:	0f 44 f0             	cmove  %eax,%esi
 804e06b:	01 ee                	add    %ebp,%esi
 804e06d:	11 fa                	adc    %edi,%edx
 804e06f:	81 f9 f8 07 00 00    	cmp    $0x7f8,%ecx
 804e075:	b9 00 00 00 00       	mov    $0x0,%ecx
 804e07a:	b8 ec d3 91 2a       	mov    $0x2a91d3ec,%eax
 804e07f:	0f 44 c8             	cmove  %eax,%ecx
 804e082:	b8 15 57 42 c6       	mov    $0xc6425715,%eax
 804e087:	0f 44 d8             	cmove  %eax,%ebx
 804e08a:	01 f3                	add    %esi,%ebx
 804e08c:	89 5c 24 1c          	mov    %ebx,0x1c(%esp)
 804e090:	11 d1                	adc    %edx,%ecx
 804e092:	89 8c 24 a0 01 00 00 	mov    %ecx,0x1a0(%esp)
 804e099:	8b 74 24 20          	mov    0x20(%esp),%esi
 804e09d:	c1 ee 05             	shr    $0x5,%esi
 804e0a0:	81 e6 f8 07 00 00    	and    $0x7f8,%esi
 804e0a6:	62 f2 7d 08 7c c6    	vpbroadcastd %esi,%xmm0
 804e0ac:	c5 e9 ef d2          	vpxor  %xmm2,%xmm2,%xmm2
 804e0b0:	ba 80 fc ff ff       	mov    $0xfffffc80,%edx
 804e0b5:	c5 f1 ef c9          	vpxor  %xmm1,%xmm1,%xmm1
 804e0b9:	0f 1f 80 00 00 00 00 	nopl   0x0(%eax)
 804e0c0:	c5 fa 6f 9a 8c 33 06 	vmovdqu 0x806338c(%edx),%xmm3
 804e0c7:	08 
 804e0c8:	c5 fa 6f a2 9c 33 06 	vmovdqu 0x806339c(%edx),%xmm4
 804e0cf:	08 
 804e0d0:	c5 fc 46 c8          	kxnorw %k0,%k0,%k1
 804e0d4:	62 f2 fd 29 90 2c 1d 	vpgatherdq 0x8062008(,%xmm3,1),%ymm5{%k1}
 804e0db:	08 20 06 08 
 804e0df:	c5 fc 46 c8          	kxnorw %k0,%k0,%k1
 804e0e3:	62 f2 fd 29 90 34 25 	vpgatherdq 0x8062008(,%xmm4,1),%ymm6{%k1}
 804e0ea:	08 20 06 08 
 804e0ee:	62 f1 7d 08 76 cb    	vpcmpeqd %xmm3,%xmm0,%k1
 804e0f4:	62 f1 7d 08 76 d4    	vpcmpeqd %xmm4,%xmm0,%k2
 804e0fa:	62 f1 fd a9 6f dd    	vmovdqa64 %ymm5,%ymm3{%k1}{z}
 804e100:	c5 e5 d4 d2          	vpaddq %ymm2,%ymm3,%ymm2
 804e104:	62 f1 fd aa 6f de    	vmovdqa64 %ymm6,%ymm3{%k2}{z}
 804e10a:	c5 fa 6f a2 ac 33 06 	vmovdqu 0x80633ac(%edx),%xmm4
 804e111:	08 
 804e112:	c5 fa 6f aa bc 33 06 	vmovdqu 0x80633bc(%edx),%xmm5
 804e119:	08 
 804e11a:	c5 fc 46 c8          	kxnorw %k0,%k0,%k1
 804e11e:	62 f2 fd 29 90 34 25 	vpgatherdq 0x8062008(,%xmm4,1),%ymm6{%k1}
 804e125:	08 20 06 08 
 804e129:	c5 fc 46 c8          	kxnorw %k0,%k0,%k1
 804e12d:	62 f2 fd 29 90 3c 2d 	vpgatherdq 0x8062008(,%xmm5,1),%ymm7{%k1}
 804e134:	08 20 06 08 
 804e138:	c5 e5 d4 d9          	vpaddq %ymm1,%ymm3,%ymm3
 804e13c:	62 f1 7d 08 76 cc    	vpcmpeqd %xmm4,%xmm0,%k1
 804e142:	62 f1 7d 08 76 d5    	vpcmpeqd %xmm5,%xmm0,%k2
 804e148:	c5 fa 6f 8a cc 33 06 	vmovdqu 0x80633cc(%edx),%xmm1
 804e14f:	08 
 804e150:	c5 fc 46 d8          	kxnorw %k0,%k0,%k3
 804e154:	62 f1 7d 08 76 e1    	vpcmpeqd %xmm1,%xmm0,%k4
 804e15a:	62 f2 fd 2b 90 24 0d 	vpgatherdq 0x8062008(,%xmm1,1),%ymm4{%k3}
 804e161:	08 20 06 08 
 804e165:	62 f1 fd a9 6f ce    	vmovdqa64 %ymm6,%ymm1{%k1}{z}
 804e16b:	62 f1 fd ac 6f e4    	vmovdqa64 %ymm4,%ymm4{%k4}{z}
 804e171:	c5 f5 d4 cc          	vpaddq %ymm4,%ymm1,%ymm1
 804e175:	c5 fa 6f a2 dc 33 06 	vmovdqu 0x80633dc(%edx),%xmm4
 804e17c:	08 
 804e17d:	c5 fc 46 c8          	kxnorw %k0,%k0,%k1
 804e181:	62 f1 7d 08 76 dc    	vpcmpeqd %xmm4,%xmm0,%k3
 804e187:	62 f2 fd 29 90 2c 25 	vpgatherdq 0x8062008(,%xmm4,1),%ymm5{%k1}
 804e18e:	08 20 06 08 
 804e192:	c5 ed d4 c9          	vpaddq %ymm1,%ymm2,%ymm1
 804e196:	62 f1 fd aa 6f d7    	vmovdqa64 %ymm7,%ymm2{%k2}{z}
 804e19c:	62 f1 fd ab 6f e5    	vmovdqa64 %ymm5,%ymm4{%k3}{z}
 804e1a2:	c5 ed d4 d4          	vpaddq %ymm4,%ymm2,%ymm2
 804e1a6:	c5 e5 d4 da          	vpaddq %ymm2,%ymm3,%ymm3
 804e1aa:	85 d2                	test   %edx,%edx
 804e1ac:	74 56                	je     804e204 <main+0x4fe4>
 804e1ae:	c5 fa 6f 92 ec 33 06 	vmovdqu 0x80633ec(%edx),%xmm2
 804e1b5:	08 
 804e1b6:	c5 fa 6f a2 fc 33 06 	vmovdqu 0x80633fc(%edx),%xmm4
 804e1bd:	08 
 804e1be:	c5 fc 46 c8          	kxnorw %k0,%k0,%k1
 804e1c2:	62 f2 fd 29 90 2c 15 	vpgatherdq 0x8062008(,%xmm2,1),%ymm5{%k1}
 804e1c9:	08 20 06 08 
 804e1cd:	c5 fc 46 c8          	kxnorw %k0,%k0,%k1
 804e1d1:	62 f2 fd 29 90 34 25 	vpgatherdq 0x8062008(,%xmm4,1),%ymm6{%k1}
 804e1d8:	08 20 06 08 
 804e1dc:	62 f1 7d 08 76 ca    	vpcmpeqd %xmm2,%xmm0,%k1
 804e1e2:	62 f1 7d 08 76 d4    	vpcmpeqd %xmm4,%xmm0,%k2
 804e1e8:	62 f1 fd a9 6f d5    	vmovdqa64 %ymm5,%ymm2{%k1}{z}
 804e1ee:	62 f1 fd aa 6f e6    	vmovdqa64 %ymm6,%ymm4{%k2}{z}
 804e1f4:	c5 ed d4 d1          	vpaddq %ymm1,%ymm2,%ymm2
 804e1f8:	c5 dd d4 cb          	vpaddq %ymm3,%ymm4,%ymm1
 804e1fc:	83 ea 80             	sub    $0xffffff80,%edx
 804e1ff:	e9 bc fe ff ff       	jmp    804e0c0 <main+0x4ea0>
 804e204:	c5 e5 d4 c1          	vpaddq %ymm1,%ymm3,%ymm0
 804e208:	c4 e3 7d 39 c1 01    	vextracti128 $0x1,%ymm0,%xmm1
 804e20e:	c5 f9 d4 c1          	vpaddq %xmm1,%xmm0,%xmm0
 804e212:	c5 f9 70 c8 ee       	vpshufd $0xee,%xmm0,%xmm1
 804e217:	c5 f9 d4 c1          	vpaddq %xmm1,%xmm0,%xmm0
 804e21b:	c4 e3 79 16 c7 01    	vpextrd $0x1,%xmm0,%edi
 804e221:	c5 f9 7e c5          	vmovd  %xmm0,%ebp
 804e225:	81 fe c8 07 00 00    	cmp    $0x7c8,%esi
 804e22b:	bb 00 00 00 00       	mov    $0x0,%ebx
 804e230:	b8 79 eb 49 82       	mov    $0x8249eb79,%eax
 804e235:	0f 44 d8             	cmove  %eax,%ebx
 804e238:	b8 00 00 00 00       	mov    $0x0,%eax
 804e23d:	b9 fb a2 10 b2       	mov    $0xb210a2fb,%ecx
 804e242:	0f 44 c1             	cmove  %ecx,%eax
 804e245:	01 e8                	add    %ebp,%eax
 804e247:	11 fb                	adc    %edi,%ebx
 804e249:	81 fe d0 07 00 00    	cmp    $0x7d0,%esi
 804e24f:	bf 00 00 00 00       	mov    $0x0,%edi
 804e254:	b9 74 27 a7 e9       	mov    $0xe9a72774,%ecx
 804e259:	0f 44 f9             	cmove  %ecx,%edi
 804e25c:	bd 00 00 00 00       	mov    $0x0,%ebp
 804e261:	b9 9d 80 ba 3a       	mov    $0x3aba809d,%ecx
 804e266:	0f 44 e9             	cmove  %ecx,%ebp
 804e269:	01 c5                	add    %eax,%ebp
 804e26b:	11 df                	adc    %ebx,%edi
 804e26d:	81 fe d8 07 00 00    	cmp    $0x7d8,%esi
 804e273:	b8 00 00 00 00       	mov    $0x0,%eax
 804e278:	b9 42 bf f0 93       	mov    $0x93f0bf42,%ecx
 804e27d:	0f 44 c1             	cmove  %ecx,%eax
 804e280:	bb 00 00 00 00       	mov    $0x0,%ebx
 804e285:	b9 d1 4f 6e 21       	mov    $0x216e4fd1,%ecx
 804e28a:	0f 44 d9             	cmove  %ecx,%ebx
 804e28d:	01 eb                	add    %ebp,%ebx
 804e28f:	11 f8                	adc    %edi,%eax
 804e291:	81 fe e0 07 00 00    	cmp    $0x7e0,%esi
 804e297:	bf 00 00 00 00       	mov    $0x0,%edi
 804e29c:	b9 f8 42 5d d9       	mov    $0xd95d42f8,%ecx
 804e2a1:	0f 44 f9             	cmove  %ecx,%edi
 804e2a4:	bd 00 00 00 00       	mov    $0x0,%ebp
 804e2a9:	b9 21 1f 63 7c       	mov    $0x7c631f21,%ecx
 804e2ae:	0f 44 e9             	cmove  %ecx,%ebp
 804e2b1:	01 dd                	add    %ebx,%ebp
 804e2b3:	11 c7                	adc    %eax,%edi
 804e2b5:	81 fe e8 07 00 00    	cmp    $0x7e8,%esi
 804e2bb:	b8 00 00 00 00       	mov    $0x0,%eax
 804e2c0:	b9 1e 86 4c 5d       	mov    $0x5d4c861e,%ecx
 804e2c5:	0f 44 c1             	cmove  %ecx,%eax
 804e2c8:	bb 00 00 00 00       	mov    $0x0,%ebx
 804e2cd:	b9 43 ca c5 0f       	mov    $0xfc5ca43,%ecx
 804e2d2:	0f 44 d9             	cmove  %ecx,%ebx
 804e2d5:	01 eb                	add    %ebp,%ebx
 804e2d7:	11 f8                	adc    %edi,%eax
 804e2d9:	81 fe f0 07 00 00    	cmp    $0x7f0,%esi
 804e2df:	bd 00 00 00 00       	mov    $0x0,%ebp
 804e2e4:	b9 39 db 71 da       	mov    $0xda71db39,%ecx
 804e2e9:	0f 44 e9             	cmove  %ecx,%ebp
 804e2ec:	b9 00 00 00 00       	mov    $0x0,%ecx
 804e2f1:	ba e3 aa 38 92       	mov    $0x9238aae3,%edx
 804e2f6:	0f 44 ca             	cmove  %edx,%ecx
 804e2f9:	01 d9                	add    %ebx,%ecx
 804e2fb:	11 c5                	adc    %eax,%ebp
 804e2fd:	81 fe f8 07 00 00    	cmp    $0x7f8,%esi
 804e303:	ba 00 00 00 00       	mov    $0x0,%edx
 804e308:	b8 2a 91 d3 ec       	mov    $0xecd3912a,%eax
 804e30d:	0f 44 d0             	cmove  %eax,%edx
 804e310:	b8 c6 42 57 15       	mov    $0x155742c6,%eax
 804e315:	be 00 00 00 00       	mov    $0x0,%esi
 804e31a:	0f 44 f0             	cmove  %eax,%esi
 804e31d:	01 ce                	add    %ecx,%esi
 804e31f:	89 b4 24 e0 01 00 00 	mov    %esi,0x1e0(%esp)
