
mitigated:     file format elf64-x86-64


Disassembly of section .init:

0000000000401000 <_init>:
  401000:	f3 0f 1e fa          	endbr64 
  401004:	48 83 ec 08          	sub    $0x8,%rsp
  401008:	48 8b 05 e9 ff 00 00 	mov    0xffe9(%rip),%rax        # 410ff8 <__gmon_start__>
  40100f:	48 85 c0             	test   %rax,%rax
  401012:	74 02                	je     401016 <_init+0x16>
  401014:	ff d0                	callq  *%rax
  401016:	48 83 c4 08          	add    $0x8,%rsp
  40101a:	c3                   	retq   

Disassembly of section .plt:

0000000000401020 <.plt>:
  401020:	ff 35 e2 ff 00 00    	pushq  0xffe2(%rip)        # 411008 <_GLOBAL_OFFSET_TABLE_+0x8>
  401026:	ff 25 e4 ff 00 00    	jmpq   *0xffe4(%rip)        # 411010 <_GLOBAL_OFFSET_TABLE_+0x10>
  40102c:	0f 1f 40 00          	nopl   0x0(%rax)

0000000000401030 <write@plt>:
  401030:	ff 25 e2 ff 00 00    	jmpq   *0xffe2(%rip)        # 411018 <write@GLIBC_2.2.5>
  401036:	68 00 00 00 00       	pushq  $0x0
  40103b:	e9 e0 ff ff ff       	jmpq   401020 <.plt>

0000000000401040 <read@plt>:
  401040:	ff 25 da ff 00 00    	jmpq   *0xffda(%rip)        # 411020 <read@GLIBC_2.2.5>
  401046:	68 01 00 00 00       	pushq  $0x1
  40104b:	e9 d0 ff ff ff       	jmpq   401020 <.plt>

Disassembly of section .text:

0000000000401050 <_start>:
  401050:	f3 0f 1e fa          	endbr64 
  401054:	31 ed                	xor    %ebp,%ebp
  401056:	49 89 d1             	mov    %rdx,%r9
  401059:	5e                   	pop    %rsi
  40105a:	48 89 e2             	mov    %rsp,%rdx
  40105d:	48 83 e4 f0          	and    $0xfffffffffffffff0,%rsp
  401061:	50                   	push   %rax
  401062:	54                   	push   %rsp
  401063:	49 c7 c0 50 52 40 00 	mov    $0x405250,%r8
  40106a:	48 c7 c1 e0 51 40 00 	mov    $0x4051e0,%rcx
  401071:	48 c7 c7 80 33 40 00 	mov    $0x403380,%rdi
  401078:	ff 15 72 ff 00 00    	callq  *0xff72(%rip)        # 410ff0 <__libc_start_main@GLIBC_2.2.5>
  40107e:	f4                   	hlt    
  40107f:	90                   	nop

0000000000401080 <_dl_relocate_static_pie>:
  401080:	f3 0f 1e fa          	endbr64 
  401084:	c3                   	retq   
  401085:	66 2e 0f 1f 84 00 00 	nopw   %cs:0x0(%rax,%rax,1)
  40108c:	00 00 00 
  40108f:	90                   	nop

0000000000401090 <deregister_tm_clones>:
  401090:	b8 38 10 41 00       	mov    $0x411038,%eax
  401095:	48 3d 38 10 41 00    	cmp    $0x411038,%rax
  40109b:	74 13                	je     4010b0 <deregister_tm_clones+0x20>
  40109d:	b8 00 00 00 00       	mov    $0x0,%eax
  4010a2:	48 85 c0             	test   %rax,%rax
  4010a5:	74 09                	je     4010b0 <deregister_tm_clones+0x20>
  4010a7:	bf 38 10 41 00       	mov    $0x411038,%edi
  4010ac:	ff e0                	jmpq   *%rax
  4010ae:	66 90                	xchg   %ax,%ax
  4010b0:	c3                   	retq   
  4010b1:	66 66 2e 0f 1f 84 00 	data16 nopw %cs:0x0(%rax,%rax,1)
  4010b8:	00 00 00 00 
  4010bc:	0f 1f 40 00          	nopl   0x0(%rax)

00000000004010c0 <register_tm_clones>:
  4010c0:	be 38 10 41 00       	mov    $0x411038,%esi
  4010c5:	48 81 ee 38 10 41 00 	sub    $0x411038,%rsi
  4010cc:	48 89 f0             	mov    %rsi,%rax
  4010cf:	48 c1 ee 3f          	shr    $0x3f,%rsi
  4010d3:	48 c1 f8 03          	sar    $0x3,%rax
  4010d7:	48 01 c6             	add    %rax,%rsi
  4010da:	48 d1 fe             	sar    %rsi
  4010dd:	74 11                	je     4010f0 <register_tm_clones+0x30>
  4010df:	b8 00 00 00 00       	mov    $0x0,%eax
  4010e4:	48 85 c0             	test   %rax,%rax
  4010e7:	74 07                	je     4010f0 <register_tm_clones+0x30>
  4010e9:	bf 38 10 41 00       	mov    $0x411038,%edi
  4010ee:	ff e0                	jmpq   *%rax
  4010f0:	c3                   	retq   
  4010f1:	66 66 2e 0f 1f 84 00 	data16 nopw %cs:0x0(%rax,%rax,1)
  4010f8:	00 00 00 00 
  4010fc:	0f 1f 40 00          	nopl   0x0(%rax)

0000000000401100 <__do_global_dtors_aux>:
  401100:	f3 0f 1e fa          	endbr64 
  401104:	80 3d 35 ff 00 00 00 	cmpb   $0x0,0xff35(%rip)        # 411040 <completed.8060>
  40110b:	75 13                	jne    401120 <__do_global_dtors_aux+0x20>
  40110d:	55                   	push   %rbp
  40110e:	48 89 e5             	mov    %rsp,%rbp
  401111:	e8 7a ff ff ff       	callq  401090 <deregister_tm_clones>
  401116:	c6 05 23 ff 00 00 01 	movb   $0x1,0xff23(%rip)        # 411040 <completed.8060>
  40111d:	5d                   	pop    %rbp
  40111e:	c3                   	retq   
  40111f:	90                   	nop
  401120:	c3                   	retq   
  401121:	66 66 2e 0f 1f 84 00 	data16 nopw %cs:0x0(%rax,%rax,1)
  401128:	00 00 00 00 
  40112c:	0f 1f 40 00          	nopl   0x0(%rax)

0000000000401130 <frame_dummy>:
  401130:	f3 0f 1e fa          	endbr64 
  401134:	eb 8a                	jmp    4010c0 <register_tm_clones>
  401136:	66 2e 0f 1f 84 00 00 	nopw   %cs:0x0(%rax,%rax,1)
  40113d:	00 00 00 

0000000000401140 <hsum_epi32_avx>:
  401140:	c5 f9 70 c8 ee       	vpshufd $0xee,%xmm0,%xmm1
  401145:	c5 f1 fe c0          	vpaddd %xmm0,%xmm1,%xmm0
  401149:	c5 f9 70 c8 55       	vpshufd $0x55,%xmm0,%xmm1
  40114e:	c5 f1 fe c0          	vpaddd %xmm0,%xmm1,%xmm0
  401152:	c5 f9 7e c0          	vmovd  %xmm0,%eax
  401156:	c3                   	retq   
  401157:	66 0f 1f 84 00 00 00 	nopw   0x0(%rax,%rax,1)
  40115e:	00 00 

0000000000401160 <mm256_hadd_to_32>:
  401160:	c4 e3 7d 39 c1 01    	vextracti128 $0x1,%ymm0,%xmm1
  401166:	c5 f1 fe c0          	vpaddd %xmm0,%xmm1,%xmm0
  40116a:	c5 f9 70 c8 ee       	vpshufd $0xee,%xmm0,%xmm1
  40116f:	c5 f9 fe c1          	vpaddd %xmm1,%xmm0,%xmm0
  401173:	c5 f9 70 c8 55       	vpshufd $0x55,%xmm0,%xmm1
  401178:	c5 f1 fe c0          	vpaddd %xmm0,%xmm1,%xmm0
  40117c:	c5 f9 7e c0          	vmovd  %xmm0,%eax
  401180:	c5 f8 77             	vzeroupper 
  401183:	c3                   	retq   
  401184:	66 66 66 2e 0f 1f 84 	data16 data16 nopw %cs:0x0(%rax,%rax,1)
  40118b:	00 00 00 00 00 

0000000000401190 <mm256_hadd_to_64>:
  401190:	c4 e3 7d 39 c1 01    	vextracti128 $0x1,%ymm0,%xmm1
  401196:	c5 f1 d4 c0          	vpaddq %xmm0,%xmm1,%xmm0
  40119a:	c5 f9 70 c8 ee       	vpshufd $0xee,%xmm0,%xmm1
  40119f:	c5 f1 d4 c0          	vpaddq %xmm0,%xmm1,%xmm0
  4011a3:	c4 e1 f9 7e c0       	vmovq  %xmm0,%rax
  4011a8:	c5 f8 77             	vzeroupper 
  4011ab:	c3                   	retq   
  4011ac:	0f 1f 40 00          	nopl   0x0(%rax)

00000000004011b0 <uint64_t_secure_load_impl>:
  4011b0:	55                   	push   %rbp
  4011b1:	41 57                	push   %r15
  4011b3:	41 56                	push   %r14
  4011b5:	41 55                	push   %r13
  4011b7:	41 54                	push   %r12
  4011b9:	53                   	push   %rbx
  4011ba:	85 d2                	test   %edx,%edx
  4011bc:	0f 84 19 05 00 00    	je     4016db <uint64_t_secure_load_impl+0x52b>
  4011c2:	48 89 f8             	mov    %rdi,%rax
  4011c5:	48 83 e0 f8          	and    $0xfffffffffffffff8,%rax
  4011c9:	62 f2 fd 28 7c c0    	vpbroadcastq %rax,%ymm0
  4011cf:	44 8d 14 fd 00 00 00 	lea    0x0(,%rdi,8),%r10d
  4011d6:	00 
  4011d7:	41 83 e2 38          	and    $0x38,%r10d
  4011db:	41 89 d0             	mov    %edx,%r8d
  4011de:	c5 f1 ef c9          	vpxor  %xmm1,%xmm1,%xmm1
  4011e2:	45 31 ed             	xor    %r13d,%r13d
  4011e5:	c5 79 6f 05 23 4e 00 	vmovdqa 0x4e23(%rip),%xmm8        # 406010 <_IO_stdin_used+0x10>
  4011ec:	00 
  4011ed:	c4 e2 7d 59 1d 2a 4e 	vpbroadcastq 0x4e2a(%rip),%ymm3        # 406020 <_IO_stdin_used+0x20>
  4011f4:	00 00 
  4011f6:	c4 62 7d 59 0d 29 4e 	vpbroadcastq 0x4e29(%rip),%ymm9        # 406028 <_IO_stdin_used+0x28>
  4011fd:	00 00 
  4011ff:	c4 e2 7d 59 2d 28 4e 	vpbroadcastq 0x4e28(%rip),%ymm5        # 406030 <_IO_stdin_used+0x30>
  401206:	00 00 
  401208:	c4 e2 7d 59 35 27 4e 	vpbroadcastq 0x4e27(%rip),%ymm6        # 406038 <_IO_stdin_used+0x38>
  40120f:	00 00 
  401211:	31 c0                	xor    %eax,%eax
  401213:	eb 32                	jmp    401247 <uint64_t_secure_load_impl+0x97>
  401215:	66 66 2e 0f 1f 84 00 	data16 nopw %cs:0x0(%rax,%rax,1)
  40121c:	00 00 00 00 
  401220:	c4 e3 7d 39 ca 01    	vextracti128 $0x1,%ymm1,%xmm2
  401226:	c5 e9 d4 d1          	vpaddq %xmm1,%xmm2,%xmm2
  40122a:	c5 f9 70 e2 ee       	vpshufd $0xee,%xmm2,%xmm4
  40122f:	c5 d9 d4 d2          	vpaddq %xmm2,%xmm4,%xmm2
  401233:	c4 e1 f9 7e d1       	vmovq  %xmm2,%rcx
  401238:	48 09 c8             	or     %rcx,%rax
  40123b:	49 ff c5             	inc    %r13
  40123e:	4d 39 c5             	cmp    %r8,%r13
  401241:	0f 84 96 04 00 00    	je     4016dd <uint64_t_secure_load_impl+0x52d>
  401247:	4d 89 ec             	mov    %r13,%r12
  40124a:	49 c1 e4 05          	shl    $0x5,%r12
  40124e:	4e 8d 1c 26          	lea    (%rsi,%r12,1),%r11
  401252:	46 8b 7c 26 14       	mov    0x14(%rsi,%r12,1),%r15d
  401257:	45 85 ff             	test   %r15d,%r15d
  40125a:	0f 85 ff 02 00 00    	jne    40155f <uint64_t_secure_load_impl+0x3af>
  401260:	49 8b 13             	mov    (%r11),%rdx
  401263:	42 8b 5c 26 18       	mov    0x18(%rsi,%r12,1),%ebx
  401268:	42 8b 4c 26 1c       	mov    0x1c(%rsi,%r12,1),%ecx
  40126d:	48 01 d3             	add    %rdx,%rbx
  401270:	48 83 e3 e0          	and    $0xffffffffffffffe0,%rbx
  401274:	48 01 d1             	add    %rdx,%rcx
  401277:	48 29 d9             	sub    %rbx,%rcx
  40127a:	48 c1 e9 05          	shr    $0x5,%rcx
  40127e:	ff c1                	inc    %ecx
  401280:	0f 84 e9 00 00 00    	je     40136f <uint64_t_secure_load_impl+0x1bf>
  401286:	62 f2 fd 08 7c fb    	vpbroadcastq %rbx,%xmm7
  40128c:	c5 b9 eb ff          	vpor   %xmm7,%xmm8,%xmm7
  401290:	48 89 da             	mov    %rbx,%rdx
  401293:	48 83 ca 18          	or     $0x18,%rdx
  401297:	c4 e1 f9 6e d2       	vmovq  %rdx,%xmm2
  40129c:	c4 e3 69 0f d7 08    	vpalignr $0x8,%xmm7,%xmm2,%xmm2
  4012a2:	c4 e1 f9 6e e3       	vmovq  %rbx,%xmm4
  4012a7:	c5 d9 6c e7          	vpunpcklqdq %xmm7,%xmm4,%xmm4
  4012ab:	c4 e3 5d 38 fa 01    	vinserti128 $0x1,%xmm2,%ymm4,%ymm7
  4012b1:	41 89 ce             	mov    %ecx,%r14d
  4012b4:	49 8d 4e ff          	lea    -0x1(%r14),%rcx
  4012b8:	44 89 f5             	mov    %r14d,%ebp
  4012bb:	83 e5 03             	and    $0x3,%ebp
  4012be:	48 83 f9 03          	cmp    $0x3,%rcx
  4012c2:	73 0c                	jae    4012d0 <uint64_t_secure_load_impl+0x120>
  4012c4:	31 c9                	xor    %ecx,%ecx
  4012c6:	eb 72                	jmp    40133a <uint64_t_secure_load_impl+0x18a>
  4012c8:	0f 1f 84 00 00 00 00 	nopl   0x0(%rax,%rax,1)
  4012cf:	00 
  4012d0:	41 83 e6 fc          	and    $0xfffffffc,%r14d
  4012d4:	45 31 c9             	xor    %r9d,%r9d
  4012d7:	31 c9                	xor    %ecx,%ecx
  4012d9:	0f 1f 80 00 00 00 00 	nopl   0x0(%rax)
  4012e0:	44 89 ca             	mov    %r9d,%edx
  4012e3:	83 e2 80             	and    $0xffffff80,%edx
  4012e6:	62 f2 c5 28 29 c8    	vpcmpeqq %ymm0,%ymm7,%k1
  4012ec:	62 f1 fd 29 6f 0c 13 	vmovdqa64 (%rbx,%rdx,1),%ymm1{%k1}
  4012f3:	c5 c5 d4 d3          	vpaddq %ymm3,%ymm7,%ymm2
  4012f7:	62 f2 ed 28 29 c8    	vpcmpeqq %ymm0,%ymm2,%k1
  4012fd:	62 f1 fd 29 6f 4c 13 	vmovdqa64 0x20(%rbx,%rdx,1),%ymm1{%k1}
  401304:	01 
  401305:	c5 b5 d4 d7          	vpaddq %ymm7,%ymm9,%ymm2
  401309:	62 f2 ed 28 29 c8    	vpcmpeqq %ymm0,%ymm2,%k1
  40130f:	62 f1 fd 29 6f 4c 13 	vmovdqa64 0x40(%rbx,%rdx,1),%ymm1{%k1}
  401316:	02 
  401317:	c5 c5 d4 d5          	vpaddq %ymm5,%ymm7,%ymm2
  40131b:	62 f2 ed 28 29 c8    	vpcmpeqq %ymm0,%ymm2,%k1
  401321:	62 f1 fd 29 6f 4c 13 	vmovdqa64 0x60(%rbx,%rdx,1),%ymm1{%k1}
  401328:	03 
  401329:	c5 c5 d4 fe          	vpaddq %ymm6,%ymm7,%ymm7
  40132d:	48 83 c1 04          	add    $0x4,%rcx
  401331:	49 83 e9 80          	sub    $0xffffffffffffff80,%r9
  401335:	49 39 ce             	cmp    %rcx,%r14
  401338:	75 a6                	jne    4012e0 <uint64_t_secure_load_impl+0x130>
  40133a:	48 85 ed             	test   %rbp,%rbp
  40133d:	74 30                	je     40136f <uint64_t_secure_load_impl+0x1bf>
  40133f:	48 c1 e1 05          	shl    $0x5,%rcx
  401343:	48 f7 dd             	neg    %rbp
  401346:	66 2e 0f 1f 84 00 00 	nopw   %cs:0x0(%rax,%rax,1)
  40134d:	00 00 00 
  401350:	89 ca                	mov    %ecx,%edx
  401352:	83 e2 e0             	and    $0xffffffe0,%edx
  401355:	62 f2 c5 28 29 c8    	vpcmpeqq %ymm0,%ymm7,%k1
  40135b:	62 f1 fd 29 6f 0c 13 	vmovdqa64 (%rbx,%rdx,1),%ymm1{%k1}
  401362:	c5 c5 d4 fb          	vpaddq %ymm3,%ymm7,%ymm7
  401366:	48 83 c1 20          	add    $0x20,%rcx
  40136a:	48 ff c5             	inc    %rbp
  40136d:	75 e1                	jne    401350 <uint64_t_secure_load_impl+0x1a0>
  40136f:	c4 e3 7d 39 ca 01    	vextracti128 $0x1,%ymm1,%xmm2
  401375:	c5 e9 d4 d1          	vpaddq %xmm1,%xmm2,%xmm2
  401379:	c5 f9 70 e2 ee       	vpshufd $0xee,%xmm2,%xmm4
  40137e:	c5 d9 d4 d2          	vpaddq %xmm2,%xmm4,%xmm2
  401382:	c4 e1 f9 7e d1       	vmovq  %xmm2,%rcx
  401387:	48 09 c1             	or     %rax,%rcx
  40138a:	c4 e2 ab f7 c1       	shrx   %r10,%rcx,%rax
  40138f:	41 83 ff 02          	cmp    $0x2,%r15d
  401393:	0f 85 a2 fe ff ff    	jne    40123b <uint64_t_secure_load_impl+0x8b>
  401399:	42 8b 6c 26 10       	mov    0x10(%rsi,%r12,1),%ebp
  40139e:	83 fd 04             	cmp    $0x4,%ebp
  4013a1:	0f 82 79 fe ff ff    	jb     401220 <uint64_t_secure_load_impl+0x70>
  4013a7:	49 8b 1b             	mov    (%r11),%rbx
  4013aa:	48 89 f9             	mov    %rdi,%rcx
  4013ad:	48 29 d9             	sub    %rbx,%rcx
  4013b0:	62 f2 fd 28 7c f9    	vpbroadcastq %rcx,%ymm7
  4013b6:	4e 8b 5c 26 08       	mov    0x8(%rsi,%r12,1),%r11
  4013bb:	c1 ed 02             	shr    $0x2,%ebp
  4013be:	b9 01 00 00 00       	mov    $0x1,%ecx
  4013c3:	0f 44 e9             	cmove  %ecx,%ebp
  4013c6:	48 8d 4d ff          	lea    -0x1(%rbp),%rcx
  4013ca:	41 89 ee             	mov    %ebp,%r14d
  4013cd:	41 83 e6 07          	and    $0x7,%r14d
  4013d1:	48 83 f9 07          	cmp    $0x7,%rcx
  4013d5:	73 07                	jae    4013de <uint64_t_secure_load_impl+0x22e>
  4013d7:	31 d2                	xor    %edx,%edx
  4013d9:	e9 34 01 00 00       	jmpq   401512 <uint64_t_secure_load_impl+0x362>
  4013de:	83 e5 f8             	and    $0xfffffff8,%ebp
  4013e1:	49 8d 8b e0 00 00 00 	lea    0xe0(%r11),%rcx
  4013e8:	31 d2                	xor    %edx,%edx
  4013ea:	66 0f 1f 44 00 00    	nopw   0x0(%rax,%rax,1)
  4013f0:	c5 fe 6f 91 20 ff ff 	vmovdqu -0xe0(%rcx),%ymm2
  4013f7:	ff 
  4013f8:	c5 fe 6f a1 40 ff ff 	vmovdqu -0xc0(%rcx),%ymm4
  4013ff:	ff 
  401400:	c5 7e 6f 91 60 ff ff 	vmovdqu -0xa0(%rcx),%ymm10
  401407:	ff 
  401408:	c4 41 21 ef db       	vpxor  %xmm11,%xmm11,%xmm11
  40140d:	c4 41 1d 76 e4       	vpcmpeqd %ymm12,%ymm12,%ymm12
  401412:	c4 62 9d 91 1c 13    	vpgatherqq %ymm12,(%rbx,%ymm2,1),%ymm11
  401418:	c4 41 19 ef e4       	vpxor  %xmm12,%xmm12,%xmm12
  40141d:	c4 41 15 76 ed       	vpcmpeqd %ymm13,%ymm13,%ymm13
  401422:	c4 62 95 91 24 23    	vpgatherqq %ymm13,(%rbx,%ymm4,1),%ymm12
  401428:	c5 7e 6f 69 80       	vmovdqu -0x80(%rcx),%ymm13
  40142d:	62 f2 ed 28 29 cf    	vpcmpeqq %ymm7,%ymm2,%k1
  401433:	c5 e9 ef d2          	vpxor  %xmm2,%xmm2,%xmm2
  401437:	c4 41 0d 76 f6       	vpcmpeqd %ymm14,%ymm14,%ymm14
  40143c:	c4 a2 8d 91 14 13    	vpgatherqq %ymm14,(%rbx,%ymm10,1),%ymm2
  401442:	c4 41 09 ef f6       	vpxor  %xmm14,%xmm14,%xmm14
  401447:	c4 41 05 76 ff       	vpcmpeqd %ymm15,%ymm15,%ymm15
  40144c:	c4 22 85 91 34 2b    	vpgatherqq %ymm15,(%rbx,%ymm13,1),%ymm14
  401452:	62 d1 fd 29 6f cb    	vmovdqa64 %ymm11,%ymm1{%k1}
  401458:	62 f2 dd 28 29 cf    	vpcmpeqq %ymm7,%ymm4,%k1
  40145e:	62 d1 fd 29 6f cc    	vmovdqa64 %ymm12,%ymm1{%k1}
  401464:	c5 fe 6f 61 a0       	vmovdqu -0x60(%rcx),%ymm4
  401469:	c4 41 21 ef db       	vpxor  %xmm11,%xmm11,%xmm11
  40146e:	c4 41 1d 76 e4       	vpcmpeqd %ymm12,%ymm12,%ymm12
  401473:	c4 62 9d 91 1c 23    	vpgatherqq %ymm12,(%rbx,%ymm4,1),%ymm11
  401479:	62 f2 ad 28 29 cf    	vpcmpeqq %ymm7,%ymm10,%k1
  40147f:	62 f1 fd 29 6f ca    	vmovdqa64 %ymm2,%ymm1{%k1}
  401485:	62 f2 95 28 29 cf    	vpcmpeqq %ymm7,%ymm13,%k1
  40148b:	c5 fe 6f 51 c0       	vmovdqu -0x40(%rcx),%ymm2
  401490:	c4 41 29 ef d2       	vpxor  %xmm10,%xmm10,%xmm10
  401495:	c4 41 1d 76 e4       	vpcmpeqd %ymm12,%ymm12,%ymm12
  40149a:	c4 62 9d 91 14 13    	vpgatherqq %ymm12,(%rbx,%ymm2,1),%ymm10
  4014a0:	62 d1 fd 29 6f ce    	vmovdqa64 %ymm14,%ymm1{%k1}
  4014a6:	62 f2 dd 28 29 cf    	vpcmpeqq %ymm7,%ymm4,%k1
  4014ac:	62 d1 fd 29 6f cb    	vmovdqa64 %ymm11,%ymm1{%k1}
  4014b2:	c5 fe 6f 61 e0       	vmovdqu -0x20(%rcx),%ymm4
  4014b7:	c4 41 21 ef db       	vpxor  %xmm11,%xmm11,%xmm11
  4014bc:	c4 41 1d 76 e4       	vpcmpeqd %ymm12,%ymm12,%ymm12
  4014c1:	c4 62 9d 91 1c 23    	vpgatherqq %ymm12,(%rbx,%ymm4,1),%ymm11
  4014c7:	62 f2 ed 28 29 cf    	vpcmpeqq %ymm7,%ymm2,%k1
  4014cd:	62 d1 fd 29 6f ca    	vmovdqa64 %ymm10,%ymm1{%k1}
  4014d3:	62 f2 dd 28 29 cf    	vpcmpeqq %ymm7,%ymm4,%k1
  4014d9:	c5 fe 6f 11          	vmovdqu (%rcx),%ymm2
  4014dd:	c5 d9 ef e4          	vpxor  %xmm4,%xmm4,%xmm4
  4014e1:	c4 41 2d 76 d2       	vpcmpeqd %ymm10,%ymm10,%ymm10
  4014e6:	c4 e2 ad 91 24 13    	vpgatherqq %ymm10,(%rbx,%ymm2,1),%ymm4
  4014ec:	62 d1 fd 29 6f cb    	vmovdqa64 %ymm11,%ymm1{%k1}
  4014f2:	62 f2 ed 28 29 cf    	vpcmpeqq %ymm7,%ymm2,%k1
  4014f8:	62 f1 fd 29 6f cc    	vmovdqa64 %ymm4,%ymm1{%k1}
  4014fe:	48 83 c2 08          	add    $0x8,%rdx
  401502:	48 81 c1 00 01 00 00 	add    $0x100,%rcx
  401509:	48 39 d5             	cmp    %rdx,%rbp
  40150c:	0f 85 de fe ff ff    	jne    4013f0 <uint64_t_secure_load_impl+0x240>
  401512:	4d 85 f6             	test   %r14,%r14
  401515:	0f 84 05 fd ff ff    	je     401220 <uint64_t_secure_load_impl+0x70>
  40151b:	48 c1 e2 05          	shl    $0x5,%rdx
  40151f:	49 01 d3             	add    %rdx,%r11
  401522:	49 c1 e6 05          	shl    $0x5,%r14
  401526:	31 c9                	xor    %ecx,%ecx
  401528:	0f 1f 84 00 00 00 00 	nopl   0x0(%rax,%rax,1)
  40152f:	00 
  401530:	c4 c1 7e 6f 14 0b    	vmovdqu (%r11,%rcx,1),%ymm2
  401536:	c5 d9 ef e4          	vpxor  %xmm4,%xmm4,%xmm4
  40153a:	c4 41 2d 76 d2       	vpcmpeqd %ymm10,%ymm10,%ymm10
  40153f:	c4 e2 ad 91 24 13    	vpgatherqq %ymm10,(%rbx,%ymm2,1),%ymm4
  401545:	62 f2 ed 28 29 cf    	vpcmpeqq %ymm7,%ymm2,%k1
  40154b:	62 f1 fd 29 6f cc    	vmovdqa64 %ymm4,%ymm1{%k1}
  401551:	48 83 c1 20          	add    $0x20,%rcx
  401555:	49 39 ce             	cmp    %rcx,%r14
  401558:	75 d6                	jne    401530 <uint64_t_secure_load_impl+0x380>
  40155a:	e9 c1 fc ff ff       	jmpq   401220 <uint64_t_secure_load_impl+0x70>
  40155f:	41 83 ff 01          	cmp    $0x1,%r15d
  401563:	0f 85 26 fe ff ff    	jne    40138f <uint64_t_secure_load_impl+0x1df>
  401569:	46 8b 4c 26 10       	mov    0x10(%rsi,%r12,1),%r9d
  40156e:	4d 85 c9             	test   %r9,%r9
  401571:	0f 84 c4 fc ff ff    	je     40123b <uint64_t_secure_load_impl+0x8b>
  401577:	4d 8b 33             	mov    (%r11),%r14
  40157a:	4a 8b 54 26 08       	mov    0x8(%rsi,%r12,1),%rdx
  40157f:	49 8d 59 ff          	lea    -0x1(%r9),%rbx
  401583:	44 89 c9             	mov    %r9d,%ecx
  401586:	83 e1 07             	and    $0x7,%ecx
  401589:	48 89 4c 24 f8       	mov    %rcx,-0x8(%rsp)
  40158e:	48 83 fb 07          	cmp    $0x7,%rbx
  401592:	73 37                	jae    4015cb <uint64_t_secure_load_impl+0x41b>
  401594:	31 db                	xor    %ebx,%ebx
  401596:	48 83 7c 24 f8 00    	cmpq   $0x0,-0x8(%rsp)
  40159c:	0f 84 ed fd ff ff    	je     40138f <uint64_t_secure_load_impl+0x1df>
  4015a2:	48 8d 0c da          	lea    (%rdx,%rbx,8),%rcx
  4015a6:	31 d2                	xor    %edx,%edx
  4015a8:	eb 0e                	jmp    4015b8 <uint64_t_secure_load_impl+0x408>
  4015aa:	48 ff c2             	inc    %rdx
  4015ad:	48 39 54 24 f8       	cmp    %rdx,-0x8(%rsp)
  4015b2:	0f 84 d7 fd ff ff    	je     40138f <uint64_t_secure_load_impl+0x1df>
  4015b8:	48 8b 1c d1          	mov    (%rcx,%rdx,8),%rbx
  4015bc:	49 8d 2c 1e          	lea    (%r14,%rbx,1),%rbp
  4015c0:	48 39 fd             	cmp    %rdi,%rbp
  4015c3:	75 e5                	jne    4015aa <uint64_t_secure_load_impl+0x3fa>
  4015c5:	49 8b 04 1e          	mov    (%r14,%rbx,1),%rax
  4015c9:	eb df                	jmp    4015aa <uint64_t_secure_load_impl+0x3fa>
  4015cb:	41 83 e1 f8          	and    $0xfffffff8,%r9d
  4015cf:	31 db                	xor    %ebx,%ebx
  4015d1:	eb 09                	jmp    4015dc <uint64_t_secure_load_impl+0x42c>
  4015d3:	48 83 c3 08          	add    $0x8,%rbx
  4015d7:	49 39 d9             	cmp    %rbx,%r9
  4015da:	74 ba                	je     401596 <uint64_t_secure_load_impl+0x3e6>
  4015dc:	48 8b 2c da          	mov    (%rdx,%rbx,8),%rbp
  4015e0:	49 8d 0c 2e          	lea    (%r14,%rbp,1),%rcx
  4015e4:	48 39 f9             	cmp    %rdi,%rcx
  4015e7:	74 67                	je     401650 <uint64_t_secure_load_impl+0x4a0>
  4015e9:	48 8b 6c da 08       	mov    0x8(%rdx,%rbx,8),%rbp
  4015ee:	49 8d 0c 2e          	lea    (%r14,%rbp,1),%rcx
  4015f2:	48 39 f9             	cmp    %rdi,%rcx
  4015f5:	74 6b                	je     401662 <uint64_t_secure_load_impl+0x4b2>
  4015f7:	48 8b 6c da 10       	mov    0x10(%rdx,%rbx,8),%rbp
  4015fc:	49 8d 0c 2e          	lea    (%r14,%rbp,1),%rcx
  401600:	48 39 f9             	cmp    %rdi,%rcx
  401603:	74 6f                	je     401674 <uint64_t_secure_load_impl+0x4c4>
  401605:	48 8b 6c da 18       	mov    0x18(%rdx,%rbx,8),%rbp
  40160a:	49 8d 0c 2e          	lea    (%r14,%rbp,1),%rcx
  40160e:	48 39 f9             	cmp    %rdi,%rcx
  401611:	74 73                	je     401686 <uint64_t_secure_load_impl+0x4d6>
  401613:	48 8b 6c da 20       	mov    0x20(%rdx,%rbx,8),%rbp
  401618:	49 8d 0c 2e          	lea    (%r14,%rbp,1),%rcx
  40161c:	48 39 f9             	cmp    %rdi,%rcx
  40161f:	74 77                	je     401698 <uint64_t_secure_load_impl+0x4e8>
  401621:	48 8b 6c da 28       	mov    0x28(%rdx,%rbx,8),%rbp
  401626:	49 8d 0c 2e          	lea    (%r14,%rbp,1),%rcx
  40162a:	48 39 f9             	cmp    %rdi,%rcx
  40162d:	74 7b                	je     4016aa <uint64_t_secure_load_impl+0x4fa>
  40162f:	48 8b 6c da 30       	mov    0x30(%rdx,%rbx,8),%rbp
  401634:	49 8d 0c 2e          	lea    (%r14,%rbp,1),%rcx
  401638:	48 39 f9             	cmp    %rdi,%rcx
  40163b:	74 7f                	je     4016bc <uint64_t_secure_load_impl+0x50c>
  40163d:	48 8b 6c da 38       	mov    0x38(%rdx,%rbx,8),%rbp
  401642:	49 8d 0c 2e          	lea    (%r14,%rbp,1),%rcx
  401646:	48 39 f9             	cmp    %rdi,%rcx
  401649:	75 88                	jne    4015d3 <uint64_t_secure_load_impl+0x423>
  40164b:	e9 82 00 00 00       	jmpq   4016d2 <uint64_t_secure_load_impl+0x522>
  401650:	49 8b 04 2e          	mov    (%r14,%rbp,1),%rax
  401654:	48 8b 6c da 08       	mov    0x8(%rdx,%rbx,8),%rbp
  401659:	49 8d 0c 2e          	lea    (%r14,%rbp,1),%rcx
  40165d:	48 39 f9             	cmp    %rdi,%rcx
  401660:	75 95                	jne    4015f7 <uint64_t_secure_load_impl+0x447>
  401662:	49 8b 04 2e          	mov    (%r14,%rbp,1),%rax
  401666:	48 8b 6c da 10       	mov    0x10(%rdx,%rbx,8),%rbp
  40166b:	49 8d 0c 2e          	lea    (%r14,%rbp,1),%rcx
  40166f:	48 39 f9             	cmp    %rdi,%rcx
  401672:	75 91                	jne    401605 <uint64_t_secure_load_impl+0x455>
  401674:	49 8b 04 2e          	mov    (%r14,%rbp,1),%rax
  401678:	48 8b 6c da 18       	mov    0x18(%rdx,%rbx,8),%rbp
  40167d:	49 8d 0c 2e          	lea    (%r14,%rbp,1),%rcx
  401681:	48 39 f9             	cmp    %rdi,%rcx
  401684:	75 8d                	jne    401613 <uint64_t_secure_load_impl+0x463>
  401686:	49 8b 04 2e          	mov    (%r14,%rbp,1),%rax
  40168a:	48 8b 6c da 20       	mov    0x20(%rdx,%rbx,8),%rbp
  40168f:	49 8d 0c 2e          	lea    (%r14,%rbp,1),%rcx
  401693:	48 39 f9             	cmp    %rdi,%rcx
  401696:	75 89                	jne    401621 <uint64_t_secure_load_impl+0x471>
  401698:	49 8b 04 2e          	mov    (%r14,%rbp,1),%rax
  40169c:	48 8b 6c da 28       	mov    0x28(%rdx,%rbx,8),%rbp
  4016a1:	49 8d 0c 2e          	lea    (%r14,%rbp,1),%rcx
  4016a5:	48 39 f9             	cmp    %rdi,%rcx
  4016a8:	75 85                	jne    40162f <uint64_t_secure_load_impl+0x47f>
  4016aa:	49 8b 04 2e          	mov    (%r14,%rbp,1),%rax
  4016ae:	48 8b 6c da 30       	mov    0x30(%rdx,%rbx,8),%rbp
  4016b3:	49 8d 0c 2e          	lea    (%r14,%rbp,1),%rcx
  4016b7:	48 39 f9             	cmp    %rdi,%rcx
  4016ba:	75 81                	jne    40163d <uint64_t_secure_load_impl+0x48d>
  4016bc:	49 8b 04 2e          	mov    (%r14,%rbp,1),%rax
  4016c0:	48 8b 6c da 38       	mov    0x38(%rdx,%rbx,8),%rbp
  4016c5:	49 8d 0c 2e          	lea    (%r14,%rbp,1),%rcx
  4016c9:	48 39 f9             	cmp    %rdi,%rcx
  4016cc:	0f 85 01 ff ff ff    	jne    4015d3 <uint64_t_secure_load_impl+0x423>
  4016d2:	49 8b 04 2e          	mov    (%r14,%rbp,1),%rax
  4016d6:	e9 f8 fe ff ff       	jmpq   4015d3 <uint64_t_secure_load_impl+0x423>
  4016db:	31 c0                	xor    %eax,%eax
  4016dd:	5b                   	pop    %rbx
  4016de:	41 5c                	pop    %r12
  4016e0:	41 5d                	pop    %r13
  4016e2:	41 5e                	pop    %r14
  4016e4:	41 5f                	pop    %r15
  4016e6:	5d                   	pop    %rbp
  4016e7:	c5 f8 77             	vzeroupper 
  4016ea:	c3                   	retq   
  4016eb:	0f 1f 44 00 00       	nopl   0x0(%rax,%rax,1)

00000000004016f0 <uint64_t_secure_load>:
  4016f0:	e9 bb fa ff ff       	jmpq   4011b0 <uint64_t_secure_load_impl>
  4016f5:	66 66 2e 0f 1f 84 00 	data16 nopw %cs:0x0(%rax,%rax,1)
  4016fc:	00 00 00 00 

0000000000401700 <uint32_t_secure_load>:
  401700:	e9 ab fa ff ff       	jmpq   4011b0 <uint64_t_secure_load_impl>
  401705:	66 66 2e 0f 1f 84 00 	data16 nopw %cs:0x0(%rax,%rax,1)
  40170c:	00 00 00 00 

0000000000401710 <uint16_t_secure_load>:
  401710:	50                   	push   %rax
  401711:	e8 9a fa ff ff       	callq  4011b0 <uint64_t_secure_load_impl>
  401716:	59                   	pop    %rcx
  401717:	c3                   	retq   
  401718:	0f 1f 84 00 00 00 00 	nopl   0x0(%rax,%rax,1)
  40171f:	00 

0000000000401720 <uint8_t_secure_load>:
  401720:	50                   	push   %rax
  401721:	e8 8a fa ff ff       	callq  4011b0 <uint64_t_secure_load_impl>
  401726:	59                   	pop    %rcx
  401727:	c3                   	retq   
  401728:	0f 1f 84 00 00 00 00 	nopl   0x0(%rax,%rax,1)
  40172f:	00 

0000000000401730 <uint64_t_secure_load_impl_onebase>:
  401730:	41 56                	push   %r14
  401732:	53                   	push   %rbx
  401733:	45 85 c0             	test   %r8d,%r8d
  401736:	0f 85 2e 03 00 00    	jne    401a6a <uint64_t_secure_load_impl_onebase+0x33a>
  40173c:	45 89 c9             	mov    %r9d,%r9d
  40173f:	49 01 f1             	add    %rsi,%r9
  401742:	49 83 e1 e0          	and    $0xffffffffffffffe0,%r9
  401746:	8b 44 24 18          	mov    0x18(%rsp),%eax
  40174a:	48 01 f0             	add    %rsi,%rax
  40174d:	4c 29 c8             	sub    %r9,%rax
  401750:	48 c1 e8 05          	shr    $0x5,%rax
  401754:	c5 f9 ef c0          	vpxor  %xmm0,%xmm0,%xmm0
  401758:	ff c0                	inc    %eax
  40175a:	0f 84 1f 01 00 00    	je     40187f <uint64_t_secure_load_impl_onebase+0x14f>
  401760:	48 89 fb             	mov    %rdi,%rbx
  401763:	48 83 e3 f8          	and    $0xfffffffffffffff8,%rbx
  401767:	62 f2 fd 28 7c cb    	vpbroadcastq %rbx,%ymm1
  40176d:	62 d2 fd 08 7c c1    	vpbroadcastq %r9,%xmm0
  401773:	c5 f9 eb 05 95 48 00 	vpor   0x4895(%rip),%xmm0,%xmm0        # 406010 <_IO_stdin_used+0x10>
  40177a:	00 
  40177b:	4c 89 cb             	mov    %r9,%rbx
  40177e:	48 83 cb 18          	or     $0x18,%rbx
  401782:	c4 e1 f9 6e d3       	vmovq  %rbx,%xmm2
  401787:	c4 e3 69 0f d0 08    	vpalignr $0x8,%xmm0,%xmm2,%xmm2
  40178d:	c4 c1 f9 6e d9       	vmovq  %r9,%xmm3
  401792:	c5 e1 6c c0          	vpunpcklqdq %xmm0,%xmm3,%xmm0
  401796:	c4 e3 7d 38 d2 01    	vinserti128 $0x1,%xmm2,%ymm0,%ymm2
  40179c:	41 89 c3             	mov    %eax,%r11d
  40179f:	49 8d 43 ff          	lea    -0x1(%r11),%rax
  4017a3:	45 89 da             	mov    %r11d,%r10d
  4017a6:	41 83 e2 03          	and    $0x3,%r10d
  4017aa:	48 83 f8 03          	cmp    $0x3,%rax
  4017ae:	73 0b                	jae    4017bb <uint64_t_secure_load_impl_onebase+0x8b>
  4017b0:	c5 f9 ef c0          	vpxor  %xmm0,%xmm0,%xmm0
  4017b4:	31 db                	xor    %ebx,%ebx
  4017b6:	e9 8f 00 00 00       	jmpq   40184a <uint64_t_secure_load_impl_onebase+0x11a>
  4017bb:	41 83 e3 fc          	and    $0xfffffffc,%r11d
  4017bf:	c5 f9 ef c0          	vpxor  %xmm0,%xmm0,%xmm0
  4017c3:	c4 e2 7d 59 1d 54 48 	vpbroadcastq 0x4854(%rip),%ymm3        # 406020 <_IO_stdin_used+0x20>
  4017ca:	00 00 
  4017cc:	c4 e2 7d 59 25 53 48 	vpbroadcastq 0x4853(%rip),%ymm4        # 406028 <_IO_stdin_used+0x28>
  4017d3:	00 00 
  4017d5:	45 31 f6             	xor    %r14d,%r14d
  4017d8:	c4 e2 7d 59 2d 4f 48 	vpbroadcastq 0x484f(%rip),%ymm5        # 406030 <_IO_stdin_used+0x30>
  4017df:	00 00 
  4017e1:	c4 e2 7d 59 35 4e 48 	vpbroadcastq 0x484e(%rip),%ymm6        # 406038 <_IO_stdin_used+0x38>
  4017e8:	00 00 
  4017ea:	31 db                	xor    %ebx,%ebx
  4017ec:	0f 1f 40 00          	nopl   0x0(%rax)
  4017f0:	44 89 f0             	mov    %r14d,%eax
  4017f3:	83 e0 80             	and    $0xffffff80,%eax
  4017f6:	62 f2 ed 28 29 c9    	vpcmpeqq %ymm1,%ymm2,%k1
  4017fc:	62 d1 fd 29 6f 04 01 	vmovdqa64 (%r9,%rax,1),%ymm0{%k1}
  401803:	c5 ed d4 fb          	vpaddq %ymm3,%ymm2,%ymm7
  401807:	62 f2 c5 28 29 c9    	vpcmpeqq %ymm1,%ymm7,%k1
  40180d:	62 d1 fd 29 6f 44 01 	vmovdqa64 0x20(%r9,%rax,1),%ymm0{%k1}
  401814:	01 
  401815:	c5 ed d4 fc          	vpaddq %ymm4,%ymm2,%ymm7
  401819:	62 f2 c5 28 29 c9    	vpcmpeqq %ymm1,%ymm7,%k1
  40181f:	62 d1 fd 29 6f 44 01 	vmovdqa64 0x40(%r9,%rax,1),%ymm0{%k1}
  401826:	02 
  401827:	c5 ed d4 fd          	vpaddq %ymm5,%ymm2,%ymm7
  40182b:	62 f2 c5 28 29 c9    	vpcmpeqq %ymm1,%ymm7,%k1
  401831:	62 d1 fd 29 6f 44 01 	vmovdqa64 0x60(%r9,%rax,1),%ymm0{%k1}
  401838:	03 
  401839:	c5 ed d4 d6          	vpaddq %ymm6,%ymm2,%ymm2
  40183d:	48 83 c3 04          	add    $0x4,%rbx
  401841:	49 83 ee 80          	sub    $0xffffffffffffff80,%r14
  401845:	49 39 db             	cmp    %rbx,%r11
  401848:	75 a6                	jne    4017f0 <uint64_t_secure_load_impl_onebase+0xc0>
  40184a:	4d 85 d2             	test   %r10,%r10
  40184d:	74 30                	je     40187f <uint64_t_secure_load_impl_onebase+0x14f>
  40184f:	48 c1 e3 05          	shl    $0x5,%rbx
  401853:	49 f7 da             	neg    %r10
  401856:	c4 e2 7d 59 1d c1 47 	vpbroadcastq 0x47c1(%rip),%ymm3        # 406020 <_IO_stdin_used+0x20>
  40185d:	00 00 
  40185f:	90                   	nop
  401860:	89 d8                	mov    %ebx,%eax
  401862:	83 e0 e0             	and    $0xffffffe0,%eax
  401865:	62 f2 ed 28 29 c9    	vpcmpeqq %ymm1,%ymm2,%k1
  40186b:	62 d1 fd 29 6f 04 01 	vmovdqa64 (%r9,%rax,1),%ymm0{%k1}
  401872:	c5 ed d4 d3          	vpaddq %ymm3,%ymm2,%ymm2
  401876:	48 83 c3 20          	add    $0x20,%rbx
  40187a:	49 ff c2             	inc    %r10
  40187d:	75 e1                	jne    401860 <uint64_t_secure_load_impl_onebase+0x130>
  40187f:	c4 e3 7d 39 c1 01    	vextracti128 $0x1,%ymm0,%xmm1
  401885:	c5 f1 d4 c8          	vpaddq %xmm0,%xmm1,%xmm1
  401889:	c5 f9 70 d1 ee       	vpshufd $0xee,%xmm1,%xmm2
  40188e:	c5 e9 d4 c9          	vpaddq %xmm1,%xmm2,%xmm1
  401892:	c4 e1 f9 7e c8       	vmovq  %xmm1,%rax
  401897:	8d 1c fd 00 00 00 00 	lea    0x0(,%rdi,8),%ebx
  40189e:	c4 e2 e3 f7 c0       	shrx   %rbx,%rax,%rax
  4018a3:	41 83 f8 02          	cmp    $0x2,%r8d
  4018a7:	0f 85 b6 01 00 00    	jne    401a63 <uint64_t_secure_load_impl_onebase+0x333>
  4018ad:	c1 e9 02             	shr    $0x2,%ecx
  4018b0:	0f 84 92 01 00 00    	je     401a48 <uint64_t_secure_load_impl_onebase+0x318>
  4018b6:	48 29 f7             	sub    %rsi,%rdi
  4018b9:	62 f2 fd 28 7c cf    	vpbroadcastq %rdi,%ymm1
  4018bf:	41 89 c9             	mov    %ecx,%r9d
  4018c2:	49 8d 49 ff          	lea    -0x1(%r9),%rcx
  4018c6:	45 89 c8             	mov    %r9d,%r8d
  4018c9:	41 83 e0 07          	and    $0x7,%r8d
  4018cd:	48 83 f9 07          	cmp    $0x7,%rcx
  4018d1:	73 07                	jae    4018da <uint64_t_secure_load_impl_onebase+0x1aa>
  4018d3:	31 ff                	xor    %edi,%edi
  4018d5:	e9 2c 01 00 00       	jmpq   401a06 <uint64_t_secure_load_impl_onebase+0x2d6>
  4018da:	41 83 e1 f8          	and    $0xfffffff8,%r9d
  4018de:	48 8d 8a e0 00 00 00 	lea    0xe0(%rdx),%rcx
  4018e5:	31 ff                	xor    %edi,%edi
  4018e7:	66 0f 1f 84 00 00 00 	nopw   0x0(%rax,%rax,1)
  4018ee:	00 00 
  4018f0:	c5 fe 6f 91 20 ff ff 	vmovdqu -0xe0(%rcx),%ymm2
  4018f7:	ff 
  4018f8:	c5 fe 6f 99 40 ff ff 	vmovdqu -0xc0(%rcx),%ymm3
  4018ff:	ff 
  401900:	c5 fe 6f a1 60 ff ff 	vmovdqu -0xa0(%rcx),%ymm4
  401907:	ff 
  401908:	c5 d5 76 ed          	vpcmpeqd %ymm5,%ymm5,%ymm5
  40190c:	c5 c9 ef f6          	vpxor  %xmm6,%xmm6,%xmm6
  401910:	c4 e2 d5 91 34 16    	vpgatherqq %ymm5,(%rsi,%ymm2,1),%ymm6
  401916:	c5 d5 76 ed          	vpcmpeqd %ymm5,%ymm5,%ymm5
  40191a:	c5 c1 ef ff          	vpxor  %xmm7,%xmm7,%xmm7
  40191e:	c4 e2 d5 91 3c 1e    	vpgatherqq %ymm5,(%rsi,%ymm3,1),%ymm7
  401924:	c5 fe 6f 69 80       	vmovdqu -0x80(%rcx),%ymm5
  401929:	62 f2 ed 28 29 c9    	vpcmpeqq %ymm1,%ymm2,%k1
  40192f:	c5 ed 76 d2          	vpcmpeqd %ymm2,%ymm2,%ymm2
  401933:	c4 41 39 ef c0       	vpxor  %xmm8,%xmm8,%xmm8
  401938:	c4 62 ed 91 04 26    	vpgatherqq %ymm2,(%rsi,%ymm4,1),%ymm8
  40193e:	c5 ed 76 d2          	vpcmpeqd %ymm2,%ymm2,%ymm2
  401942:	c4 41 31 ef c9       	vpxor  %xmm9,%xmm9,%xmm9
  401947:	c4 62 ed 91 0c 2e    	vpgatherqq %ymm2,(%rsi,%ymm5,1),%ymm9
  40194d:	62 f1 fd 29 6f c6    	vmovdqa64 %ymm6,%ymm0{%k1}
  401953:	62 f2 e5 28 29 c9    	vpcmpeqq %ymm1,%ymm3,%k1
  401959:	62 f1 fd 29 6f c7    	vmovdqa64 %ymm7,%ymm0{%k1}
  40195f:	c5 fe 6f 51 a0       	vmovdqu -0x60(%rcx),%ymm2
  401964:	c5 e5 76 db          	vpcmpeqd %ymm3,%ymm3,%ymm3
  401968:	c5 c9 ef f6          	vpxor  %xmm6,%xmm6,%xmm6
  40196c:	c4 e2 e5 91 34 16    	vpgatherqq %ymm3,(%rsi,%ymm2,1),%ymm6
  401972:	62 f2 dd 28 29 c9    	vpcmpeqq %ymm1,%ymm4,%k1
  401978:	62 d1 fd 29 6f c0    	vmovdqa64 %ymm8,%ymm0{%k1}
  40197e:	62 f2 d5 28 29 c9    	vpcmpeqq %ymm1,%ymm5,%k1
  401984:	c5 fe 6f 59 c0       	vmovdqu -0x40(%rcx),%ymm3
  401989:	c5 dd 76 e4          	vpcmpeqd %ymm4,%ymm4,%ymm4
  40198d:	c5 d1 ef ed          	vpxor  %xmm5,%xmm5,%xmm5
  401991:	c4 e2 dd 91 2c 1e    	vpgatherqq %ymm4,(%rsi,%ymm3,1),%ymm5
  401997:	62 d1 fd 29 6f c1    	vmovdqa64 %ymm9,%ymm0{%k1}
  40199d:	62 f2 ed 28 29 c9    	vpcmpeqq %ymm1,%ymm2,%k1
  4019a3:	62 f1 fd 29 6f c6    	vmovdqa64 %ymm6,%ymm0{%k1}
  4019a9:	c5 fe 6f 51 e0       	vmovdqu -0x20(%rcx),%ymm2
  4019ae:	c5 dd 76 e4          	vpcmpeqd %ymm4,%ymm4,%ymm4
  4019b2:	c5 c9 ef f6          	vpxor  %xmm6,%xmm6,%xmm6
  4019b6:	c4 e2 dd 91 34 16    	vpgatherqq %ymm4,(%rsi,%ymm2,1),%ymm6
  4019bc:	62 f2 e5 28 29 c9    	vpcmpeqq %ymm1,%ymm3,%k1
  4019c2:	62 f1 fd 29 6f c5    	vmovdqa64 %ymm5,%ymm0{%k1}
  4019c8:	62 f2 ed 28 29 c9    	vpcmpeqq %ymm1,%ymm2,%k1
  4019ce:	c5 fe 6f 11          	vmovdqu (%rcx),%ymm2
  4019d2:	c5 e5 76 db          	vpcmpeqd %ymm3,%ymm3,%ymm3
  4019d6:	c5 d9 ef e4          	vpxor  %xmm4,%xmm4,%xmm4
  4019da:	c4 e2 e5 91 24 16    	vpgatherqq %ymm3,(%rsi,%ymm2,1),%ymm4
  4019e0:	62 f1 fd 29 6f c6    	vmovdqa64 %ymm6,%ymm0{%k1}
  4019e6:	62 f2 ed 28 29 c9    	vpcmpeqq %ymm1,%ymm2,%k1
  4019ec:	62 f1 fd 29 6f c4    	vmovdqa64 %ymm4,%ymm0{%k1}
  4019f2:	48 83 c7 08          	add    $0x8,%rdi
  4019f6:	48 81 c1 00 01 00 00 	add    $0x100,%rcx
  4019fd:	49 39 f9             	cmp    %rdi,%r9
  401a00:	0f 85 ea fe ff ff    	jne    4018f0 <uint64_t_secure_load_impl_onebase+0x1c0>
  401a06:	4d 85 c0             	test   %r8,%r8
  401a09:	74 3d                	je     401a48 <uint64_t_secure_load_impl_onebase+0x318>
  401a0b:	48 c1 e7 05          	shl    $0x5,%rdi
  401a0f:	48 01 fa             	add    %rdi,%rdx
  401a12:	49 c1 e0 05          	shl    $0x5,%r8
  401a16:	31 c9                	xor    %ecx,%ecx
  401a18:	0f 1f 84 00 00 00 00 	nopl   0x0(%rax,%rax,1)
  401a1f:	00 
  401a20:	c5 fe 6f 14 0a       	vmovdqu (%rdx,%rcx,1),%ymm2
  401a25:	c5 e5 76 db          	vpcmpeqd %ymm3,%ymm3,%ymm3
  401a29:	c5 d9 ef e4          	vpxor  %xmm4,%xmm4,%xmm4
  401a2d:	c4 e2 e5 91 24 16    	vpgatherqq %ymm3,(%rsi,%ymm2,1),%ymm4
  401a33:	62 f2 ed 28 29 c9    	vpcmpeqq %ymm1,%ymm2,%k1
  401a39:	62 f1 fd 29 6f c4    	vmovdqa64 %ymm4,%ymm0{%k1}
  401a3f:	48 83 c1 20          	add    $0x20,%rcx
  401a43:	49 39 c8             	cmp    %rcx,%r8
  401a46:	75 d8                	jne    401a20 <uint64_t_secure_load_impl_onebase+0x2f0>
  401a48:	c4 e3 7d 39 c1 01    	vextracti128 $0x1,%ymm0,%xmm1
  401a4e:	c5 f1 d4 c0          	vpaddq %xmm0,%xmm1,%xmm0
  401a52:	c5 f9 70 c8 ee       	vpshufd $0xee,%xmm0,%xmm1
  401a57:	c5 f1 d4 c0          	vpaddq %xmm0,%xmm1,%xmm0
  401a5b:	c4 e1 f9 7e c1       	vmovq  %xmm0,%rcx
  401a60:	48 09 c8             	or     %rcx,%rax
  401a63:	5b                   	pop    %rbx
  401a64:	41 5e                	pop    %r14
  401a66:	c5 f8 77             	vzeroupper 
  401a69:	c3                   	retq   
  401a6a:	c5 f9 ef c0          	vpxor  %xmm0,%xmm0,%xmm0
  401a6e:	41 83 f8 01          	cmp    $0x1,%r8d
  401a72:	75 4e                	jne    401ac2 <uint64_t_secure_load_impl_onebase+0x392>
  401a74:	85 c9                	test   %ecx,%ecx
  401a76:	74 51                	je     401ac9 <uint64_t_secure_load_impl_onebase+0x399>
  401a78:	41 89 ca             	mov    %ecx,%r10d
  401a7b:	49 8d 42 ff          	lea    -0x1(%r10),%rax
  401a7f:	45 89 d1             	mov    %r10d,%r9d
  401a82:	41 83 e1 07          	and    $0x7,%r9d
  401a86:	48 83 f8 07          	cmp    $0x7,%rax
  401a8a:	73 46                	jae    401ad2 <uint64_t_secure_load_impl_onebase+0x3a2>
  401a8c:	45 31 db             	xor    %r11d,%r11d
  401a8f:	31 c0                	xor    %eax,%eax
  401a91:	4d 85 c9             	test   %r9,%r9
  401a94:	0f 84 09 fe ff ff    	je     4018a3 <uint64_t_secure_load_impl_onebase+0x173>
  401a9a:	4e 8d 14 da          	lea    (%rdx,%r11,8),%r10
  401a9e:	45 31 f6             	xor    %r14d,%r14d
  401aa1:	eb 0c                	jmp    401aaf <uint64_t_secure_load_impl_onebase+0x37f>
  401aa3:	49 ff c6             	inc    %r14
  401aa6:	4d 39 f1             	cmp    %r14,%r9
  401aa9:	0f 84 f4 fd ff ff    	je     4018a3 <uint64_t_secure_load_impl_onebase+0x173>
  401aaf:	4f 8b 1c f2          	mov    (%r10,%r14,8),%r11
  401ab3:	4a 8d 1c 1e          	lea    (%rsi,%r11,1),%rbx
  401ab7:	48 39 fb             	cmp    %rdi,%rbx
  401aba:	75 e7                	jne    401aa3 <uint64_t_secure_load_impl_onebase+0x373>
  401abc:	4a 8b 04 1e          	mov    (%rsi,%r11,1),%rax
  401ac0:	eb e1                	jmp    401aa3 <uint64_t_secure_load_impl_onebase+0x373>
  401ac2:	31 c0                	xor    %eax,%eax
  401ac4:	e9 da fd ff ff       	jmpq   4018a3 <uint64_t_secure_load_impl_onebase+0x173>
  401ac9:	31 c0                	xor    %eax,%eax
  401acb:	5b                   	pop    %rbx
  401acc:	41 5e                	pop    %r14
  401ace:	c5 f8 77             	vzeroupper 
  401ad1:	c3                   	retq   
  401ad2:	41 83 e2 f8          	and    $0xfffffff8,%r10d
  401ad6:	45 31 db             	xor    %r11d,%r11d
  401ad9:	31 c0                	xor    %eax,%eax
  401adb:	eb 09                	jmp    401ae6 <uint64_t_secure_load_impl_onebase+0x3b6>
  401add:	49 83 c3 08          	add    $0x8,%r11
  401ae1:	4d 39 da             	cmp    %r11,%r10
  401ae4:	74 ab                	je     401a91 <uint64_t_secure_load_impl_onebase+0x361>
  401ae6:	4e 8b 34 da          	mov    (%rdx,%r11,8),%r14
  401aea:	4a 8d 1c 36          	lea    (%rsi,%r14,1),%rbx
  401aee:	48 39 fb             	cmp    %rdi,%rbx
  401af1:	74 67                	je     401b5a <uint64_t_secure_load_impl_onebase+0x42a>
  401af3:	4e 8b 74 da 08       	mov    0x8(%rdx,%r11,8),%r14
  401af8:	4a 8d 1c 36          	lea    (%rsi,%r14,1),%rbx
  401afc:	48 39 fb             	cmp    %rdi,%rbx
  401aff:	74 6b                	je     401b6c <uint64_t_secure_load_impl_onebase+0x43c>
  401b01:	4e 8b 74 da 10       	mov    0x10(%rdx,%r11,8),%r14
  401b06:	4a 8d 1c 36          	lea    (%rsi,%r14,1),%rbx
  401b0a:	48 39 fb             	cmp    %rdi,%rbx
  401b0d:	74 6f                	je     401b7e <uint64_t_secure_load_impl_onebase+0x44e>
  401b0f:	4e 8b 74 da 18       	mov    0x18(%rdx,%r11,8),%r14
  401b14:	4a 8d 1c 36          	lea    (%rsi,%r14,1),%rbx
  401b18:	48 39 fb             	cmp    %rdi,%rbx
  401b1b:	74 73                	je     401b90 <uint64_t_secure_load_impl_onebase+0x460>
  401b1d:	4e 8b 74 da 20       	mov    0x20(%rdx,%r11,8),%r14
  401b22:	4a 8d 1c 36          	lea    (%rsi,%r14,1),%rbx
  401b26:	48 39 fb             	cmp    %rdi,%rbx
  401b29:	74 77                	je     401ba2 <uint64_t_secure_load_impl_onebase+0x472>
  401b2b:	4e 8b 74 da 28       	mov    0x28(%rdx,%r11,8),%r14
  401b30:	4a 8d 1c 36          	lea    (%rsi,%r14,1),%rbx
  401b34:	48 39 fb             	cmp    %rdi,%rbx
  401b37:	74 7b                	je     401bb4 <uint64_t_secure_load_impl_onebase+0x484>
  401b39:	4e 8b 74 da 30       	mov    0x30(%rdx,%r11,8),%r14
  401b3e:	4a 8d 1c 36          	lea    (%rsi,%r14,1),%rbx
  401b42:	48 39 fb             	cmp    %rdi,%rbx
  401b45:	74 7f                	je     401bc6 <uint64_t_secure_load_impl_onebase+0x496>
  401b47:	4e 8b 74 da 38       	mov    0x38(%rdx,%r11,8),%r14
  401b4c:	4a 8d 1c 36          	lea    (%rsi,%r14,1),%rbx
  401b50:	48 39 fb             	cmp    %rdi,%rbx
  401b53:	75 88                	jne    401add <uint64_t_secure_load_impl_onebase+0x3ad>
  401b55:	e9 82 00 00 00       	jmpq   401bdc <uint64_t_secure_load_impl_onebase+0x4ac>
  401b5a:	4a 8b 04 36          	mov    (%rsi,%r14,1),%rax
  401b5e:	4e 8b 74 da 08       	mov    0x8(%rdx,%r11,8),%r14
  401b63:	4a 8d 1c 36          	lea    (%rsi,%r14,1),%rbx
  401b67:	48 39 fb             	cmp    %rdi,%rbx
  401b6a:	75 95                	jne    401b01 <uint64_t_secure_load_impl_onebase+0x3d1>
  401b6c:	4a 8b 04 36          	mov    (%rsi,%r14,1),%rax
  401b70:	4e 8b 74 da 10       	mov    0x10(%rdx,%r11,8),%r14
  401b75:	4a 8d 1c 36          	lea    (%rsi,%r14,1),%rbx
  401b79:	48 39 fb             	cmp    %rdi,%rbx
  401b7c:	75 91                	jne    401b0f <uint64_t_secure_load_impl_onebase+0x3df>
  401b7e:	4a 8b 04 36          	mov    (%rsi,%r14,1),%rax
  401b82:	4e 8b 74 da 18       	mov    0x18(%rdx,%r11,8),%r14
  401b87:	4a 8d 1c 36          	lea    (%rsi,%r14,1),%rbx
  401b8b:	48 39 fb             	cmp    %rdi,%rbx
  401b8e:	75 8d                	jne    401b1d <uint64_t_secure_load_impl_onebase+0x3ed>
  401b90:	4a 8b 04 36          	mov    (%rsi,%r14,1),%rax
  401b94:	4e 8b 74 da 20       	mov    0x20(%rdx,%r11,8),%r14
  401b99:	4a 8d 1c 36          	lea    (%rsi,%r14,1),%rbx
  401b9d:	48 39 fb             	cmp    %rdi,%rbx
  401ba0:	75 89                	jne    401b2b <uint64_t_secure_load_impl_onebase+0x3fb>
  401ba2:	4a 8b 04 36          	mov    (%rsi,%r14,1),%rax
  401ba6:	4e 8b 74 da 28       	mov    0x28(%rdx,%r11,8),%r14
  401bab:	4a 8d 1c 36          	lea    (%rsi,%r14,1),%rbx
  401baf:	48 39 fb             	cmp    %rdi,%rbx
  401bb2:	75 85                	jne    401b39 <uint64_t_secure_load_impl_onebase+0x409>
  401bb4:	4a 8b 04 36          	mov    (%rsi,%r14,1),%rax
  401bb8:	4e 8b 74 da 30       	mov    0x30(%rdx,%r11,8),%r14
  401bbd:	4a 8d 1c 36          	lea    (%rsi,%r14,1),%rbx
  401bc1:	48 39 fb             	cmp    %rdi,%rbx
  401bc4:	75 81                	jne    401b47 <uint64_t_secure_load_impl_onebase+0x417>
  401bc6:	4a 8b 04 36          	mov    (%rsi,%r14,1),%rax
  401bca:	4e 8b 74 da 38       	mov    0x38(%rdx,%r11,8),%r14
  401bcf:	4a 8d 1c 36          	lea    (%rsi,%r14,1),%rbx
  401bd3:	48 39 fb             	cmp    %rdi,%rbx
  401bd6:	0f 85 01 ff ff ff    	jne    401add <uint64_t_secure_load_impl_onebase+0x3ad>
  401bdc:	4a 8b 04 36          	mov    (%rsi,%r14,1),%rax
  401be0:	e9 f8 fe ff ff       	jmpq   401add <uint64_t_secure_load_impl_onebase+0x3ad>
  401be5:	66 66 2e 0f 1f 84 00 	data16 nopw %cs:0x0(%rax,%rax,1)
  401bec:	00 00 00 00 

0000000000401bf0 <uint64_t_secure_load_onebase>:
  401bf0:	48 83 ec 18          	sub    $0x18,%rsp
  401bf4:	8b 44 24 20          	mov    0x20(%rsp),%eax
  401bf8:	89 04 24             	mov    %eax,(%rsp)
  401bfb:	e8 30 fb ff ff       	callq  401730 <uint64_t_secure_load_impl_onebase>
  401c00:	48 83 c4 18          	add    $0x18,%rsp
  401c04:	c3                   	retq   
  401c05:	66 66 2e 0f 1f 84 00 	data16 nopw %cs:0x0(%rax,%rax,1)
  401c0c:	00 00 00 00 

0000000000401c10 <uint32_t_secure_load_onebase>:
  401c10:	48 83 ec 18          	sub    $0x18,%rsp
  401c14:	8b 44 24 20          	mov    0x20(%rsp),%eax
  401c18:	89 04 24             	mov    %eax,(%rsp)
  401c1b:	e8 10 fb ff ff       	callq  401730 <uint64_t_secure_load_impl_onebase>
  401c20:	48 83 c4 18          	add    $0x18,%rsp
  401c24:	c3                   	retq   
  401c25:	66 66 2e 0f 1f 84 00 	data16 nopw %cs:0x0(%rax,%rax,1)
  401c2c:	00 00 00 00 

0000000000401c30 <uint16_t_secure_load_onebase>:
  401c30:	48 83 ec 18          	sub    $0x18,%rsp
  401c34:	8b 44 24 20          	mov    0x20(%rsp),%eax
  401c38:	89 04 24             	mov    %eax,(%rsp)
  401c3b:	e8 f0 fa ff ff       	callq  401730 <uint64_t_secure_load_impl_onebase>
  401c40:	48 83 c4 18          	add    $0x18,%rsp
  401c44:	c3                   	retq   
  401c45:	66 66 2e 0f 1f 84 00 	data16 nopw %cs:0x0(%rax,%rax,1)
  401c4c:	00 00 00 00 

0000000000401c50 <uint8_t_secure_load_onebase>:
  401c50:	48 83 ec 18          	sub    $0x18,%rsp
  401c54:	8b 44 24 20          	mov    0x20(%rsp),%eax
  401c58:	89 04 24             	mov    %eax,(%rsp)
  401c5b:	e8 d0 fa ff ff       	callq  401730 <uint64_t_secure_load_impl_onebase>
  401c60:	48 83 c4 18          	add    $0x18,%rsp
  401c64:	c3                   	retq   
  401c65:	66 66 2e 0f 1f 84 00 	data16 nopw %cs:0x0(%rax,%rax,1)
  401c6c:	00 00 00 00 

0000000000401c70 <uint64_t_secure_double_load_impl>:
  401c70:	55                   	push   %rbp
  401c71:	48 89 e5             	mov    %rsp,%rbp
  401c74:	41 57                	push   %r15
  401c76:	41 56                	push   %r14
  401c78:	41 55                	push   %r13
  401c7a:	41 54                	push   %r12
  401c7c:	53                   	push   %rbx
  401c7d:	48 83 e4 e0          	and    $0xffffffffffffffe0,%rsp
  401c81:	48 83 ec 60          	sub    $0x60,%rsp
  401c85:	85 d2                	test   %edx,%edx
  401c87:	0f 84 d5 04 00 00    	je     402162 <uint64_t_secure_double_load_impl+0x4f2>
  401c8d:	48 89 f8             	mov    %rdi,%rax
  401c90:	48 83 e0 f8          	and    $0xfffffffffffffff8,%rax
  401c94:	62 f2 fd 28 7c c0    	vpbroadcastq %rax,%ymm0
  401c9a:	48 89 7c 24 08       	mov    %rdi,0x8(%rsp)
  401c9f:	44 8d 14 fd 00 00 00 	lea    0x0(,%rdi,8),%r10d
  401ca6:	00 
  401ca7:	41 83 e2 38          	and    $0x38,%r10d
  401cab:	89 d7                	mov    %edx,%edi
  401cad:	c5 f1 ef c9          	vpxor  %xmm1,%xmm1,%xmm1
  401cb1:	45 31 ed             	xor    %r13d,%r13d
  401cb4:	c5 79 6f 05 54 43 00 	vmovdqa 0x4354(%rip),%xmm8        # 406010 <_IO_stdin_used+0x10>
  401cbb:	00 
  401cbc:	c4 e2 7d 59 1d 5b 43 	vpbroadcastq 0x435b(%rip),%ymm3        # 406020 <_IO_stdin_used+0x20>
  401cc3:	00 00 
  401cc5:	c4 62 7d 59 0d 5a 43 	vpbroadcastq 0x435a(%rip),%ymm9        # 406028 <_IO_stdin_used+0x28>
  401ccc:	00 00 
  401cce:	c4 e2 7d 59 2d 59 43 	vpbroadcastq 0x4359(%rip),%ymm5        # 406030 <_IO_stdin_used+0x30>
  401cd5:	00 00 
  401cd7:	c4 e2 7d 59 35 58 43 	vpbroadcastq 0x4358(%rip),%ymm6        # 406038 <_IO_stdin_used+0x38>
  401cde:	00 00 
  401ce0:	31 c0                	xor    %eax,%eax
  401ce2:	eb 33                	jmp    401d17 <uint64_t_secure_double_load_impl+0xa7>
  401ce4:	66 66 66 2e 0f 1f 84 	data16 data16 nopw %cs:0x0(%rax,%rax,1)
  401ceb:	00 00 00 00 00 
  401cf0:	c4 e3 7d 39 ca 01    	vextracti128 $0x1,%ymm1,%xmm2
  401cf6:	c5 e9 d4 d1          	vpaddq %xmm1,%xmm2,%xmm2
  401cfa:	c5 f9 70 e2 ee       	vpshufd $0xee,%xmm2,%xmm4
  401cff:	c5 d9 d4 d2          	vpaddq %xmm2,%xmm4,%xmm2
  401d03:	c4 e1 f9 7e d1       	vmovq  %xmm2,%rcx
  401d08:	48 09 c8             	or     %rcx,%rax
  401d0b:	49 ff c5             	inc    %r13
  401d0e:	49 39 fd             	cmp    %rdi,%r13
  401d11:	0f 84 4d 04 00 00    	je     402164 <uint64_t_secure_double_load_impl+0x4f4>
  401d17:	4d 89 ef             	mov    %r13,%r15
  401d1a:	49 c1 e7 05          	shl    $0x5,%r15
  401d1e:	4e 8d 1c 3e          	lea    (%rsi,%r15,1),%r11
  401d22:	46 8b 64 3e 14       	mov    0x14(%rsi,%r15,1),%r12d
  401d27:	45 85 e4             	test   %r12d,%r12d
  401d2a:	0f 85 d5 02 00 00    	jne    402005 <uint64_t_secure_double_load_impl+0x395>
  401d30:	49 8b 13             	mov    (%r11),%rdx
  401d33:	42 8b 5c 3e 18       	mov    0x18(%rsi,%r15,1),%ebx
  401d38:	42 8b 4c 3e 1c       	mov    0x1c(%rsi,%r15,1),%ecx
  401d3d:	48 01 d3             	add    %rdx,%rbx
  401d40:	48 83 e3 e0          	and    $0xffffffffffffffe0,%rbx
  401d44:	48 01 d1             	add    %rdx,%rcx
  401d47:	48 29 d9             	sub    %rbx,%rcx
  401d4a:	48 c1 e9 05          	shr    $0x5,%rcx
  401d4e:	ff c1                	inc    %ecx
  401d50:	0f 84 24 01 00 00    	je     401e7a <uint64_t_secure_double_load_impl+0x20a>
  401d56:	62 f2 fd 08 7c fb    	vpbroadcastq %rbx,%xmm7
  401d5c:	c5 b9 eb ff          	vpor   %xmm7,%xmm8,%xmm7
  401d60:	48 89 da             	mov    %rbx,%rdx
  401d63:	48 83 ca 18          	or     $0x18,%rdx
  401d67:	c4 e1 f9 6e d2       	vmovq  %rdx,%xmm2
  401d6c:	c4 e3 69 0f d7 08    	vpalignr $0x8,%xmm7,%xmm2,%xmm2
  401d72:	c4 e1 f9 6e e3       	vmovq  %rbx,%xmm4
  401d77:	c5 d9 6c e7          	vpunpcklqdq %xmm7,%xmm4,%xmm4
  401d7b:	c4 e3 5d 38 fa 01    	vinserti128 $0x1,%xmm2,%ymm4,%ymm7
  401d81:	41 89 ce             	mov    %ecx,%r14d
  401d84:	49 8d 56 ff          	lea    -0x1(%r14),%rdx
  401d88:	44 89 f1             	mov    %r14d,%ecx
  401d8b:	83 e1 03             	and    $0x3,%ecx
  401d8e:	48 83 fa 03          	cmp    $0x3,%rdx
  401d92:	73 0c                	jae    401da0 <uint64_t_secure_double_load_impl+0x130>
  401d94:	45 31 c0             	xor    %r8d,%r8d
  401d97:	e9 9a 00 00 00       	jmpq   401e36 <uint64_t_secure_double_load_impl+0x1c6>
  401d9c:	0f 1f 40 00          	nopl   0x0(%rax)
  401da0:	41 83 e6 fc          	and    $0xfffffffc,%r14d
  401da4:	45 31 c9             	xor    %r9d,%r9d
  401da7:	45 31 c0             	xor    %r8d,%r8d
  401daa:	66 0f 1f 44 00 00    	nopw   0x0(%rax,%rax,1)
  401db0:	44 89 ca             	mov    %r9d,%edx
  401db3:	83 e2 80             	and    $0xffffff80,%edx
  401db6:	62 f2 c5 28 29 c8    	vpcmpeqq %ymm0,%ymm7,%k1
  401dbc:	c5 fd 6f 14 13       	vmovdqa (%rbx,%rdx,1),%ymm2
  401dc1:	c5 fd 7f 54 24 20    	vmovdqa %ymm2,0x20(%rsp)
  401dc7:	62 f1 fd 29 6f ca    	vmovdqa64 %ymm2,%ymm1{%k1}
  401dcd:	c5 c5 d4 d3          	vpaddq %ymm3,%ymm7,%ymm2
  401dd1:	62 f2 ed 28 29 c8    	vpcmpeqq %ymm0,%ymm2,%k1
  401dd7:	c5 fd 6f 54 13 20    	vmovdqa 0x20(%rbx,%rdx,1),%ymm2
  401ddd:	c5 fd 7f 54 24 20    	vmovdqa %ymm2,0x20(%rsp)
  401de3:	62 f1 fd 29 6f ca    	vmovdqa64 %ymm2,%ymm1{%k1}
  401de9:	c5 b5 d4 d7          	vpaddq %ymm7,%ymm9,%ymm2
  401ded:	62 f2 ed 28 29 c8    	vpcmpeqq %ymm0,%ymm2,%k1
  401df3:	c5 fd 6f 54 13 40    	vmovdqa 0x40(%rbx,%rdx,1),%ymm2
  401df9:	c5 fd 7f 54 24 20    	vmovdqa %ymm2,0x20(%rsp)
  401dff:	62 f1 fd 29 6f ca    	vmovdqa64 %ymm2,%ymm1{%k1}
  401e05:	c5 c5 d4 d5          	vpaddq %ymm5,%ymm7,%ymm2
  401e09:	c5 fd 6f 64 13 60    	vmovdqa 0x60(%rbx,%rdx,1),%ymm4
  401e0f:	c5 fd 7f 64 24 20    	vmovdqa %ymm4,0x20(%rsp)
  401e15:	62 f2 ed 28 29 c8    	vpcmpeqq %ymm0,%ymm2,%k1
  401e1b:	62 f1 fd 29 6f cc    	vmovdqa64 %ymm4,%ymm1{%k1}
  401e21:	c5 c5 d4 fe          	vpaddq %ymm6,%ymm7,%ymm7
  401e25:	49 83 c0 04          	add    $0x4,%r8
  401e29:	49 83 e9 80          	sub    $0xffffffffffffff80,%r9
  401e2d:	4d 39 c6             	cmp    %r8,%r14
  401e30:	0f 85 7a ff ff ff    	jne    401db0 <uint64_t_secure_double_load_impl+0x140>
  401e36:	48 85 c9             	test   %rcx,%rcx
  401e39:	74 3f                	je     401e7a <uint64_t_secure_double_load_impl+0x20a>
  401e3b:	49 c1 e0 05          	shl    $0x5,%r8
  401e3f:	48 f7 d9             	neg    %rcx
  401e42:	66 66 66 66 66 2e 0f 	data16 data16 data16 data16 nopw %cs:0x0(%rax,%rax,1)
  401e49:	1f 84 00 00 00 00 00 
  401e50:	44 89 c2             	mov    %r8d,%edx
  401e53:	83 e2 e0             	and    $0xffffffe0,%edx
  401e56:	62 f2 c5 28 29 c8    	vpcmpeqq %ymm0,%ymm7,%k1
  401e5c:	c5 fd 6f 14 13       	vmovdqa (%rbx,%rdx,1),%ymm2
  401e61:	c5 fd 7f 54 24 20    	vmovdqa %ymm2,0x20(%rsp)
  401e67:	62 f1 fd 29 6f ca    	vmovdqa64 %ymm2,%ymm1{%k1}
  401e6d:	c5 c5 d4 fb          	vpaddq %ymm3,%ymm7,%ymm7
  401e71:	49 83 c0 20          	add    $0x20,%r8
  401e75:	48 ff c1             	inc    %rcx
  401e78:	75 d6                	jne    401e50 <uint64_t_secure_double_load_impl+0x1e0>
  401e7a:	c4 e3 7d 39 ca 01    	vextracti128 $0x1,%ymm1,%xmm2
  401e80:	c5 e9 d4 d1          	vpaddq %xmm1,%xmm2,%xmm2
  401e84:	c5 f9 70 e2 ee       	vpshufd $0xee,%xmm2,%xmm4
  401e89:	c5 d9 d4 d2          	vpaddq %xmm2,%xmm4,%xmm2
  401e8d:	c4 e1 f9 7e d1       	vmovq  %xmm2,%rcx
  401e92:	48 09 c1             	or     %rax,%rcx
  401e95:	c4 e2 ab f7 c1       	shrx   %r10,%rcx,%rax
  401e9a:	41 83 fc 02          	cmp    $0x2,%r12d
  401e9e:	0f 85 67 fe ff ff    	jne    401d0b <uint64_t_secure_double_load_impl+0x9b>
  401ea4:	46 8b 64 3e 10       	mov    0x10(%rsi,%r15,1),%r12d
  401ea9:	41 83 fc 04          	cmp    $0x4,%r12d
  401ead:	0f 82 3d fe ff ff    	jb     401cf0 <uint64_t_secure_double_load_impl+0x80>
  401eb3:	49 8b 1b             	mov    (%r11),%rbx
  401eb6:	48 8b 4c 24 08       	mov    0x8(%rsp),%rcx
  401ebb:	48 29 d9             	sub    %rbx,%rcx
  401ebe:	62 f2 fd 28 7c f9    	vpbroadcastq %rcx,%ymm7
  401ec4:	4e 8b 5c 3e 08       	mov    0x8(%rsi,%r15,1),%r11
  401ec9:	41 c1 ec 02          	shr    $0x2,%r12d
  401ecd:	b9 01 00 00 00       	mov    $0x1,%ecx
  401ed2:	44 0f 44 e1          	cmove  %ecx,%r12d
  401ed6:	49 8d 4c 24 ff       	lea    -0x1(%r12),%rcx
  401edb:	45 89 e6             	mov    %r12d,%r14d
  401ede:	41 83 e6 03          	and    $0x3,%r14d
  401ee2:	48 83 f9 03          	cmp    $0x3,%rcx
  401ee6:	73 07                	jae    401eef <uint64_t_secure_double_load_impl+0x27f>
  401ee8:	31 d2                	xor    %edx,%edx
  401eea:	e9 bc 00 00 00       	jmpq   401fab <uint64_t_secure_double_load_impl+0x33b>
  401eef:	41 83 e4 fc          	and    $0xfffffffc,%r12d
  401ef3:	49 8d 4b 60          	lea    0x60(%r11),%rcx
  401ef7:	31 d2                	xor    %edx,%edx
  401ef9:	0f 1f 80 00 00 00 00 	nopl   0x0(%rax)
  401f00:	c5 fe 6f 51 a0       	vmovdqu -0x60(%rcx),%ymm2
  401f05:	c5 dd 76 e4          	vpcmpeqd %ymm4,%ymm4,%ymm4
  401f09:	c4 41 29 ef d2       	vpxor  %xmm10,%xmm10,%xmm10
  401f0e:	c4 62 dd 91 14 13    	vpgatherqq %ymm4,(%rbx,%ymm2,1),%ymm10
  401f14:	c5 7d 7f 54 24 20    	vmovdqa %ymm10,0x20(%rsp)
  401f1a:	c5 fe 6f 61 c0       	vmovdqu -0x40(%rcx),%ymm4
  401f1f:	c4 41 25 76 db       	vpcmpeqd %ymm11,%ymm11,%ymm11
  401f24:	c4 41 19 ef e4       	vpxor  %xmm12,%xmm12,%xmm12
  401f29:	c4 62 a5 91 24 23    	vpgatherqq %ymm11,(%rbx,%ymm4,1),%ymm12
  401f2f:	c5 7d 7f 64 24 20    	vmovdqa %ymm12,0x20(%rsp)
  401f35:	c5 7e 6f 59 e0       	vmovdqu -0x20(%rcx),%ymm11
  401f3a:	c4 41 15 76 ed       	vpcmpeqd %ymm13,%ymm13,%ymm13
  401f3f:	c4 41 09 ef f6       	vpxor  %xmm14,%xmm14,%xmm14
  401f44:	c4 22 95 91 34 1b    	vpgatherqq %ymm13,(%rbx,%ymm11,1),%ymm14
  401f4a:	62 f2 ed 28 29 cf    	vpcmpeqq %ymm7,%ymm2,%k1
  401f50:	c5 7d 7f 74 24 20    	vmovdqa %ymm14,0x20(%rsp)
  401f56:	c5 fe 6f 11          	vmovdqu (%rcx),%ymm2
  401f5a:	c4 41 15 76 ed       	vpcmpeqd %ymm13,%ymm13,%ymm13
  401f5f:	c4 41 01 ef ff       	vpxor  %xmm15,%xmm15,%xmm15
  401f64:	c4 62 95 91 3c 13    	vpgatherqq %ymm13,(%rbx,%ymm2,1),%ymm15
  401f6a:	62 d1 fd 29 6f ca    	vmovdqa64 %ymm10,%ymm1{%k1}
  401f70:	62 f2 dd 28 29 cf    	vpcmpeqq %ymm7,%ymm4,%k1
  401f76:	62 d1 fd 29 6f cc    	vmovdqa64 %ymm12,%ymm1{%k1}
  401f7c:	62 f2 a5 28 29 cf    	vpcmpeqq %ymm7,%ymm11,%k1
  401f82:	c5 7d 7f 7c 24 20    	vmovdqa %ymm15,0x20(%rsp)
  401f88:	62 d1 fd 29 6f ce    	vmovdqa64 %ymm14,%ymm1{%k1}
  401f8e:	62 f2 ed 28 29 cf    	vpcmpeqq %ymm7,%ymm2,%k1
  401f94:	62 d1 fd 29 6f cf    	vmovdqa64 %ymm15,%ymm1{%k1}
  401f9a:	48 83 c2 04          	add    $0x4,%rdx
  401f9e:	48 83 e9 80          	sub    $0xffffffffffffff80,%rcx
  401fa2:	49 39 d4             	cmp    %rdx,%r12
  401fa5:	0f 85 55 ff ff ff    	jne    401f00 <uint64_t_secure_double_load_impl+0x290>
  401fab:	4d 85 f6             	test   %r14,%r14
  401fae:	0f 84 3c fd ff ff    	je     401cf0 <uint64_t_secure_double_load_impl+0x80>
  401fb4:	48 c1 e2 05          	shl    $0x5,%rdx
  401fb8:	49 01 d3             	add    %rdx,%r11
  401fbb:	49 c1 e6 05          	shl    $0x5,%r14
  401fbf:	31 c9                	xor    %ecx,%ecx
  401fc1:	66 66 66 66 66 66 2e 	data16 data16 data16 data16 data16 nopw %cs:0x0(%rax,%rax,1)
  401fc8:	0f 1f 84 00 00 00 00 
  401fcf:	00 
  401fd0:	c4 c1 7e 6f 14 0b    	vmovdqu (%r11,%rcx,1),%ymm2
  401fd6:	c5 dd 76 e4          	vpcmpeqd %ymm4,%ymm4,%ymm4
  401fda:	c4 41 29 ef d2       	vpxor  %xmm10,%xmm10,%xmm10
  401fdf:	c4 62 dd 91 14 13    	vpgatherqq %ymm4,(%rbx,%ymm2,1),%ymm10
  401fe5:	c5 7d 7f 54 24 20    	vmovdqa %ymm10,0x20(%rsp)
  401feb:	62 f2 ed 28 29 cf    	vpcmpeqq %ymm7,%ymm2,%k1
  401ff1:	62 d1 fd 29 6f ca    	vmovdqa64 %ymm10,%ymm1{%k1}
  401ff7:	48 83 c1 20          	add    $0x20,%rcx
  401ffb:	49 39 ce             	cmp    %rcx,%r14
  401ffe:	75 d0                	jne    401fd0 <uint64_t_secure_double_load_impl+0x360>
  402000:	e9 eb fc ff ff       	jmpq   401cf0 <uint64_t_secure_double_load_impl+0x80>
  402005:	41 83 fc 01          	cmp    $0x1,%r12d
  402009:	0f 85 8b fe ff ff    	jne    401e9a <uint64_t_secure_double_load_impl+0x22a>
  40200f:	42 8b 4c 3e 10       	mov    0x10(%rsi,%r15,1),%ecx
  402014:	48 89 4c 24 10       	mov    %rcx,0x10(%rsp)
  402019:	48 85 c9             	test   %rcx,%rcx
  40201c:	0f 84 e9 fc ff ff    	je     401d0b <uint64_t_secure_double_load_impl+0x9b>
  402022:	4d 8b 33             	mov    (%r11),%r14
  402025:	4e 8b 44 3e 08       	mov    0x8(%rsi,%r15,1),%r8
  40202a:	48 8b 54 24 10       	mov    0x10(%rsp),%rdx
  40202f:	48 8d 4a ff          	lea    -0x1(%rdx),%rcx
  402033:	83 e2 07             	and    $0x7,%edx
  402036:	48 89 54 24 18       	mov    %rdx,0x18(%rsp)
  40203b:	48 83 f9 07          	cmp    $0x7,%rcx
  40203f:	73 3d                	jae    40207e <uint64_t_secure_double_load_impl+0x40e>
  402041:	31 c9                	xor    %ecx,%ecx
  402043:	48 83 7c 24 18 00    	cmpq   $0x0,0x18(%rsp)
  402049:	0f 84 4b fe ff ff    	je     401e9a <uint64_t_secure_double_load_impl+0x22a>
  40204f:	4d 8d 04 c8          	lea    (%r8,%rcx,8),%r8
  402053:	31 d2                	xor    %edx,%edx
  402055:	eb 0e                	jmp    402065 <uint64_t_secure_double_load_impl+0x3f5>
  402057:	48 ff c2             	inc    %rdx
  40205a:	48 39 54 24 18       	cmp    %rdx,0x18(%rsp)
  40205f:	0f 84 35 fe ff ff    	je     401e9a <uint64_t_secure_double_load_impl+0x22a>
  402065:	49 8b 1c d0          	mov    (%r8,%rdx,8),%rbx
  402069:	4d 8d 0c 1e          	lea    (%r14,%rbx,1),%r9
  40206d:	49 8b 0c 1e          	mov    (%r14,%rbx,1),%rcx
  402071:	4c 3b 4c 24 08       	cmp    0x8(%rsp),%r9
  402076:	75 df                	jne    402057 <uint64_t_secure_double_load_impl+0x3e7>
  402078:	49 8b 04 1e          	mov    (%r14,%rbx,1),%rax
  40207c:	eb d9                	jmp    402057 <uint64_t_secure_double_load_impl+0x3e7>
  40207e:	48 8b 4c 24 10       	mov    0x10(%rsp),%rcx
  402083:	83 e1 f8             	and    $0xfffffff8,%ecx
  402086:	48 89 4c 24 10       	mov    %rcx,0x10(%rsp)
  40208b:	31 c9                	xor    %ecx,%ecx
  40208d:	eb 0b                	jmp    40209a <uint64_t_secure_double_load_impl+0x42a>
  40208f:	48 83 c1 08          	add    $0x8,%rcx
  402093:	48 39 4c 24 10       	cmp    %rcx,0x10(%rsp)
  402098:	74 a9                	je     402043 <uint64_t_secure_double_load_impl+0x3d3>
  40209a:	49 8b 14 c8          	mov    (%r8,%rcx,8),%rdx
  40209e:	49 8d 1c 16          	lea    (%r14,%rdx,1),%rbx
  4020a2:	4d 8b 0c 16          	mov    (%r14,%rdx,1),%r9
  4020a6:	48 3b 5c 24 08       	cmp    0x8(%rsp),%rbx
  4020ab:	75 04                	jne    4020b1 <uint64_t_secure_double_load_impl+0x441>
  4020ad:	49 8b 04 16          	mov    (%r14,%rdx,1),%rax
  4020b1:	49 8b 54 c8 08       	mov    0x8(%r8,%rcx,8),%rdx
  4020b6:	4d 8d 0c 16          	lea    (%r14,%rdx,1),%r9
  4020ba:	49 8b 1c 16          	mov    (%r14,%rdx,1),%rbx
  4020be:	4c 3b 4c 24 08       	cmp    0x8(%rsp),%r9
  4020c3:	75 04                	jne    4020c9 <uint64_t_secure_double_load_impl+0x459>
  4020c5:	49 8b 04 16          	mov    (%r14,%rdx,1),%rax
  4020c9:	49 8b 54 c8 10       	mov    0x10(%r8,%rcx,8),%rdx
  4020ce:	4d 8d 0c 16          	lea    (%r14,%rdx,1),%r9
  4020d2:	49 8b 1c 16          	mov    (%r14,%rdx,1),%rbx
  4020d6:	4c 3b 4c 24 08       	cmp    0x8(%rsp),%r9
  4020db:	75 04                	jne    4020e1 <uint64_t_secure_double_load_impl+0x471>
  4020dd:	49 8b 04 16          	mov    (%r14,%rdx,1),%rax
  4020e1:	49 8b 54 c8 18       	mov    0x18(%r8,%rcx,8),%rdx
  4020e6:	4d 8d 0c 16          	lea    (%r14,%rdx,1),%r9
  4020ea:	49 8b 1c 16          	mov    (%r14,%rdx,1),%rbx
  4020ee:	4c 3b 4c 24 08       	cmp    0x8(%rsp),%r9
  4020f3:	75 04                	jne    4020f9 <uint64_t_secure_double_load_impl+0x489>
  4020f5:	49 8b 04 16          	mov    (%r14,%rdx,1),%rax
  4020f9:	49 8b 54 c8 20       	mov    0x20(%r8,%rcx,8),%rdx
  4020fe:	4d 8d 0c 16          	lea    (%r14,%rdx,1),%r9
  402102:	49 8b 1c 16          	mov    (%r14,%rdx,1),%rbx
  402106:	4c 3b 4c 24 08       	cmp    0x8(%rsp),%r9
  40210b:	75 04                	jne    402111 <uint64_t_secure_double_load_impl+0x4a1>
  40210d:	49 8b 04 16          	mov    (%r14,%rdx,1),%rax
  402111:	49 8b 54 c8 28       	mov    0x28(%r8,%rcx,8),%rdx
  402116:	4d 8d 0c 16          	lea    (%r14,%rdx,1),%r9
  40211a:	49 8b 1c 16          	mov    (%r14,%rdx,1),%rbx
  40211e:	4c 3b 4c 24 08       	cmp    0x8(%rsp),%r9
  402123:	75 04                	jne    402129 <uint64_t_secure_double_load_impl+0x4b9>
  402125:	49 8b 04 16          	mov    (%r14,%rdx,1),%rax
  402129:	49 8b 54 c8 30       	mov    0x30(%r8,%rcx,8),%rdx
  40212e:	4d 8d 0c 16          	lea    (%r14,%rdx,1),%r9
  402132:	49 8b 1c 16          	mov    (%r14,%rdx,1),%rbx
  402136:	4c 3b 4c 24 08       	cmp    0x8(%rsp),%r9
  40213b:	75 04                	jne    402141 <uint64_t_secure_double_load_impl+0x4d1>
  40213d:	49 8b 04 16          	mov    (%r14,%rdx,1),%rax
  402141:	49 8b 54 c8 38       	mov    0x38(%r8,%rcx,8),%rdx
  402146:	4d 8d 0c 16          	lea    (%r14,%rdx,1),%r9
  40214a:	49 8b 1c 16          	mov    (%r14,%rdx,1),%rbx
  40214e:	4c 3b 4c 24 08       	cmp    0x8(%rsp),%r9
  402153:	0f 85 36 ff ff ff    	jne    40208f <uint64_t_secure_double_load_impl+0x41f>
  402159:	49 8b 04 16          	mov    (%r14,%rdx,1),%rax
  40215d:	e9 2d ff ff ff       	jmpq   40208f <uint64_t_secure_double_load_impl+0x41f>
  402162:	31 c0                	xor    %eax,%eax
  402164:	48 8d 65 d8          	lea    -0x28(%rbp),%rsp
  402168:	5b                   	pop    %rbx
  402169:	41 5c                	pop    %r12
  40216b:	41 5d                	pop    %r13
  40216d:	41 5e                	pop    %r14
  40216f:	41 5f                	pop    %r15
  402171:	5d                   	pop    %rbp
  402172:	c5 f8 77             	vzeroupper 
  402175:	c3                   	retq   
  402176:	66 2e 0f 1f 84 00 00 	nopw   %cs:0x0(%rax,%rax,1)
  40217d:	00 00 00 

0000000000402180 <uint64_t_secure_load_sensitive>:
  402180:	e9 eb fa ff ff       	jmpq   401c70 <uint64_t_secure_double_load_impl>
  402185:	66 66 2e 0f 1f 84 00 	data16 nopw %cs:0x0(%rax,%rax,1)
  40218c:	00 00 00 00 

0000000000402190 <uint32_t_secure_load_sensitive>:
  402190:	e9 db fa ff ff       	jmpq   401c70 <uint64_t_secure_double_load_impl>
  402195:	66 66 2e 0f 1f 84 00 	data16 nopw %cs:0x0(%rax,%rax,1)
  40219c:	00 00 00 00 

00000000004021a0 <uint16_t_secure_load_sensitive>:
  4021a0:	50                   	push   %rax
  4021a1:	e8 ca fa ff ff       	callq  401c70 <uint64_t_secure_double_load_impl>
  4021a6:	59                   	pop    %rcx
  4021a7:	c3                   	retq   
  4021a8:	0f 1f 84 00 00 00 00 	nopl   0x0(%rax,%rax,1)
  4021af:	00 

00000000004021b0 <uint8_t_secure_load_sensitive>:
  4021b0:	50                   	push   %rax
  4021b1:	e8 ba fa ff ff       	callq  401c70 <uint64_t_secure_double_load_impl>
  4021b6:	59                   	pop    %rcx
  4021b7:	c3                   	retq   
  4021b8:	0f 1f 84 00 00 00 00 	nopl   0x0(%rax,%rax,1)
  4021bf:	00 

00000000004021c0 <uint64_t_secure_load_single>:
  4021c0:	48 8b 07             	mov    (%rdi),%rax
  4021c3:	c3                   	retq   
  4021c4:	66 66 66 2e 0f 1f 84 	data16 data16 nopw %cs:0x0(%rax,%rax,1)
  4021cb:	00 00 00 00 00 

00000000004021d0 <uint32_t_secure_load_single>:
  4021d0:	8b 07                	mov    (%rdi),%eax
  4021d2:	c3                   	retq   
  4021d3:	66 66 66 66 2e 0f 1f 	data16 data16 data16 nopw %cs:0x0(%rax,%rax,1)
  4021da:	84 00 00 00 00 00 

00000000004021e0 <uint16_t_secure_load_single>:
  4021e0:	0f b7 07             	movzwl (%rdi),%eax
  4021e3:	c3                   	retq   
  4021e4:	66 66 66 2e 0f 1f 84 	data16 data16 nopw %cs:0x0(%rax,%rax,1)
  4021eb:	00 00 00 00 00 

00000000004021f0 <uint8_t_secure_load_single>:
  4021f0:	8a 07                	mov    (%rdi),%al
  4021f2:	c3                   	retq   
  4021f3:	66 66 66 66 2e 0f 1f 	data16 data16 data16 nopw %cs:0x0(%rax,%rax,1)
  4021fa:	84 00 00 00 00 00 

0000000000402200 <uint64_t_secure_load_single_sensitive>:
  402200:	48 8b 06             	mov    (%rsi),%rax
  402203:	8b 4e 18             	mov    0x18(%rsi),%ecx
  402206:	48 8b 14 08          	mov    (%rax,%rcx,1),%rdx
  40220a:	48 8b 04 08          	mov    (%rax,%rcx,1),%rax
  40220e:	c3                   	retq   
  40220f:	90                   	nop

0000000000402210 <uint32_t_secure_load_single_sensitive>:
  402210:	48 8b 06             	mov    (%rsi),%rax
  402213:	8b 4e 18             	mov    0x18(%rsi),%ecx
  402216:	8b 14 08             	mov    (%rax,%rcx,1),%edx
  402219:	8b 04 08             	mov    (%rax,%rcx,1),%eax
  40221c:	c3                   	retq   
  40221d:	0f 1f 00             	nopl   (%rax)

0000000000402220 <uint16_t_secure_load_single_sensitive>:
  402220:	48 8b 06             	mov    (%rsi),%rax
  402223:	8b 4e 18             	mov    0x18(%rsi),%ecx
  402226:	0f b7 14 08          	movzwl (%rax,%rcx,1),%edx
  40222a:	0f b7 04 08          	movzwl (%rax,%rcx,1),%eax
  40222e:	c3                   	retq   
  40222f:	90                   	nop

0000000000402230 <uint8_t_secure_load_single_sensitive>:
  402230:	48 8b 06             	mov    (%rsi),%rax
  402233:	8b 4e 18             	mov    0x18(%rsi),%ecx
  402236:	8a 14 08             	mov    (%rax,%rcx,1),%dl
  402239:	8a 04 08             	mov    (%rax,%rcx,1),%al
  40223c:	c3                   	retq   
  40223d:	0f 1f 00             	nopl   (%rax)

0000000000402240 <uint64_t_secure_store_impl>:
  402240:	41 57                	push   %r15
  402242:	41 56                	push   %r14
  402244:	41 54                	push   %r12
  402246:	53                   	push   %rbx
  402247:	85 c9                	test   %ecx,%ecx
  402249:	0f 84 33 02 00 00    	je     402482 <uint64_t_secure_store_impl+0x242>
  40224f:	8d 04 f5 00 00 00 00 	lea    0x0(,%rsi,8),%eax
  402256:	c4 e2 f9 f7 df       	shlx   %rax,%rdi,%rbx
  40225b:	62 f2 fd 28 7c c3    	vpbroadcastq %rbx,%ymm0
  402261:	48 89 f3             	mov    %rsi,%rbx
  402264:	48 83 e3 f8          	and    $0xfffffffffffffff8,%rbx
  402268:	62 f2 fd 28 7c cb    	vpbroadcastq %rbx,%ymm1
  40226e:	48 c7 c3 ff ff ff ff 	mov    $0xffffffffffffffff,%rbx
  402275:	c4 e2 f9 f7 c3       	shlx   %rax,%rbx,%rax
  40227a:	62 f2 fd 28 7c d0    	vpbroadcastq %rax,%ymm2
  402280:	41 89 ce             	mov    %ecx,%r14d
  402283:	45 31 ff             	xor    %r15d,%r15d
  402286:	c5 f9 6f 1d 82 3d 00 	vmovdqa 0x3d82(%rip),%xmm3        # 406010 <_IO_stdin_used+0x10>
  40228d:	00 
  40228e:	c4 e2 7d 59 25 89 3d 	vpbroadcastq 0x3d89(%rip),%ymm4        # 406020 <_IO_stdin_used+0x20>
  402295:	00 00 
  402297:	eb 13                	jmp    4022ac <uint64_t_secure_store_impl+0x6c>
  402299:	0f 1f 80 00 00 00 00 	nopl   0x0(%rax)
  4022a0:	49 ff c7             	inc    %r15
  4022a3:	4d 39 f7             	cmp    %r14,%r15
  4022a6:	0f 84 d6 01 00 00    	je     402482 <uint64_t_secure_store_impl+0x242>
  4022ac:	4c 89 f9             	mov    %r15,%rcx
  4022af:	48 c1 e1 05          	shl    $0x5,%rcx
  4022b3:	4c 8d 14 0a          	lea    (%rdx,%rcx,1),%r10
  4022b7:	83 7c 0a 14 00       	cmpl   $0x0,0x14(%rdx,%rcx,1)
  4022bc:	0f 85 7f 00 00 00    	jne    402341 <uint64_t_secure_store_impl+0x101>
  4022c2:	4d 8b 02             	mov    (%r10),%r8
  4022c5:	8b 5c 0a 18          	mov    0x18(%rdx,%rcx,1),%ebx
  4022c9:	44 8b 4c 0a 1c       	mov    0x1c(%rdx,%rcx,1),%r9d
  4022ce:	4c 01 c3             	add    %r8,%rbx
  4022d1:	48 83 e3 e0          	and    $0xffffffffffffffe0,%rbx
  4022d5:	4d 01 c1             	add    %r8,%r9
  4022d8:	49 39 d9             	cmp    %rbx,%r9
  4022db:	72 c3                	jb     4022a0 <uint64_t_secure_store_impl+0x60>
  4022dd:	48 01 d1             	add    %rdx,%rcx
  4022e0:	48 83 c1 1c          	add    $0x1c,%rcx
  4022e4:	62 f2 fd 08 7c eb    	vpbroadcastq %rbx,%xmm5
  4022ea:	c5 d1 eb eb          	vpor   %xmm3,%xmm5,%xmm5
  4022ee:	c4 e1 f9 6e f3       	vmovq  %rbx,%xmm6
  4022f3:	48 89 d8             	mov    %rbx,%rax
  4022f6:	48 83 c8 18          	or     $0x18,%rax
  4022fa:	c4 e1 f9 6e f8       	vmovq  %rax,%xmm7
  4022ff:	c4 e3 41 0f fd 08    	vpalignr $0x8,%xmm5,%xmm7,%xmm7
  402305:	c5 c9 6c ed          	vpunpcklqdq %xmm5,%xmm6,%xmm5
  402309:	c4 e3 55 38 ef 01    	vinserti128 $0x1,%xmm7,%ymm5,%ymm5
  40230f:	90                   	nop
  402310:	62 f2 d5 28 29 c9    	vpcmpeqq %ymm1,%ymm5,%k1
  402316:	62 f1 fd a9 6f f2    	vmovdqa64 %ymm2,%ymm6{%k1}{z}
  40231c:	c5 fe 6f 3b          	vmovdqu (%rbx),%ymm7
  402320:	c4 e3 45 4c f0 60    	vpblendvb %ymm6,%ymm0,%ymm7,%ymm6
  402326:	c5 fe 7f 33          	vmovdqu %ymm6,(%rbx)
  40232a:	c5 d5 d4 ec          	vpaddq %ymm4,%ymm5,%ymm5
  40232e:	48 83 c3 20          	add    $0x20,%rbx
  402332:	8b 01                	mov    (%rcx),%eax
  402334:	49 03 02             	add    (%r10),%rax
  402337:	48 39 c3             	cmp    %rax,%rbx
  40233a:	76 d4                	jbe    402310 <uint64_t_secure_store_impl+0xd0>
  40233c:	e9 5f ff ff ff       	jmpq   4022a0 <uint64_t_secure_store_impl+0x60>
  402341:	44 8b 5c 0a 10       	mov    0x10(%rdx,%rcx,1),%r11d
  402346:	4d 85 db             	test   %r11,%r11
  402349:	0f 84 51 ff ff ff    	je     4022a0 <uint64_t_secure_store_impl+0x60>
  40234f:	4d 8b 02             	mov    (%r10),%r8
  402352:	4c 8b 54 0a 08       	mov    0x8(%rdx,%rcx,1),%r10
  402357:	49 8d 43 ff          	lea    -0x1(%r11),%rax
  40235b:	45 89 d9             	mov    %r11d,%r9d
  40235e:	41 83 e1 07          	and    $0x7,%r9d
  402362:	48 83 f8 07          	cmp    $0x7,%rax
  402366:	73 39                	jae    4023a1 <uint64_t_secure_store_impl+0x161>
  402368:	31 db                	xor    %ebx,%ebx
  40236a:	4d 85 c9             	test   %r9,%r9
  40236d:	0f 84 2d ff ff ff    	je     4022a0 <uint64_t_secure_store_impl+0x60>
  402373:	4d 8d 14 da          	lea    (%r10,%rbx,8),%r10
  402377:	31 c9                	xor    %ecx,%ecx
  402379:	eb 10                	jmp    40238b <uint64_t_secure_store_impl+0x14b>
  40237b:	49 89 04 18          	mov    %rax,(%r8,%rbx,1)
  40237f:	48 ff c1             	inc    %rcx
  402382:	49 39 c9             	cmp    %rcx,%r9
  402385:	0f 84 15 ff ff ff    	je     4022a0 <uint64_t_secure_store_impl+0x60>
  40238b:	49 8b 1c ca          	mov    (%r10,%rcx,8),%rbx
  40238f:	4d 8d 1c 18          	lea    (%r8,%rbx,1),%r11
  402393:	48 89 f8             	mov    %rdi,%rax
  402396:	49 39 f3             	cmp    %rsi,%r11
  402399:	74 e0                	je     40237b <uint64_t_secure_store_impl+0x13b>
  40239b:	49 8b 04 18          	mov    (%r8,%rbx,1),%rax
  40239f:	eb da                	jmp    40237b <uint64_t_secure_store_impl+0x13b>
  4023a1:	41 83 e3 f8          	and    $0xfffffff8,%r11d
  4023a5:	31 db                	xor    %ebx,%ebx
  4023a7:	eb 0d                	jmp    4023b6 <uint64_t_secure_store_impl+0x176>
  4023a9:	49 89 0c 00          	mov    %rcx,(%r8,%rax,1)
  4023ad:	48 83 c3 08          	add    $0x8,%rbx
  4023b1:	49 39 db             	cmp    %rbx,%r11
  4023b4:	74 b4                	je     40236a <uint64_t_secure_store_impl+0x12a>
  4023b6:	49 8b 04 da          	mov    (%r10,%rbx,8),%rax
  4023ba:	4d 8d 24 00          	lea    (%r8,%rax,1),%r12
  4023be:	48 89 f9             	mov    %rdi,%rcx
  4023c1:	49 39 f4             	cmp    %rsi,%r12
  4023c4:	74 04                	je     4023ca <uint64_t_secure_store_impl+0x18a>
  4023c6:	49 8b 0c 00          	mov    (%r8,%rax,1),%rcx
  4023ca:	49 89 0c 00          	mov    %rcx,(%r8,%rax,1)
  4023ce:	49 8b 44 da 08       	mov    0x8(%r10,%rbx,8),%rax
  4023d3:	4d 8d 24 00          	lea    (%r8,%rax,1),%r12
  4023d7:	48 89 f9             	mov    %rdi,%rcx
  4023da:	49 39 f4             	cmp    %rsi,%r12
  4023dd:	74 04                	je     4023e3 <uint64_t_secure_store_impl+0x1a3>
  4023df:	49 8b 0c 00          	mov    (%r8,%rax,1),%rcx
  4023e3:	49 89 0c 00          	mov    %rcx,(%r8,%rax,1)
  4023e7:	49 8b 44 da 10       	mov    0x10(%r10,%rbx,8),%rax
  4023ec:	4d 8d 24 00          	lea    (%r8,%rax,1),%r12
  4023f0:	48 89 f9             	mov    %rdi,%rcx
  4023f3:	49 39 f4             	cmp    %rsi,%r12
  4023f6:	74 04                	je     4023fc <uint64_t_secure_store_impl+0x1bc>
  4023f8:	49 8b 0c 00          	mov    (%r8,%rax,1),%rcx
  4023fc:	49 89 0c 00          	mov    %rcx,(%r8,%rax,1)
  402400:	49 8b 44 da 18       	mov    0x18(%r10,%rbx,8),%rax
  402405:	4d 8d 24 00          	lea    (%r8,%rax,1),%r12
  402409:	48 89 f9             	mov    %rdi,%rcx
  40240c:	49 39 f4             	cmp    %rsi,%r12
  40240f:	74 04                	je     402415 <uint64_t_secure_store_impl+0x1d5>
  402411:	49 8b 0c 00          	mov    (%r8,%rax,1),%rcx
  402415:	49 89 0c 00          	mov    %rcx,(%r8,%rax,1)
  402419:	49 8b 44 da 20       	mov    0x20(%r10,%rbx,8),%rax
  40241e:	4d 8d 24 00          	lea    (%r8,%rax,1),%r12
  402422:	48 89 f9             	mov    %rdi,%rcx
  402425:	49 39 f4             	cmp    %rsi,%r12
  402428:	74 04                	je     40242e <uint64_t_secure_store_impl+0x1ee>
  40242a:	49 8b 0c 00          	mov    (%r8,%rax,1),%rcx
  40242e:	49 89 0c 00          	mov    %rcx,(%r8,%rax,1)
  402432:	49 8b 44 da 28       	mov    0x28(%r10,%rbx,8),%rax
  402437:	4d 8d 24 00          	lea    (%r8,%rax,1),%r12
  40243b:	48 89 f9             	mov    %rdi,%rcx
  40243e:	49 39 f4             	cmp    %rsi,%r12
  402441:	74 04                	je     402447 <uint64_t_secure_store_impl+0x207>
  402443:	49 8b 0c 00          	mov    (%r8,%rax,1),%rcx
  402447:	49 89 0c 00          	mov    %rcx,(%r8,%rax,1)
  40244b:	49 8b 44 da 30       	mov    0x30(%r10,%rbx,8),%rax
  402450:	4d 8d 24 00          	lea    (%r8,%rax,1),%r12
  402454:	48 89 f9             	mov    %rdi,%rcx
  402457:	49 39 f4             	cmp    %rsi,%r12
  40245a:	74 04                	je     402460 <uint64_t_secure_store_impl+0x220>
  40245c:	49 8b 0c 00          	mov    (%r8,%rax,1),%rcx
  402460:	49 89 0c 00          	mov    %rcx,(%r8,%rax,1)
  402464:	49 8b 44 da 38       	mov    0x38(%r10,%rbx,8),%rax
  402469:	4d 8d 24 00          	lea    (%r8,%rax,1),%r12
  40246d:	48 89 f9             	mov    %rdi,%rcx
  402470:	49 39 f4             	cmp    %rsi,%r12
  402473:	0f 84 30 ff ff ff    	je     4023a9 <uint64_t_secure_store_impl+0x169>
  402479:	49 8b 0c 00          	mov    (%r8,%rax,1),%rcx
  40247d:	e9 27 ff ff ff       	jmpq   4023a9 <uint64_t_secure_store_impl+0x169>
  402482:	5b                   	pop    %rbx
  402483:	41 5c                	pop    %r12
  402485:	41 5e                	pop    %r14
  402487:	41 5f                	pop    %r15
  402489:	c5 f8 77             	vzeroupper 
  40248c:	c3                   	retq   
  40248d:	0f 1f 00             	nopl   (%rax)

0000000000402490 <uint32_t_secure_store_impl>:
  402490:	55                   	push   %rbp
  402491:	41 56                	push   %r14
  402493:	53                   	push   %rbx
  402494:	85 c9                	test   %ecx,%ecx
  402496:	0f 84 3e 01 00 00    	je     4025da <uint32_t_secure_store_impl+0x14a>
  40249c:	89 f8                	mov    %edi,%eax
  40249e:	8d 2c f5 00 00 00 00 	lea    0x0(,%rsi,8),%ebp
  4024a5:	c4 e2 d1 f7 c0       	shlx   %rbp,%rax,%rax
  4024aa:	62 f2 fd 28 7c c0    	vpbroadcastq %rax,%ymm0
  4024b0:	48 89 f0             	mov    %rsi,%rax
  4024b3:	48 83 e0 f8          	and    $0xfffffffffffffff8,%rax
  4024b7:	62 f2 fd 28 7c c8    	vpbroadcastq %rax,%ymm1
  4024bd:	b8 ff ff ff ff       	mov    $0xffffffff,%eax
  4024c2:	c4 e2 d1 f7 c0       	shlx   %rbp,%rax,%rax
  4024c7:	62 f2 fd 28 7c d0    	vpbroadcastq %rax,%ymm2
  4024cd:	41 89 c8             	mov    %ecx,%r8d
  4024d0:	45 31 c9             	xor    %r9d,%r9d
  4024d3:	c5 f9 6f 1d 35 3b 00 	vmovdqa 0x3b35(%rip),%xmm3        # 406010 <_IO_stdin_used+0x10>
  4024da:	00 
  4024db:	c4 e2 7d 59 25 3c 3b 	vpbroadcastq 0x3b3c(%rip),%ymm4        # 406020 <_IO_stdin_used+0x20>
  4024e2:	00 00 
  4024e4:	eb 16                	jmp    4024fc <uint32_t_secure_store_impl+0x6c>
  4024e6:	66 2e 0f 1f 84 00 00 	nopw   %cs:0x0(%rax,%rax,1)
  4024ed:	00 00 00 
  4024f0:	49 ff c1             	inc    %r9
  4024f3:	4d 39 c1             	cmp    %r8,%r9
  4024f6:	0f 84 de 00 00 00    	je     4025da <uint32_t_secure_store_impl+0x14a>
  4024fc:	4c 89 c8             	mov    %r9,%rax
  4024ff:	48 c1 e0 05          	shl    $0x5,%rax
  402503:	4c 8d 14 02          	lea    (%rdx,%rax,1),%r10
  402507:	83 7c 02 14 00       	cmpl   $0x0,0x14(%rdx,%rax,1)
  40250c:	0f 85 81 00 00 00    	jne    402593 <uint32_t_secure_store_impl+0x103>
  402512:	49 8b 0a             	mov    (%r10),%rcx
  402515:	8b 6c 02 18          	mov    0x18(%rdx,%rax,1),%ebp
  402519:	8b 5c 02 1c          	mov    0x1c(%rdx,%rax,1),%ebx
  40251d:	48 01 cd             	add    %rcx,%rbp
  402520:	48 83 e5 e0          	and    $0xffffffffffffffe0,%rbp
  402524:	48 01 cb             	add    %rcx,%rbx
  402527:	48 39 eb             	cmp    %rbp,%rbx
  40252a:	72 c4                	jb     4024f0 <uint32_t_secure_store_impl+0x60>
  40252c:	48 01 d0             	add    %rdx,%rax
  40252f:	48 83 c0 1c          	add    $0x1c,%rax
  402533:	62 f2 fd 08 7c ed    	vpbroadcastq %rbp,%xmm5
  402539:	c5 d1 eb eb          	vpor   %xmm3,%xmm5,%xmm5
  40253d:	c4 e1 f9 6e f5       	vmovq  %rbp,%xmm6
  402542:	48 89 e9             	mov    %rbp,%rcx
  402545:	48 83 c9 18          	or     $0x18,%rcx
  402549:	c4 e1 f9 6e f9       	vmovq  %rcx,%xmm7
  40254e:	c4 e3 41 0f fd 08    	vpalignr $0x8,%xmm5,%xmm7,%xmm7
  402554:	c5 c9 6c ed          	vpunpcklqdq %xmm5,%xmm6,%xmm5
  402558:	c4 e3 55 38 ef 01    	vinserti128 $0x1,%xmm7,%ymm5,%ymm5
  40255e:	66 90                	xchg   %ax,%ax
  402560:	62 f2 d5 28 29 c9    	vpcmpeqq %ymm1,%ymm5,%k1
  402566:	62 f1 fd a9 6f f2    	vmovdqa64 %ymm2,%ymm6{%k1}{z}
  40256c:	c5 fe 6f 7d 00       	vmovdqu 0x0(%rbp),%ymm7
  402571:	c4 e3 45 4c f0 60    	vpblendvb %ymm6,%ymm0,%ymm7,%ymm6
  402577:	c5 fe 7f 75 00       	vmovdqu %ymm6,0x0(%rbp)
  40257c:	c5 d5 d4 ec          	vpaddq %ymm4,%ymm5,%ymm5
  402580:	48 83 c5 20          	add    $0x20,%rbp
  402584:	8b 08                	mov    (%rax),%ecx
  402586:	49 03 0a             	add    (%r10),%rcx
  402589:	48 39 cd             	cmp    %rcx,%rbp
  40258c:	76 d2                	jbe    402560 <uint32_t_secure_store_impl+0xd0>
  40258e:	e9 5d ff ff ff       	jmpq   4024f0 <uint32_t_secure_store_impl+0x60>
  402593:	83 7c 02 10 00       	cmpl   $0x0,0x10(%rdx,%rax,1)
  402598:	0f 84 52 ff ff ff    	je     4024f0 <uint32_t_secure_store_impl+0x60>
  40259e:	4c 8d 1c 02          	lea    (%rdx,%rax,1),%r11
  4025a2:	49 83 c3 10          	add    $0x10,%r11
  4025a6:	4d 8b 32             	mov    (%r10),%r14
  4025a9:	4c 8b 54 02 08       	mov    0x8(%rdx,%rax,1),%r10
  4025ae:	31 c0                	xor    %eax,%eax
  4025b0:	eb 13                	jmp    4025c5 <uint32_t_secure_store_impl+0x135>
  4025b2:	41 89 2c 1e          	mov    %ebp,(%r14,%rbx,1)
  4025b6:	48 ff c0             	inc    %rax
  4025b9:	41 8b 0b             	mov    (%r11),%ecx
  4025bc:	48 39 c8             	cmp    %rcx,%rax
  4025bf:	0f 83 2b ff ff ff    	jae    4024f0 <uint32_t_secure_store_impl+0x60>
  4025c5:	49 8b 1c c2          	mov    (%r10,%rax,8),%rbx
  4025c9:	49 8d 0c 1e          	lea    (%r14,%rbx,1),%rcx
  4025cd:	89 fd                	mov    %edi,%ebp
  4025cf:	48 39 f1             	cmp    %rsi,%rcx
  4025d2:	74 de                	je     4025b2 <uint32_t_secure_store_impl+0x122>
  4025d4:	41 8b 2c 1e          	mov    (%r14,%rbx,1),%ebp
  4025d8:	eb d8                	jmp    4025b2 <uint32_t_secure_store_impl+0x122>
  4025da:	5b                   	pop    %rbx
  4025db:	41 5e                	pop    %r14
  4025dd:	5d                   	pop    %rbp
  4025de:	c5 f8 77             	vzeroupper 
  4025e1:	c3                   	retq   
  4025e2:	66 66 66 66 66 2e 0f 	data16 data16 data16 data16 nopw %cs:0x0(%rax,%rax,1)
  4025e9:	1f 84 00 00 00 00 00 

00000000004025f0 <uint16_t_secure_store_impl>:
  4025f0:	41 57                	push   %r15
  4025f2:	41 56                	push   %r14
  4025f4:	41 54                	push   %r12
  4025f6:	53                   	push   %rbx
  4025f7:	85 c9                	test   %ecx,%ecx
  4025f9:	0f 84 3c 02 00 00    	je     40283b <uint16_t_secure_store_impl+0x24b>
  4025ff:	0f b7 c7             	movzwl %di,%eax
  402602:	8d 1c f5 00 00 00 00 	lea    0x0(,%rsi,8),%ebx
  402609:	c4 e2 e1 f7 c0       	shlx   %rbx,%rax,%rax
  40260e:	62 f2 fd 28 7c c0    	vpbroadcastq %rax,%ymm0
  402614:	48 89 f0             	mov    %rsi,%rax
  402617:	48 83 e0 f8          	and    $0xfffffffffffffff8,%rax
  40261b:	62 f2 fd 28 7c c8    	vpbroadcastq %rax,%ymm1
  402621:	b8 ff ff 00 00       	mov    $0xffff,%eax
  402626:	c4 e2 e1 f7 c0       	shlx   %rbx,%rax,%rax
  40262b:	62 f2 fd 28 7c d0    	vpbroadcastq %rax,%ymm2
  402631:	41 89 ce             	mov    %ecx,%r14d
  402634:	45 31 ff             	xor    %r15d,%r15d
  402637:	c5 f9 6f 1d d1 39 00 	vmovdqa 0x39d1(%rip),%xmm3        # 406010 <_IO_stdin_used+0x10>
  40263e:	00 
  40263f:	c4 e2 7d 59 25 d8 39 	vpbroadcastq 0x39d8(%rip),%ymm4        # 406020 <_IO_stdin_used+0x20>
  402646:	00 00 
  402648:	eb 12                	jmp    40265c <uint16_t_secure_store_impl+0x6c>
  40264a:	66 0f 1f 44 00 00    	nopw   0x0(%rax,%rax,1)
  402650:	49 ff c7             	inc    %r15
  402653:	4d 39 f7             	cmp    %r14,%r15
  402656:	0f 84 df 01 00 00    	je     40283b <uint16_t_secure_store_impl+0x24b>
  40265c:	4c 89 f9             	mov    %r15,%rcx
  40265f:	48 c1 e1 05          	shl    $0x5,%rcx
  402663:	4c 8d 14 0a          	lea    (%rdx,%rcx,1),%r10
  402667:	83 7c 0a 14 00       	cmpl   $0x0,0x14(%rdx,%rcx,1)
  40266c:	0f 85 7f 00 00 00    	jne    4026f1 <uint16_t_secure_store_impl+0x101>
  402672:	4d 8b 02             	mov    (%r10),%r8
  402675:	8b 5c 0a 18          	mov    0x18(%rdx,%rcx,1),%ebx
  402679:	44 8b 4c 0a 1c       	mov    0x1c(%rdx,%rcx,1),%r9d
  40267e:	4c 01 c3             	add    %r8,%rbx
  402681:	48 83 e3 e0          	and    $0xffffffffffffffe0,%rbx
  402685:	4d 01 c1             	add    %r8,%r9
  402688:	49 39 d9             	cmp    %rbx,%r9
  40268b:	72 c3                	jb     402650 <uint16_t_secure_store_impl+0x60>
  40268d:	48 01 d1             	add    %rdx,%rcx
  402690:	48 83 c1 1c          	add    $0x1c,%rcx
  402694:	62 f2 fd 08 7c eb    	vpbroadcastq %rbx,%xmm5
  40269a:	c5 d1 eb eb          	vpor   %xmm3,%xmm5,%xmm5
  40269e:	c4 e1 f9 6e f3       	vmovq  %rbx,%xmm6
  4026a3:	48 89 d8             	mov    %rbx,%rax
  4026a6:	48 83 c8 18          	or     $0x18,%rax
  4026aa:	c4 e1 f9 6e f8       	vmovq  %rax,%xmm7
  4026af:	c4 e3 41 0f fd 08    	vpalignr $0x8,%xmm5,%xmm7,%xmm7
  4026b5:	c5 c9 6c ed          	vpunpcklqdq %xmm5,%xmm6,%xmm5
  4026b9:	c4 e3 55 38 ef 01    	vinserti128 $0x1,%xmm7,%ymm5,%ymm5
  4026bf:	90                   	nop
  4026c0:	62 f2 d5 28 29 c9    	vpcmpeqq %ymm1,%ymm5,%k1
  4026c6:	62 f1 fd a9 6f f2    	vmovdqa64 %ymm2,%ymm6{%k1}{z}
  4026cc:	c5 fe 6f 3b          	vmovdqu (%rbx),%ymm7
  4026d0:	c4 e3 45 4c f0 60    	vpblendvb %ymm6,%ymm0,%ymm7,%ymm6
  4026d6:	c5 fe 7f 33          	vmovdqu %ymm6,(%rbx)
  4026da:	c5 d5 d4 ec          	vpaddq %ymm4,%ymm5,%ymm5
  4026de:	48 83 c3 20          	add    $0x20,%rbx
  4026e2:	8b 01                	mov    (%rcx),%eax
  4026e4:	49 03 02             	add    (%r10),%rax
  4026e7:	48 39 c3             	cmp    %rax,%rbx
  4026ea:	76 d4                	jbe    4026c0 <uint16_t_secure_store_impl+0xd0>
  4026ec:	e9 5f ff ff ff       	jmpq   402650 <uint16_t_secure_store_impl+0x60>
  4026f1:	44 8b 5c 0a 10       	mov    0x10(%rdx,%rcx,1),%r11d
  4026f6:	4d 85 db             	test   %r11,%r11
  4026f9:	0f 84 51 ff ff ff    	je     402650 <uint16_t_secure_store_impl+0x60>
  4026ff:	4d 8b 02             	mov    (%r10),%r8
  402702:	4c 8b 54 0a 08       	mov    0x8(%rdx,%rcx,1),%r10
  402707:	49 8d 43 ff          	lea    -0x1(%r11),%rax
  40270b:	45 89 d9             	mov    %r11d,%r9d
  40270e:	41 83 e1 07          	and    $0x7,%r9d
  402712:	48 83 f8 07          	cmp    $0x7,%rax
  402716:	73 3a                	jae    402752 <uint16_t_secure_store_impl+0x162>
  402718:	31 db                	xor    %ebx,%ebx
  40271a:	4d 85 c9             	test   %r9,%r9
  40271d:	0f 84 2d ff ff ff    	je     402650 <uint16_t_secure_store_impl+0x60>
  402723:	4d 8d 14 da          	lea    (%r10,%rbx,8),%r10
  402727:	31 c9                	xor    %ecx,%ecx
  402729:	eb 11                	jmp    40273c <uint16_t_secure_store_impl+0x14c>
  40272b:	66 41 89 04 18       	mov    %ax,(%r8,%rbx,1)
  402730:	48 ff c1             	inc    %rcx
  402733:	49 39 c9             	cmp    %rcx,%r9
  402736:	0f 84 14 ff ff ff    	je     402650 <uint16_t_secure_store_impl+0x60>
  40273c:	49 8b 1c ca          	mov    (%r10,%rcx,8),%rbx
  402740:	4d 8d 1c 18          	lea    (%r8,%rbx,1),%r11
  402744:	89 f8                	mov    %edi,%eax
  402746:	49 39 f3             	cmp    %rsi,%r11
  402749:	74 e0                	je     40272b <uint16_t_secure_store_impl+0x13b>
  40274b:	41 0f b7 04 18       	movzwl (%r8,%rbx,1),%eax
  402750:	eb d9                	jmp    40272b <uint16_t_secure_store_impl+0x13b>
  402752:	41 83 e3 f8          	and    $0xfffffff8,%r11d
  402756:	31 db                	xor    %ebx,%ebx
  402758:	eb 0e                	jmp    402768 <uint16_t_secure_store_impl+0x178>
  40275a:	66 41 89 0c 00       	mov    %cx,(%r8,%rax,1)
  40275f:	48 83 c3 08          	add    $0x8,%rbx
  402763:	49 39 db             	cmp    %rbx,%r11
  402766:	74 b2                	je     40271a <uint16_t_secure_store_impl+0x12a>
  402768:	49 8b 04 da          	mov    (%r10,%rbx,8),%rax
  40276c:	4d 8d 24 00          	lea    (%r8,%rax,1),%r12
  402770:	89 f9                	mov    %edi,%ecx
  402772:	49 39 f4             	cmp    %rsi,%r12
  402775:	74 05                	je     40277c <uint16_t_secure_store_impl+0x18c>
  402777:	41 0f b7 0c 00       	movzwl (%r8,%rax,1),%ecx
  40277c:	66 41 89 0c 00       	mov    %cx,(%r8,%rax,1)
  402781:	49 8b 44 da 08       	mov    0x8(%r10,%rbx,8),%rax
  402786:	4d 8d 24 00          	lea    (%r8,%rax,1),%r12
  40278a:	89 f9                	mov    %edi,%ecx
  40278c:	49 39 f4             	cmp    %rsi,%r12
  40278f:	74 05                	je     402796 <uint16_t_secure_store_impl+0x1a6>
  402791:	41 0f b7 0c 00       	movzwl (%r8,%rax,1),%ecx
  402796:	66 41 89 0c 00       	mov    %cx,(%r8,%rax,1)
  40279b:	49 8b 44 da 10       	mov    0x10(%r10,%rbx,8),%rax
  4027a0:	4d 8d 24 00          	lea    (%r8,%rax,1),%r12
  4027a4:	89 f9                	mov    %edi,%ecx
  4027a6:	49 39 f4             	cmp    %rsi,%r12
  4027a9:	74 05                	je     4027b0 <uint16_t_secure_store_impl+0x1c0>
  4027ab:	41 0f b7 0c 00       	movzwl (%r8,%rax,1),%ecx
  4027b0:	66 41 89 0c 00       	mov    %cx,(%r8,%rax,1)
  4027b5:	49 8b 44 da 18       	mov    0x18(%r10,%rbx,8),%rax
  4027ba:	4d 8d 24 00          	lea    (%r8,%rax,1),%r12
  4027be:	89 f9                	mov    %edi,%ecx
  4027c0:	49 39 f4             	cmp    %rsi,%r12
  4027c3:	74 05                	je     4027ca <uint16_t_secure_store_impl+0x1da>
  4027c5:	41 0f b7 0c 00       	movzwl (%r8,%rax,1),%ecx
  4027ca:	66 41 89 0c 00       	mov    %cx,(%r8,%rax,1)
  4027cf:	49 8b 44 da 20       	mov    0x20(%r10,%rbx,8),%rax
  4027d4:	4d 8d 24 00          	lea    (%r8,%rax,1),%r12
  4027d8:	89 f9                	mov    %edi,%ecx
  4027da:	49 39 f4             	cmp    %rsi,%r12
  4027dd:	74 05                	je     4027e4 <uint16_t_secure_store_impl+0x1f4>
  4027df:	41 0f b7 0c 00       	movzwl (%r8,%rax,1),%ecx
  4027e4:	66 41 89 0c 00       	mov    %cx,(%r8,%rax,1)
  4027e9:	49 8b 44 da 28       	mov    0x28(%r10,%rbx,8),%rax
  4027ee:	4d 8d 24 00          	lea    (%r8,%rax,1),%r12
  4027f2:	89 f9                	mov    %edi,%ecx
  4027f4:	49 39 f4             	cmp    %rsi,%r12
  4027f7:	74 05                	je     4027fe <uint16_t_secure_store_impl+0x20e>
  4027f9:	41 0f b7 0c 00       	movzwl (%r8,%rax,1),%ecx
  4027fe:	66 41 89 0c 00       	mov    %cx,(%r8,%rax,1)
  402803:	49 8b 44 da 30       	mov    0x30(%r10,%rbx,8),%rax
  402808:	4d 8d 24 00          	lea    (%r8,%rax,1),%r12
  40280c:	89 f9                	mov    %edi,%ecx
  40280e:	49 39 f4             	cmp    %rsi,%r12
  402811:	74 05                	je     402818 <uint16_t_secure_store_impl+0x228>
  402813:	41 0f b7 0c 00       	movzwl (%r8,%rax,1),%ecx
  402818:	66 41 89 0c 00       	mov    %cx,(%r8,%rax,1)
  40281d:	49 8b 44 da 38       	mov    0x38(%r10,%rbx,8),%rax
  402822:	4d 8d 24 00          	lea    (%r8,%rax,1),%r12
  402826:	89 f9                	mov    %edi,%ecx
  402828:	49 39 f4             	cmp    %rsi,%r12
  40282b:	0f 84 29 ff ff ff    	je     40275a <uint16_t_secure_store_impl+0x16a>
  402831:	41 0f b7 0c 00       	movzwl (%r8,%rax,1),%ecx
  402836:	e9 1f ff ff ff       	jmpq   40275a <uint16_t_secure_store_impl+0x16a>
  40283b:	5b                   	pop    %rbx
  40283c:	41 5c                	pop    %r12
  40283e:	41 5e                	pop    %r14
  402840:	41 5f                	pop    %r15
  402842:	c5 f8 77             	vzeroupper 
  402845:	c3                   	retq   
  402846:	66 2e 0f 1f 84 00 00 	nopw   %cs:0x0(%rax,%rax,1)
  40284d:	00 00 00 

0000000000402850 <uint8_t_secure_store_impl>:
  402850:	41 56                	push   %r14
  402852:	53                   	push   %rbx
  402853:	85 c9                	test   %ecx,%ecx
  402855:	0f 84 4a 01 00 00    	je     4029a5 <uint8_t_secure_store_impl+0x155>
  40285b:	40 0f b6 c7          	movzbl %dil,%eax
  40285f:	8d 1c f5 00 00 00 00 	lea    0x0(,%rsi,8),%ebx
  402866:	c4 e2 e1 f7 c0       	shlx   %rbx,%rax,%rax
  40286b:	62 f2 fd 28 7c c0    	vpbroadcastq %rax,%ymm0
  402871:	48 89 f0             	mov    %rsi,%rax
  402874:	48 83 e0 f8          	and    $0xfffffffffffffff8,%rax
  402878:	62 f2 fd 28 7c c8    	vpbroadcastq %rax,%ymm1
  40287e:	b8 ff 00 00 00       	mov    $0xff,%eax
  402883:	c4 e2 e1 f7 c0       	shlx   %rbx,%rax,%rax
  402888:	62 f2 fd 28 7c d0    	vpbroadcastq %rax,%ymm2
  40288e:	41 89 c8             	mov    %ecx,%r8d
  402891:	45 31 c9             	xor    %r9d,%r9d
  402894:	c5 f9 6f 1d 74 37 00 	vmovdqa 0x3774(%rip),%xmm3        # 406010 <_IO_stdin_used+0x10>
  40289b:	00 
  40289c:	c4 e2 7d 59 25 7b 37 	vpbroadcastq 0x377b(%rip),%ymm4        # 406020 <_IO_stdin_used+0x20>
  4028a3:	00 00 
  4028a5:	eb 15                	jmp    4028bc <uint8_t_secure_store_impl+0x6c>
  4028a7:	66 0f 1f 84 00 00 00 	nopw   0x0(%rax,%rax,1)
  4028ae:	00 00 
  4028b0:	49 ff c1             	inc    %r9
  4028b3:	4d 39 c1             	cmp    %r8,%r9
  4028b6:	0f 84 e9 00 00 00    	je     4029a5 <uint8_t_secure_store_impl+0x155>
  4028bc:	4c 89 c8             	mov    %r9,%rax
  4028bf:	48 c1 e0 05          	shl    $0x5,%rax
  4028c3:	4c 8d 14 02          	lea    (%rdx,%rax,1),%r10
  4028c7:	83 7c 02 14 00       	cmpl   $0x0,0x14(%rdx,%rax,1)
  4028cc:	0f 85 7f 00 00 00    	jne    402951 <uint8_t_secure_store_impl+0x101>
  4028d2:	4d 8b 1a             	mov    (%r10),%r11
  4028d5:	8b 5c 02 18          	mov    0x18(%rdx,%rax,1),%ebx
  4028d9:	8b 4c 02 1c          	mov    0x1c(%rdx,%rax,1),%ecx
  4028dd:	4c 01 db             	add    %r11,%rbx
  4028e0:	48 83 e3 e0          	and    $0xffffffffffffffe0,%rbx
  4028e4:	4c 01 d9             	add    %r11,%rcx
  4028e7:	48 39 d9             	cmp    %rbx,%rcx
  4028ea:	72 c4                	jb     4028b0 <uint8_t_secure_store_impl+0x60>
  4028ec:	48 01 d0             	add    %rdx,%rax
  4028ef:	48 83 c0 1c          	add    $0x1c,%rax
  4028f3:	62 f2 fd 08 7c eb    	vpbroadcastq %rbx,%xmm5
  4028f9:	c5 d1 eb eb          	vpor   %xmm3,%xmm5,%xmm5
  4028fd:	c4 e1 f9 6e f3       	vmovq  %rbx,%xmm6
  402902:	48 89 d9             	mov    %rbx,%rcx
  402905:	48 83 c9 18          	or     $0x18,%rcx
  402909:	c4 e1 f9 6e f9       	vmovq  %rcx,%xmm7
  40290e:	c4 e3 41 0f fd 08    	vpalignr $0x8,%xmm5,%xmm7,%xmm7
  402914:	c5 c9 6c ed          	vpunpcklqdq %xmm5,%xmm6,%xmm5
  402918:	c4 e3 55 38 ef 01    	vinserti128 $0x1,%xmm7,%ymm5,%ymm5
  40291e:	66 90                	xchg   %ax,%ax
  402920:	62 f2 d5 28 29 c9    	vpcmpeqq %ymm1,%ymm5,%k1
  402926:	62 f1 fd a9 6f f2    	vmovdqa64 %ymm2,%ymm6{%k1}{z}
  40292c:	c5 fe 6f 3b          	vmovdqu (%rbx),%ymm7
  402930:	c4 e3 45 4c f0 60    	vpblendvb %ymm6,%ymm0,%ymm7,%ymm6
  402936:	c5 fe 7f 33          	vmovdqu %ymm6,(%rbx)
  40293a:	c5 d5 d4 ec          	vpaddq %ymm4,%ymm5,%ymm5
  40293e:	48 83 c3 20          	add    $0x20,%rbx
  402942:	8b 08                	mov    (%rax),%ecx
  402944:	49 03 0a             	add    (%r10),%rcx
  402947:	48 39 cb             	cmp    %rcx,%rbx
  40294a:	76 d4                	jbe    402920 <uint8_t_secure_store_impl+0xd0>
  40294c:	e9 5f ff ff ff       	jmpq   4028b0 <uint8_t_secure_store_impl+0x60>
  402951:	83 7c 02 10 00       	cmpl   $0x0,0x10(%rdx,%rax,1)
  402956:	0f 84 54 ff ff ff    	je     4028b0 <uint8_t_secure_store_impl+0x60>
  40295c:	4c 8d 1c 02          	lea    (%rdx,%rax,1),%r11
  402960:	49 83 c3 10          	add    $0x10,%r11
  402964:	31 c9                	xor    %ecx,%ecx
  402966:	eb 12                	jmp    40297a <uint8_t_secure_store_impl+0x12a>
  402968:	41 88 1e             	mov    %bl,(%r14)
  40296b:	48 ff c1             	inc    %rcx
  40296e:	41 8b 03             	mov    (%r11),%eax
  402971:	48 39 c1             	cmp    %rax,%rcx
  402974:	0f 83 36 ff ff ff    	jae    4028b0 <uint8_t_secure_store_impl+0x60>
  40297a:	49 8b 1a             	mov    (%r10),%rbx
  40297d:	49 8b 43 f8          	mov    -0x8(%r11),%rax
  402981:	48 8b 04 c8          	mov    (%rax,%rcx,8),%rax
  402985:	4c 8d 34 03          	lea    (%rbx,%rax,1),%r14
  402989:	0f b6 1c 03          	movzbl (%rbx,%rax,1),%ebx
  40298d:	49 39 f6             	cmp    %rsi,%r14
  402990:	75 d6                	jne    402968 <uint8_t_secure_store_impl+0x118>
  402992:	40 88 3e             	mov    %dil,(%rsi)
  402995:	48 ff c1             	inc    %rcx
  402998:	41 8b 03             	mov    (%r11),%eax
  40299b:	48 39 c1             	cmp    %rax,%rcx
  40299e:	72 da                	jb     40297a <uint8_t_secure_store_impl+0x12a>
  4029a0:	e9 0b ff ff ff       	jmpq   4028b0 <uint8_t_secure_store_impl+0x60>
  4029a5:	5b                   	pop    %rbx
  4029a6:	41 5e                	pop    %r14
  4029a8:	c5 f8 77             	vzeroupper 
  4029ab:	c3                   	retq   
  4029ac:	0f 1f 40 00          	nopl   0x0(%rax)

00000000004029b0 <uint64_t_secure_store>:
  4029b0:	e9 8b f8 ff ff       	jmpq   402240 <uint64_t_secure_store_impl>
  4029b5:	66 66 2e 0f 1f 84 00 	data16 nopw %cs:0x0(%rax,%rax,1)
  4029bc:	00 00 00 00 

00000000004029c0 <uint32_t_secure_store>:
  4029c0:	e9 cb fa ff ff       	jmpq   402490 <uint32_t_secure_store_impl>
  4029c5:	66 66 2e 0f 1f 84 00 	data16 nopw %cs:0x0(%rax,%rax,1)
  4029cc:	00 00 00 00 

00000000004029d0 <uint16_t_secure_store>:
  4029d0:	e9 1b fc ff ff       	jmpq   4025f0 <uint16_t_secure_store_impl>
  4029d5:	66 66 2e 0f 1f 84 00 	data16 nopw %cs:0x0(%rax,%rax,1)
  4029dc:	00 00 00 00 

00000000004029e0 <uint8_t_secure_store>:
  4029e0:	e9 6b fe ff ff       	jmpq   402850 <uint8_t_secure_store_impl>
  4029e5:	66 66 2e 0f 1f 84 00 	data16 nopw %cs:0x0(%rax,%rax,1)
  4029ec:	00 00 00 00 

00000000004029f0 <uint64_t_secure_store_sensitive>:
  4029f0:	e9 4b f8 ff ff       	jmpq   402240 <uint64_t_secure_store_impl>
  4029f5:	66 66 2e 0f 1f 84 00 	data16 nopw %cs:0x0(%rax,%rax,1)
  4029fc:	00 00 00 00 

0000000000402a00 <uint32_t_secure_store_sensitive>:
  402a00:	e9 8b fa ff ff       	jmpq   402490 <uint32_t_secure_store_impl>
  402a05:	66 66 2e 0f 1f 84 00 	data16 nopw %cs:0x0(%rax,%rax,1)
  402a0c:	00 00 00 00 

0000000000402a10 <uint16_t_secure_store_sensitive>:
  402a10:	e9 db fb ff ff       	jmpq   4025f0 <uint16_t_secure_store_impl>
  402a15:	66 66 2e 0f 1f 84 00 	data16 nopw %cs:0x0(%rax,%rax,1)
  402a1c:	00 00 00 00 

0000000000402a20 <uint8_t_secure_store_sensitive>:
  402a20:	e9 2b fe ff ff       	jmpq   402850 <uint8_t_secure_store_impl>
  402a25:	66 66 2e 0f 1f 84 00 	data16 nopw %cs:0x0(%rax,%rax,1)
  402a2c:	00 00 00 00 

0000000000402a30 <uint64_t_secure_store_impl_onebase>:
  402a30:	53                   	push   %rbx
  402a31:	45 85 c9             	test   %r9d,%r9d
  402a34:	0f 85 b2 00 00 00    	jne    402aec <uint64_t_secure_store_impl_onebase+0xbc>
  402a3a:	8b 44 24 10          	mov    0x10(%rsp),%eax
  402a3e:	48 01 d0             	add    %rdx,%rax
  402a41:	48 83 e0 e0          	and    $0xffffffffffffffe0,%rax
  402a45:	8b 4c 24 18          	mov    0x18(%rsp),%ecx
  402a49:	48 01 d1             	add    %rdx,%rcx
  402a4c:	48 39 c1             	cmp    %rax,%rcx
  402a4f:	0f 82 92 00 00 00    	jb     402ae7 <uint64_t_secure_store_impl_onebase+0xb7>
  402a55:	8d 14 f5 00 00 00 00 	lea    0x0(,%rsi,8),%edx
  402a5c:	83 e2 38             	and    $0x38,%edx
  402a5f:	48 83 e6 f8          	and    $0xfffffffffffffff8,%rsi
  402a63:	62 f2 fd 28 7c c6    	vpbroadcastq %rsi,%ymm0
  402a69:	48 c7 c6 ff ff ff ff 	mov    $0xffffffffffffffff,%rsi
  402a70:	c4 e2 e9 f7 f6       	shlx   %rdx,%rsi,%rsi
  402a75:	62 f2 fd 28 7c ce    	vpbroadcastq %rsi,%ymm1
  402a7b:	62 f2 fd 08 7c d0    	vpbroadcastq %rax,%xmm2
  402a81:	c5 e9 eb 15 87 35 00 	vpor   0x3587(%rip),%xmm2,%xmm2        # 406010 <_IO_stdin_used+0x10>
  402a88:	00 
  402a89:	c4 e1 f9 6e d8       	vmovq  %rax,%xmm3
  402a8e:	48 89 c6             	mov    %rax,%rsi
  402a91:	48 83 ce 18          	or     $0x18,%rsi
  402a95:	c4 e1 f9 6e e6       	vmovq  %rsi,%xmm4
  402a9a:	c4 e3 59 0f e2 08    	vpalignr $0x8,%xmm2,%xmm4,%xmm4
  402aa0:	c5 e1 6c d2          	vpunpcklqdq %xmm2,%xmm3,%xmm2
  402aa4:	c4 e3 6d 38 d4 01    	vinserti128 $0x1,%xmm4,%ymm2,%ymm2
  402aaa:	c4 e2 e9 f7 d7       	shlx   %rdx,%rdi,%rdx
  402aaf:	62 f2 fd 28 7c da    	vpbroadcastq %rdx,%ymm3
  402ab5:	c4 e2 7d 59 25 62 35 	vpbroadcastq 0x3562(%rip),%ymm4        # 406020 <_IO_stdin_used+0x20>
  402abc:	00 00 
  402abe:	66 90                	xchg   %ax,%ax
  402ac0:	62 f2 ed 28 29 c8    	vpcmpeqq %ymm0,%ymm2,%k1
  402ac6:	62 f1 fd a9 6f e9    	vmovdqa64 %ymm1,%ymm5{%k1}{z}
  402acc:	c5 fe 6f 30          	vmovdqu (%rax),%ymm6
  402ad0:	c4 e3 4d 4c eb 50    	vpblendvb %ymm5,%ymm3,%ymm6,%ymm5
  402ad6:	c5 fe 7f 28          	vmovdqu %ymm5,(%rax)
  402ada:	c5 ed d4 d4          	vpaddq %ymm4,%ymm2,%ymm2
  402ade:	48 83 c0 20          	add    $0x20,%rax
  402ae2:	48 39 c8             	cmp    %rcx,%rax
  402ae5:	76 d9                	jbe    402ac0 <uint64_t_secure_store_impl_onebase+0x90>
  402ae7:	5b                   	pop    %rbx
  402ae8:	c5 f8 77             	vzeroupper 
  402aeb:	c3                   	retq   
  402aec:	45 85 c0             	test   %r8d,%r8d
  402aef:	74 f6                	je     402ae7 <uint64_t_secure_store_impl_onebase+0xb7>
  402af1:	45 89 c1             	mov    %r8d,%r9d
  402af4:	49 8d 41 ff          	lea    -0x1(%r9),%rax
  402af8:	45 89 c8             	mov    %r9d,%r8d
  402afb:	41 83 e0 07          	and    $0x7,%r8d
  402aff:	48 83 f8 07          	cmp    $0x7,%rax
  402b03:	73 31                	jae    402b36 <uint64_t_secure_store_impl_onebase+0x106>
  402b05:	31 c0                	xor    %eax,%eax
  402b07:	4d 85 c0             	test   %r8,%r8
  402b0a:	74 db                	je     402ae7 <uint64_t_secure_store_impl_onebase+0xb7>
  402b0c:	4c 8d 0c c1          	lea    (%rcx,%rax,8),%r9
  402b10:	31 c9                	xor    %ecx,%ecx
  402b12:	eb 0c                	jmp    402b20 <uint64_t_secure_store_impl_onebase+0xf0>
  402b14:	4c 89 14 02          	mov    %r10,(%rdx,%rax,1)
  402b18:	48 ff c1             	inc    %rcx
  402b1b:	49 39 c8             	cmp    %rcx,%r8
  402b1e:	74 c7                	je     402ae7 <uint64_t_secure_store_impl_onebase+0xb7>
  402b20:	49 8b 04 c9          	mov    (%r9,%rcx,8),%rax
  402b24:	48 8d 1c 02          	lea    (%rdx,%rax,1),%rbx
  402b28:	49 89 fa             	mov    %rdi,%r10
  402b2b:	48 39 f3             	cmp    %rsi,%rbx
  402b2e:	74 e4                	je     402b14 <uint64_t_secure_store_impl_onebase+0xe4>
  402b30:	4c 8b 14 02          	mov    (%rdx,%rax,1),%r10
  402b34:	eb de                	jmp    402b14 <uint64_t_secure_store_impl_onebase+0xe4>
  402b36:	41 83 e1 f8          	and    $0xfffffff8,%r9d
  402b3a:	31 c0                	xor    %eax,%eax
  402b3c:	eb 0d                	jmp    402b4b <uint64_t_secure_store_impl_onebase+0x11b>
  402b3e:	4e 89 1c 12          	mov    %r11,(%rdx,%r10,1)
  402b42:	48 83 c0 08          	add    $0x8,%rax
  402b46:	49 39 c1             	cmp    %rax,%r9
  402b49:	74 bc                	je     402b07 <uint64_t_secure_store_impl_onebase+0xd7>
  402b4b:	4c 8b 14 c1          	mov    (%rcx,%rax,8),%r10
  402b4f:	4a 8d 1c 12          	lea    (%rdx,%r10,1),%rbx
  402b53:	49 89 fb             	mov    %rdi,%r11
  402b56:	48 39 f3             	cmp    %rsi,%rbx
  402b59:	74 04                	je     402b5f <uint64_t_secure_store_impl_onebase+0x12f>
  402b5b:	4e 8b 1c 12          	mov    (%rdx,%r10,1),%r11
  402b5f:	4e 89 1c 12          	mov    %r11,(%rdx,%r10,1)
  402b63:	4c 8b 54 c1 08       	mov    0x8(%rcx,%rax,8),%r10
  402b68:	4a 8d 1c 12          	lea    (%rdx,%r10,1),%rbx
  402b6c:	49 89 fb             	mov    %rdi,%r11
  402b6f:	48 39 f3             	cmp    %rsi,%rbx
  402b72:	74 04                	je     402b78 <uint64_t_secure_store_impl_onebase+0x148>
  402b74:	4e 8b 1c 12          	mov    (%rdx,%r10,1),%r11
  402b78:	4e 89 1c 12          	mov    %r11,(%rdx,%r10,1)
  402b7c:	4c 8b 54 c1 10       	mov    0x10(%rcx,%rax,8),%r10
  402b81:	4a 8d 1c 12          	lea    (%rdx,%r10,1),%rbx
  402b85:	49 89 fb             	mov    %rdi,%r11
  402b88:	48 39 f3             	cmp    %rsi,%rbx
  402b8b:	74 04                	je     402b91 <uint64_t_secure_store_impl_onebase+0x161>
  402b8d:	4e 8b 1c 12          	mov    (%rdx,%r10,1),%r11
  402b91:	4e 89 1c 12          	mov    %r11,(%rdx,%r10,1)
  402b95:	4c 8b 54 c1 18       	mov    0x18(%rcx,%rax,8),%r10
  402b9a:	4a 8d 1c 12          	lea    (%rdx,%r10,1),%rbx
  402b9e:	49 89 fb             	mov    %rdi,%r11
  402ba1:	48 39 f3             	cmp    %rsi,%rbx
  402ba4:	74 04                	je     402baa <uint64_t_secure_store_impl_onebase+0x17a>
  402ba6:	4e 8b 1c 12          	mov    (%rdx,%r10,1),%r11
  402baa:	4e 89 1c 12          	mov    %r11,(%rdx,%r10,1)
  402bae:	4c 8b 54 c1 20       	mov    0x20(%rcx,%rax,8),%r10
  402bb3:	4a 8d 1c 12          	lea    (%rdx,%r10,1),%rbx
  402bb7:	49 89 fb             	mov    %rdi,%r11
  402bba:	48 39 f3             	cmp    %rsi,%rbx
  402bbd:	74 04                	je     402bc3 <uint64_t_secure_store_impl_onebase+0x193>
  402bbf:	4e 8b 1c 12          	mov    (%rdx,%r10,1),%r11
  402bc3:	4e 89 1c 12          	mov    %r11,(%rdx,%r10,1)
  402bc7:	4c 8b 54 c1 28       	mov    0x28(%rcx,%rax,8),%r10
  402bcc:	4a 8d 1c 12          	lea    (%rdx,%r10,1),%rbx
  402bd0:	49 89 fb             	mov    %rdi,%r11
  402bd3:	48 39 f3             	cmp    %rsi,%rbx
  402bd6:	74 04                	je     402bdc <uint64_t_secure_store_impl_onebase+0x1ac>
  402bd8:	4e 8b 1c 12          	mov    (%rdx,%r10,1),%r11
  402bdc:	4e 89 1c 12          	mov    %r11,(%rdx,%r10,1)
  402be0:	4c 8b 54 c1 30       	mov    0x30(%rcx,%rax,8),%r10
  402be5:	4a 8d 1c 12          	lea    (%rdx,%r10,1),%rbx
  402be9:	49 89 fb             	mov    %rdi,%r11
  402bec:	48 39 f3             	cmp    %rsi,%rbx
  402bef:	74 04                	je     402bf5 <uint64_t_secure_store_impl_onebase+0x1c5>
  402bf1:	4e 8b 1c 12          	mov    (%rdx,%r10,1),%r11
  402bf5:	4e 89 1c 12          	mov    %r11,(%rdx,%r10,1)
  402bf9:	4c 8b 54 c1 38       	mov    0x38(%rcx,%rax,8),%r10
  402bfe:	4a 8d 1c 12          	lea    (%rdx,%r10,1),%rbx
  402c02:	49 89 fb             	mov    %rdi,%r11
  402c05:	48 39 f3             	cmp    %rsi,%rbx
  402c08:	0f 84 30 ff ff ff    	je     402b3e <uint64_t_secure_store_impl_onebase+0x10e>
  402c0e:	4e 8b 1c 12          	mov    (%rdx,%r10,1),%r11
  402c12:	e9 27 ff ff ff       	jmpq   402b3e <uint64_t_secure_store_impl_onebase+0x10e>
  402c17:	66 0f 1f 84 00 00 00 	nopw   0x0(%rax,%rax,1)
  402c1e:	00 00 

0000000000402c20 <uint32_t_secure_store_impl_onebase>:
  402c20:	53                   	push   %rbx
  402c21:	45 85 c9             	test   %r9d,%r9d
  402c24:	0f 85 b2 00 00 00    	jne    402cdc <uint32_t_secure_store_impl_onebase+0xbc>
  402c2a:	8b 44 24 10          	mov    0x10(%rsp),%eax
  402c2e:	48 01 d0             	add    %rdx,%rax
  402c31:	48 83 e0 e0          	and    $0xffffffffffffffe0,%rax
  402c35:	8b 4c 24 18          	mov    0x18(%rsp),%ecx
  402c39:	48 01 d1             	add    %rdx,%rcx
  402c3c:	48 39 c1             	cmp    %rax,%rcx
  402c3f:	0f 82 92 00 00 00    	jb     402cd7 <uint32_t_secure_store_impl_onebase+0xb7>
  402c45:	8d 14 f5 00 00 00 00 	lea    0x0(,%rsi,8),%edx
  402c4c:	83 e2 38             	and    $0x38,%edx
  402c4f:	48 83 e6 f8          	and    $0xfffffffffffffff8,%rsi
  402c53:	62 f2 fd 28 7c c6    	vpbroadcastq %rsi,%ymm0
  402c59:	be ff ff ff ff       	mov    $0xffffffff,%esi
  402c5e:	c4 e2 e9 f7 f6       	shlx   %rdx,%rsi,%rsi
  402c63:	62 f2 fd 08 7c c8    	vpbroadcastq %rax,%xmm1
  402c69:	c5 f1 eb 15 9f 33 00 	vpor   0x339f(%rip),%xmm1,%xmm2        # 406010 <_IO_stdin_used+0x10>
  402c70:	00 
  402c71:	62 f2 fd 28 7c ce    	vpbroadcastq %rsi,%ymm1
  402c77:	c4 e1 f9 6e d8       	vmovq  %rax,%xmm3
  402c7c:	48 89 c6             	mov    %rax,%rsi
  402c7f:	48 83 ce 18          	or     $0x18,%rsi
  402c83:	c4 e1 f9 6e e6       	vmovq  %rsi,%xmm4
  402c88:	c4 e3 59 0f e2 08    	vpalignr $0x8,%xmm2,%xmm4,%xmm4
  402c8e:	c5 e1 6c d2          	vpunpcklqdq %xmm2,%xmm3,%xmm2
  402c92:	c4 e3 6d 38 d4 01    	vinserti128 $0x1,%xmm4,%ymm2,%ymm2
  402c98:	89 fe                	mov    %edi,%esi
  402c9a:	c4 e2 e9 f7 d6       	shlx   %rdx,%rsi,%rdx
  402c9f:	62 f2 fd 28 7c da    	vpbroadcastq %rdx,%ymm3
  402ca5:	c4 e2 7d 59 25 72 33 	vpbroadcastq 0x3372(%rip),%ymm4        # 406020 <_IO_stdin_used+0x20>
  402cac:	00 00 
  402cae:	66 90                	xchg   %ax,%ax
  402cb0:	62 f2 ed 28 29 c8    	vpcmpeqq %ymm0,%ymm2,%k1
  402cb6:	62 f1 fd a9 6f e9    	vmovdqa64 %ymm1,%ymm5{%k1}{z}
  402cbc:	c5 fe 6f 30          	vmovdqu (%rax),%ymm6
  402cc0:	c4 e3 4d 4c eb 50    	vpblendvb %ymm5,%ymm3,%ymm6,%ymm5
  402cc6:	c5 fe 7f 28          	vmovdqu %ymm5,(%rax)
  402cca:	c5 ed d4 d4          	vpaddq %ymm4,%ymm2,%ymm2
  402cce:	48 83 c0 20          	add    $0x20,%rax
  402cd2:	48 39 c8             	cmp    %rcx,%rax
  402cd5:	76 d9                	jbe    402cb0 <uint32_t_secure_store_impl_onebase+0x90>
  402cd7:	5b                   	pop    %rbx
  402cd8:	c5 f8 77             	vzeroupper 
  402cdb:	c3                   	retq   
  402cdc:	45 85 c0             	test   %r8d,%r8d
  402cdf:	74 f6                	je     402cd7 <uint32_t_secure_store_impl_onebase+0xb7>
  402ce1:	45 89 c1             	mov    %r8d,%r9d
  402ce4:	49 8d 41 ff          	lea    -0x1(%r9),%rax
  402ce8:	45 89 c8             	mov    %r9d,%r8d
  402ceb:	41 83 e0 07          	and    $0x7,%r8d
  402cef:	48 83 f8 07          	cmp    $0x7,%rax
  402cf3:	73 31                	jae    402d26 <uint32_t_secure_store_impl_onebase+0x106>
  402cf5:	31 c0                	xor    %eax,%eax
  402cf7:	4d 85 c0             	test   %r8,%r8
  402cfa:	74 db                	je     402cd7 <uint32_t_secure_store_impl_onebase+0xb7>
  402cfc:	4c 8d 0c c1          	lea    (%rcx,%rax,8),%r9
  402d00:	31 c9                	xor    %ecx,%ecx
  402d02:	eb 0c                	jmp    402d10 <uint32_t_secure_store_impl_onebase+0xf0>
  402d04:	44 89 14 02          	mov    %r10d,(%rdx,%rax,1)
  402d08:	48 ff c1             	inc    %rcx
  402d0b:	49 39 c8             	cmp    %rcx,%r8
  402d0e:	74 c7                	je     402cd7 <uint32_t_secure_store_impl_onebase+0xb7>
  402d10:	49 8b 04 c9          	mov    (%r9,%rcx,8),%rax
  402d14:	48 8d 1c 02          	lea    (%rdx,%rax,1),%rbx
  402d18:	41 89 fa             	mov    %edi,%r10d
  402d1b:	48 39 f3             	cmp    %rsi,%rbx
  402d1e:	74 e4                	je     402d04 <uint32_t_secure_store_impl_onebase+0xe4>
  402d20:	44 8b 14 02          	mov    (%rdx,%rax,1),%r10d
  402d24:	eb de                	jmp    402d04 <uint32_t_secure_store_impl_onebase+0xe4>
  402d26:	41 83 e1 f8          	and    $0xfffffff8,%r9d
  402d2a:	31 c0                	xor    %eax,%eax
  402d2c:	eb 0d                	jmp    402d3b <uint32_t_secure_store_impl_onebase+0x11b>
  402d2e:	46 89 1c 12          	mov    %r11d,(%rdx,%r10,1)
  402d32:	48 83 c0 08          	add    $0x8,%rax
  402d36:	49 39 c1             	cmp    %rax,%r9
  402d39:	74 bc                	je     402cf7 <uint32_t_secure_store_impl_onebase+0xd7>
  402d3b:	4c 8b 14 c1          	mov    (%rcx,%rax,8),%r10
  402d3f:	4a 8d 1c 12          	lea    (%rdx,%r10,1),%rbx
  402d43:	41 89 fb             	mov    %edi,%r11d
  402d46:	48 39 f3             	cmp    %rsi,%rbx
  402d49:	74 04                	je     402d4f <uint32_t_secure_store_impl_onebase+0x12f>
  402d4b:	46 8b 1c 12          	mov    (%rdx,%r10,1),%r11d
  402d4f:	46 89 1c 12          	mov    %r11d,(%rdx,%r10,1)
  402d53:	4c 8b 54 c1 08       	mov    0x8(%rcx,%rax,8),%r10
  402d58:	4a 8d 1c 12          	lea    (%rdx,%r10,1),%rbx
  402d5c:	41 89 fb             	mov    %edi,%r11d
  402d5f:	48 39 f3             	cmp    %rsi,%rbx
  402d62:	74 04                	je     402d68 <uint32_t_secure_store_impl_onebase+0x148>
  402d64:	46 8b 1c 12          	mov    (%rdx,%r10,1),%r11d
  402d68:	46 89 1c 12          	mov    %r11d,(%rdx,%r10,1)
  402d6c:	4c 8b 54 c1 10       	mov    0x10(%rcx,%rax,8),%r10
  402d71:	4a 8d 1c 12          	lea    (%rdx,%r10,1),%rbx
  402d75:	41 89 fb             	mov    %edi,%r11d
  402d78:	48 39 f3             	cmp    %rsi,%rbx
  402d7b:	74 04                	je     402d81 <uint32_t_secure_store_impl_onebase+0x161>
  402d7d:	46 8b 1c 12          	mov    (%rdx,%r10,1),%r11d
  402d81:	46 89 1c 12          	mov    %r11d,(%rdx,%r10,1)
  402d85:	4c 8b 54 c1 18       	mov    0x18(%rcx,%rax,8),%r10
  402d8a:	4a 8d 1c 12          	lea    (%rdx,%r10,1),%rbx
  402d8e:	41 89 fb             	mov    %edi,%r11d
  402d91:	48 39 f3             	cmp    %rsi,%rbx
  402d94:	74 04                	je     402d9a <uint32_t_secure_store_impl_onebase+0x17a>
  402d96:	46 8b 1c 12          	mov    (%rdx,%r10,1),%r11d
  402d9a:	46 89 1c 12          	mov    %r11d,(%rdx,%r10,1)
  402d9e:	4c 8b 54 c1 20       	mov    0x20(%rcx,%rax,8),%r10
  402da3:	4a 8d 1c 12          	lea    (%rdx,%r10,1),%rbx
  402da7:	41 89 fb             	mov    %edi,%r11d
  402daa:	48 39 f3             	cmp    %rsi,%rbx
  402dad:	74 04                	je     402db3 <uint32_t_secure_store_impl_onebase+0x193>
  402daf:	46 8b 1c 12          	mov    (%rdx,%r10,1),%r11d
  402db3:	46 89 1c 12          	mov    %r11d,(%rdx,%r10,1)
  402db7:	4c 8b 54 c1 28       	mov    0x28(%rcx,%rax,8),%r10
  402dbc:	4a 8d 1c 12          	lea    (%rdx,%r10,1),%rbx
  402dc0:	41 89 fb             	mov    %edi,%r11d
  402dc3:	48 39 f3             	cmp    %rsi,%rbx
  402dc6:	74 04                	je     402dcc <uint32_t_secure_store_impl_onebase+0x1ac>
  402dc8:	46 8b 1c 12          	mov    (%rdx,%r10,1),%r11d
  402dcc:	46 89 1c 12          	mov    %r11d,(%rdx,%r10,1)
  402dd0:	4c 8b 54 c1 30       	mov    0x30(%rcx,%rax,8),%r10
  402dd5:	4a 8d 1c 12          	lea    (%rdx,%r10,1),%rbx
  402dd9:	41 89 fb             	mov    %edi,%r11d
  402ddc:	48 39 f3             	cmp    %rsi,%rbx
  402ddf:	74 04                	je     402de5 <uint32_t_secure_store_impl_onebase+0x1c5>
  402de1:	46 8b 1c 12          	mov    (%rdx,%r10,1),%r11d
  402de5:	46 89 1c 12          	mov    %r11d,(%rdx,%r10,1)
  402de9:	4c 8b 54 c1 38       	mov    0x38(%rcx,%rax,8),%r10
  402dee:	4a 8d 1c 12          	lea    (%rdx,%r10,1),%rbx
  402df2:	41 89 fb             	mov    %edi,%r11d
  402df5:	48 39 f3             	cmp    %rsi,%rbx
  402df8:	0f 84 30 ff ff ff    	je     402d2e <uint32_t_secure_store_impl_onebase+0x10e>
  402dfe:	46 8b 1c 12          	mov    (%rdx,%r10,1),%r11d
  402e02:	e9 27 ff ff ff       	jmpq   402d2e <uint32_t_secure_store_impl_onebase+0x10e>
  402e07:	66 0f 1f 84 00 00 00 	nopw   0x0(%rax,%rax,1)
  402e0e:	00 00 

0000000000402e10 <uint16_t_secure_store_impl_onebase>:
  402e10:	53                   	push   %rbx
  402e11:	45 85 c9             	test   %r9d,%r9d
  402e14:	0f 85 b2 00 00 00    	jne    402ecc <uint16_t_secure_store_impl_onebase+0xbc>
  402e1a:	8b 44 24 10          	mov    0x10(%rsp),%eax
  402e1e:	48 01 d0             	add    %rdx,%rax
  402e21:	48 83 e0 e0          	and    $0xffffffffffffffe0,%rax
  402e25:	8b 4c 24 18          	mov    0x18(%rsp),%ecx
  402e29:	48 01 d1             	add    %rdx,%rcx
  402e2c:	48 39 c1             	cmp    %rax,%rcx
  402e2f:	0f 82 92 00 00 00    	jb     402ec7 <uint16_t_secure_store_impl_onebase+0xb7>
  402e35:	8d 14 f5 00 00 00 00 	lea    0x0(,%rsi,8),%edx
  402e3c:	83 e2 38             	and    $0x38,%edx
  402e3f:	48 83 e6 f8          	and    $0xfffffffffffffff8,%rsi
  402e43:	62 f2 fd 28 7c c6    	vpbroadcastq %rsi,%ymm0
  402e49:	be ff ff 00 00       	mov    $0xffff,%esi
  402e4e:	c4 e2 e9 f7 f6       	shlx   %rdx,%rsi,%rsi
  402e53:	62 f2 fd 08 7c c8    	vpbroadcastq %rax,%xmm1
  402e59:	c5 f1 eb 15 af 31 00 	vpor   0x31af(%rip),%xmm1,%xmm2        # 406010 <_IO_stdin_used+0x10>
  402e60:	00 
  402e61:	62 f2 fd 28 7c ce    	vpbroadcastq %rsi,%ymm1
  402e67:	c4 e1 f9 6e d8       	vmovq  %rax,%xmm3
  402e6c:	48 89 c6             	mov    %rax,%rsi
  402e6f:	48 83 ce 18          	or     $0x18,%rsi
  402e73:	c4 e1 f9 6e e6       	vmovq  %rsi,%xmm4
  402e78:	c4 e3 59 0f e2 08    	vpalignr $0x8,%xmm2,%xmm4,%xmm4
  402e7e:	c5 e1 6c d2          	vpunpcklqdq %xmm2,%xmm3,%xmm2
  402e82:	c4 e3 6d 38 d4 01    	vinserti128 $0x1,%xmm4,%ymm2,%ymm2
  402e88:	0f b7 f7             	movzwl %di,%esi
  402e8b:	c4 e2 e9 f7 d6       	shlx   %rdx,%rsi,%rdx
  402e90:	62 f2 fd 28 7c da    	vpbroadcastq %rdx,%ymm3
  402e96:	c4 e2 7d 59 25 81 31 	vpbroadcastq 0x3181(%rip),%ymm4        # 406020 <_IO_stdin_used+0x20>
  402e9d:	00 00 
  402e9f:	90                   	nop
  402ea0:	62 f2 ed 28 29 c8    	vpcmpeqq %ymm0,%ymm2,%k1
  402ea6:	62 f1 fd a9 6f e9    	vmovdqa64 %ymm1,%ymm5{%k1}{z}
  402eac:	c5 fe 6f 30          	vmovdqu (%rax),%ymm6
  402eb0:	c4 e3 4d 4c eb 50    	vpblendvb %ymm5,%ymm3,%ymm6,%ymm5
  402eb6:	c5 fe 7f 28          	vmovdqu %ymm5,(%rax)
  402eba:	c5 ed d4 d4          	vpaddq %ymm4,%ymm2,%ymm2
  402ebe:	48 83 c0 20          	add    $0x20,%rax
  402ec2:	48 39 c8             	cmp    %rcx,%rax
  402ec5:	76 d9                	jbe    402ea0 <uint16_t_secure_store_impl_onebase+0x90>
  402ec7:	5b                   	pop    %rbx
  402ec8:	c5 f8 77             	vzeroupper 
  402ecb:	c3                   	retq   
  402ecc:	45 85 c0             	test   %r8d,%r8d
  402ecf:	74 f6                	je     402ec7 <uint16_t_secure_store_impl_onebase+0xb7>
  402ed1:	45 89 c1             	mov    %r8d,%r9d
  402ed4:	49 8d 41 ff          	lea    -0x1(%r9),%rax
  402ed8:	45 89 c8             	mov    %r9d,%r8d
  402edb:	41 83 e0 07          	and    $0x7,%r8d
  402edf:	48 83 f8 07          	cmp    $0x7,%rax
  402ee3:	73 33                	jae    402f18 <uint16_t_secure_store_impl_onebase+0x108>
  402ee5:	31 c0                	xor    %eax,%eax
  402ee7:	4d 85 c0             	test   %r8,%r8
  402eea:	74 db                	je     402ec7 <uint16_t_secure_store_impl_onebase+0xb7>
  402eec:	4c 8d 0c c1          	lea    (%rcx,%rax,8),%r9
  402ef0:	31 c9                	xor    %ecx,%ecx
  402ef2:	eb 0d                	jmp    402f01 <uint16_t_secure_store_impl_onebase+0xf1>
  402ef4:	66 44 89 14 02       	mov    %r10w,(%rdx,%rax,1)
  402ef9:	48 ff c1             	inc    %rcx
  402efc:	49 39 c8             	cmp    %rcx,%r8
  402eff:	74 c6                	je     402ec7 <uint16_t_secure_store_impl_onebase+0xb7>
  402f01:	49 8b 04 c9          	mov    (%r9,%rcx,8),%rax
  402f05:	48 8d 1c 02          	lea    (%rdx,%rax,1),%rbx
  402f09:	41 89 fa             	mov    %edi,%r10d
  402f0c:	48 39 f3             	cmp    %rsi,%rbx
  402f0f:	74 e3                	je     402ef4 <uint16_t_secure_store_impl_onebase+0xe4>
  402f11:	44 0f b7 14 02       	movzwl (%rdx,%rax,1),%r10d
  402f16:	eb dc                	jmp    402ef4 <uint16_t_secure_store_impl_onebase+0xe4>
  402f18:	41 83 e1 f8          	and    $0xfffffff8,%r9d
  402f1c:	31 c0                	xor    %eax,%eax
  402f1e:	eb 0e                	jmp    402f2e <uint16_t_secure_store_impl_onebase+0x11e>
  402f20:	66 46 89 1c 12       	mov    %r11w,(%rdx,%r10,1)
  402f25:	48 83 c0 08          	add    $0x8,%rax
  402f29:	49 39 c1             	cmp    %rax,%r9
  402f2c:	74 b9                	je     402ee7 <uint16_t_secure_store_impl_onebase+0xd7>
  402f2e:	4c 8b 14 c1          	mov    (%rcx,%rax,8),%r10
  402f32:	4a 8d 1c 12          	lea    (%rdx,%r10,1),%rbx
  402f36:	41 89 fb             	mov    %edi,%r11d
  402f39:	48 39 f3             	cmp    %rsi,%rbx
  402f3c:	74 05                	je     402f43 <uint16_t_secure_store_impl_onebase+0x133>
  402f3e:	46 0f b7 1c 12       	movzwl (%rdx,%r10,1),%r11d
  402f43:	66 46 89 1c 12       	mov    %r11w,(%rdx,%r10,1)
  402f48:	4c 8b 54 c1 08       	mov    0x8(%rcx,%rax,8),%r10
  402f4d:	4a 8d 1c 12          	lea    (%rdx,%r10,1),%rbx
  402f51:	41 89 fb             	mov    %edi,%r11d
  402f54:	48 39 f3             	cmp    %rsi,%rbx
  402f57:	74 05                	je     402f5e <uint16_t_secure_store_impl_onebase+0x14e>
  402f59:	46 0f b7 1c 12       	movzwl (%rdx,%r10,1),%r11d
  402f5e:	66 46 89 1c 12       	mov    %r11w,(%rdx,%r10,1)
  402f63:	4c 8b 54 c1 10       	mov    0x10(%rcx,%rax,8),%r10
  402f68:	4a 8d 1c 12          	lea    (%rdx,%r10,1),%rbx
  402f6c:	41 89 fb             	mov    %edi,%r11d
  402f6f:	48 39 f3             	cmp    %rsi,%rbx
  402f72:	74 05                	je     402f79 <uint16_t_secure_store_impl_onebase+0x169>
  402f74:	46 0f b7 1c 12       	movzwl (%rdx,%r10,1),%r11d
  402f79:	66 46 89 1c 12       	mov    %r11w,(%rdx,%r10,1)
  402f7e:	4c 8b 54 c1 18       	mov    0x18(%rcx,%rax,8),%r10
  402f83:	4a 8d 1c 12          	lea    (%rdx,%r10,1),%rbx
  402f87:	41 89 fb             	mov    %edi,%r11d
  402f8a:	48 39 f3             	cmp    %rsi,%rbx
  402f8d:	74 05                	je     402f94 <uint16_t_secure_store_impl_onebase+0x184>
  402f8f:	46 0f b7 1c 12       	movzwl (%rdx,%r10,1),%r11d
  402f94:	66 46 89 1c 12       	mov    %r11w,(%rdx,%r10,1)
  402f99:	4c 8b 54 c1 20       	mov    0x20(%rcx,%rax,8),%r10
  402f9e:	4a 8d 1c 12          	lea    (%rdx,%r10,1),%rbx
  402fa2:	41 89 fb             	mov    %edi,%r11d
  402fa5:	48 39 f3             	cmp    %rsi,%rbx
  402fa8:	74 05                	je     402faf <uint16_t_secure_store_impl_onebase+0x19f>
  402faa:	46 0f b7 1c 12       	movzwl (%rdx,%r10,1),%r11d
  402faf:	66 46 89 1c 12       	mov    %r11w,(%rdx,%r10,1)
  402fb4:	4c 8b 54 c1 28       	mov    0x28(%rcx,%rax,8),%r10
  402fb9:	4a 8d 1c 12          	lea    (%rdx,%r10,1),%rbx
  402fbd:	41 89 fb             	mov    %edi,%r11d
  402fc0:	48 39 f3             	cmp    %rsi,%rbx
  402fc3:	74 05                	je     402fca <uint16_t_secure_store_impl_onebase+0x1ba>
  402fc5:	46 0f b7 1c 12       	movzwl (%rdx,%r10,1),%r11d
  402fca:	66 46 89 1c 12       	mov    %r11w,(%rdx,%r10,1)
  402fcf:	4c 8b 54 c1 30       	mov    0x30(%rcx,%rax,8),%r10
  402fd4:	4a 8d 1c 12          	lea    (%rdx,%r10,1),%rbx
  402fd8:	41 89 fb             	mov    %edi,%r11d
  402fdb:	48 39 f3             	cmp    %rsi,%rbx
  402fde:	74 05                	je     402fe5 <uint16_t_secure_store_impl_onebase+0x1d5>
  402fe0:	46 0f b7 1c 12       	movzwl (%rdx,%r10,1),%r11d
  402fe5:	66 46 89 1c 12       	mov    %r11w,(%rdx,%r10,1)
  402fea:	4c 8b 54 c1 38       	mov    0x38(%rcx,%rax,8),%r10
  402fef:	4a 8d 1c 12          	lea    (%rdx,%r10,1),%rbx
  402ff3:	41 89 fb             	mov    %edi,%r11d
  402ff6:	48 39 f3             	cmp    %rsi,%rbx
  402ff9:	0f 84 21 ff ff ff    	je     402f20 <uint16_t_secure_store_impl_onebase+0x110>
  402fff:	46 0f b7 1c 12       	movzwl (%rdx,%r10,1),%r11d
  403004:	e9 17 ff ff ff       	jmpq   402f20 <uint16_t_secure_store_impl_onebase+0x110>
  403009:	0f 1f 80 00 00 00 00 	nopl   0x0(%rax)

0000000000403010 <uint8_t_secure_store_impl_onebase>:
  403010:	45 85 c9             	test   %r9d,%r9d
  403013:	0f 85 b2 00 00 00    	jne    4030cb <uint8_t_secure_store_impl_onebase+0xbb>
  403019:	8b 44 24 08          	mov    0x8(%rsp),%eax
  40301d:	48 01 d0             	add    %rdx,%rax
  403020:	48 83 e0 e0          	and    $0xffffffffffffffe0,%rax
  403024:	8b 4c 24 10          	mov    0x10(%rsp),%ecx
  403028:	48 01 d1             	add    %rdx,%rcx
  40302b:	48 39 c1             	cmp    %rax,%rcx
  40302e:	0f 82 93 00 00 00    	jb     4030c7 <uint8_t_secure_store_impl_onebase+0xb7>
  403034:	8d 14 f5 00 00 00 00 	lea    0x0(,%rsi,8),%edx
  40303b:	83 e2 38             	and    $0x38,%edx
  40303e:	48 83 e6 f8          	and    $0xfffffffffffffff8,%rsi
  403042:	62 f2 fd 28 7c c6    	vpbroadcastq %rsi,%ymm0
  403048:	be ff 00 00 00       	mov    $0xff,%esi
  40304d:	c4 e2 e9 f7 f6       	shlx   %rdx,%rsi,%rsi
  403052:	62 f2 fd 08 7c c8    	vpbroadcastq %rax,%xmm1
  403058:	c5 f1 eb 15 b0 2f 00 	vpor   0x2fb0(%rip),%xmm1,%xmm2        # 406010 <_IO_stdin_used+0x10>
  40305f:	00 
  403060:	62 f2 fd 28 7c ce    	vpbroadcastq %rsi,%ymm1
  403066:	c4 e1 f9 6e d8       	vmovq  %rax,%xmm3
  40306b:	48 89 c6             	mov    %rax,%rsi
  40306e:	48 83 ce 18          	or     $0x18,%rsi
  403072:	c4 e1 f9 6e e6       	vmovq  %rsi,%xmm4
  403077:	c4 e3 59 0f e2 08    	vpalignr $0x8,%xmm2,%xmm4,%xmm4
  40307d:	c5 e1 6c d2          	vpunpcklqdq %xmm2,%xmm3,%xmm2
  403081:	c4 e3 6d 38 d4 01    	vinserti128 $0x1,%xmm4,%ymm2,%ymm2
  403087:	40 0f b6 f7          	movzbl %dil,%esi
  40308b:	c4 e2 e9 f7 d6       	shlx   %rdx,%rsi,%rdx
  403090:	62 f2 fd 28 7c da    	vpbroadcastq %rdx,%ymm3
  403096:	c4 e2 7d 59 25 81 2f 	vpbroadcastq 0x2f81(%rip),%ymm4        # 406020 <_IO_stdin_used+0x20>
  40309d:	00 00 
  40309f:	90                   	nop
  4030a0:	62 f2 ed 28 29 c8    	vpcmpeqq %ymm0,%ymm2,%k1
  4030a6:	62 f1 fd a9 6f e9    	vmovdqa64 %ymm1,%ymm5{%k1}{z}
  4030ac:	c5 fe 6f 30          	vmovdqu (%rax),%ymm6
  4030b0:	c4 e3 4d 4c eb 50    	vpblendvb %ymm5,%ymm3,%ymm6,%ymm5
  4030b6:	c5 fe 7f 28          	vmovdqu %ymm5,(%rax)
  4030ba:	c5 ed d4 d4          	vpaddq %ymm4,%ymm2,%ymm2
  4030be:	48 83 c0 20          	add    $0x20,%rax
  4030c2:	48 39 c8             	cmp    %rcx,%rax
  4030c5:	76 d9                	jbe    4030a0 <uint8_t_secure_store_impl_onebase+0x90>
  4030c7:	c5 f8 77             	vzeroupper 
  4030ca:	c3                   	retq   
  4030cb:	45 85 c0             	test   %r8d,%r8d
  4030ce:	74 f7                	je     4030c7 <uint8_t_secure_store_impl_onebase+0xb7>
  4030d0:	45 89 c1             	mov    %r8d,%r9d
  4030d3:	49 8d 41 ff          	lea    -0x1(%r9),%rax
  4030d7:	45 89 c8             	mov    %r9d,%r8d
  4030da:	41 83 e0 03          	and    $0x3,%r8d
  4030de:	48 83 f8 03          	cmp    $0x3,%rax
  4030e2:	73 07                	jae    4030eb <uint8_t_secure_store_impl_onebase+0xdb>
  4030e4:	31 c0                	xor    %eax,%eax
  4030e6:	e9 83 00 00 00       	jmpq   40316e <uint8_t_secure_store_impl_onebase+0x15e>
  4030eb:	41 83 e1 fc          	and    $0xfffffffc,%r9d
  4030ef:	31 c0                	xor    %eax,%eax
  4030f1:	eb 0c                	jmp    4030ff <uint8_t_secure_store_impl_onebase+0xef>
  4030f3:	40 88 3e             	mov    %dil,(%rsi)
  4030f6:	48 83 c0 04          	add    $0x4,%rax
  4030fa:	49 39 c1             	cmp    %rax,%r9
  4030fd:	74 6f                	je     40316e <uint8_t_secure_store_impl_onebase+0x15e>
  4030ff:	4c 8b 1c c1          	mov    (%rcx,%rax,8),%r11
  403103:	4e 8d 14 1a          	lea    (%rdx,%r11,1),%r10
  403107:	46 0f b6 1c 1a       	movzbl (%rdx,%r11,1),%r11d
  40310c:	49 39 f2             	cmp    %rsi,%r10
  40310f:	74 05                	je     403116 <uint8_t_secure_store_impl_onebase+0x106>
  403111:	45 88 1a             	mov    %r11b,(%r10)
  403114:	eb 03                	jmp    403119 <uint8_t_secure_store_impl_onebase+0x109>
  403116:	40 88 3e             	mov    %dil,(%rsi)
  403119:	4c 8b 5c c1 08       	mov    0x8(%rcx,%rax,8),%r11
  40311e:	4e 8d 14 1a          	lea    (%rdx,%r11,1),%r10
  403122:	46 0f b6 1c 1a       	movzbl (%rdx,%r11,1),%r11d
  403127:	49 39 f2             	cmp    %rsi,%r10
  40312a:	74 05                	je     403131 <uint8_t_secure_store_impl_onebase+0x121>
  40312c:	45 88 1a             	mov    %r11b,(%r10)
  40312f:	eb 03                	jmp    403134 <uint8_t_secure_store_impl_onebase+0x124>
  403131:	40 88 3e             	mov    %dil,(%rsi)
  403134:	4c 8b 5c c1 10       	mov    0x10(%rcx,%rax,8),%r11
  403139:	4e 8d 14 1a          	lea    (%rdx,%r11,1),%r10
  40313d:	46 0f b6 1c 1a       	movzbl (%rdx,%r11,1),%r11d
  403142:	49 39 f2             	cmp    %rsi,%r10
  403145:	74 05                	je     40314c <uint8_t_secure_store_impl_onebase+0x13c>
  403147:	45 88 1a             	mov    %r11b,(%r10)
  40314a:	eb 03                	jmp    40314f <uint8_t_secure_store_impl_onebase+0x13f>
  40314c:	40 88 3e             	mov    %dil,(%rsi)
  40314f:	4c 8b 5c c1 18       	mov    0x18(%rcx,%rax,8),%r11
  403154:	4e 8d 14 1a          	lea    (%rdx,%r11,1),%r10
  403158:	46 0f b6 1c 1a       	movzbl (%rdx,%r11,1),%r11d
  40315d:	49 39 f2             	cmp    %rsi,%r10
  403160:	74 91                	je     4030f3 <uint8_t_secure_store_impl_onebase+0xe3>
  403162:	45 88 1a             	mov    %r11b,(%r10)
  403165:	48 83 c0 04          	add    $0x4,%rax
  403169:	49 39 c1             	cmp    %rax,%r9
  40316c:	75 91                	jne    4030ff <uint8_t_secure_store_impl_onebase+0xef>
  40316e:	4d 85 c0             	test   %r8,%r8
  403171:	0f 84 50 ff ff ff    	je     4030c7 <uint8_t_secure_store_impl_onebase+0xb7>
  403177:	4c 8d 0c c1          	lea    (%rcx,%rax,8),%r9
  40317b:	31 c9                	xor    %ecx,%ecx
  40317d:	eb 0f                	jmp    40318e <uint8_t_secure_store_impl_onebase+0x17e>
  40317f:	40 88 3e             	mov    %dil,(%rsi)
  403182:	48 ff c1             	inc    %rcx
  403185:	49 39 c8             	cmp    %rcx,%r8
  403188:	0f 84 39 ff ff ff    	je     4030c7 <uint8_t_secure_store_impl_onebase+0xb7>
  40318e:	49 8b 04 c9          	mov    (%r9,%rcx,8),%rax
  403192:	4c 8d 1c 02          	lea    (%rdx,%rax,1),%r11
  403196:	44 0f b6 14 02       	movzbl (%rdx,%rax,1),%r10d
  40319b:	49 39 f3             	cmp    %rsi,%r11
  40319e:	74 df                	je     40317f <uint8_t_secure_store_impl_onebase+0x16f>
  4031a0:	45 88 13             	mov    %r10b,(%r11)
  4031a3:	48 ff c1             	inc    %rcx
  4031a6:	49 39 c8             	cmp    %rcx,%r8
  4031a9:	75 e3                	jne    40318e <uint8_t_secure_store_impl_onebase+0x17e>
  4031ab:	e9 17 ff ff ff       	jmpq   4030c7 <uint8_t_secure_store_impl_onebase+0xb7>

00000000004031b0 <uint64_t_secure_store_onebase>:
  4031b0:	50                   	push   %rax
  4031b1:	44 8b 54 24 10       	mov    0x10(%rsp),%r10d
  4031b6:	8b 44 24 18          	mov    0x18(%rsp),%eax
  4031ba:	48 83 ec 10          	sub    $0x10,%rsp
  4031be:	50                   	push   %rax
  4031bf:	41 52                	push   %r10
  4031c1:	e8 6a f8 ff ff       	callq  402a30 <uint64_t_secure_store_impl_onebase>
  4031c6:	48 83 c4 20          	add    $0x20,%rsp
  4031ca:	58                   	pop    %rax
  4031cb:	c3                   	retq   
  4031cc:	0f 1f 40 00          	nopl   0x0(%rax)

00000000004031d0 <uint32_t_secure_store_onebase>:
  4031d0:	50                   	push   %rax
  4031d1:	44 8b 54 24 10       	mov    0x10(%rsp),%r10d
  4031d6:	8b 44 24 18          	mov    0x18(%rsp),%eax
  4031da:	48 83 ec 10          	sub    $0x10,%rsp
  4031de:	50                   	push   %rax
  4031df:	41 52                	push   %r10
  4031e1:	e8 3a fa ff ff       	callq  402c20 <uint32_t_secure_store_impl_onebase>
  4031e6:	48 83 c4 20          	add    $0x20,%rsp
  4031ea:	58                   	pop    %rax
  4031eb:	c3                   	retq   
  4031ec:	0f 1f 40 00          	nopl   0x0(%rax)

00000000004031f0 <uint16_t_secure_store_onebase>:
  4031f0:	50                   	push   %rax
  4031f1:	44 8b 54 24 10       	mov    0x10(%rsp),%r10d
  4031f6:	8b 44 24 18          	mov    0x18(%rsp),%eax
  4031fa:	48 83 ec 10          	sub    $0x10,%rsp
  4031fe:	50                   	push   %rax
  4031ff:	41 52                	push   %r10
  403201:	e8 0a fc ff ff       	callq  402e10 <uint16_t_secure_store_impl_onebase>
  403206:	48 83 c4 20          	add    $0x20,%rsp
  40320a:	58                   	pop    %rax
  40320b:	c3                   	retq   
  40320c:	0f 1f 40 00          	nopl   0x0(%rax)

0000000000403210 <uint8_t_secure_store_onebase>:
  403210:	50                   	push   %rax
  403211:	44 8b 54 24 10       	mov    0x10(%rsp),%r10d
  403216:	8b 44 24 18          	mov    0x18(%rsp),%eax
  40321a:	48 83 ec 10          	sub    $0x10,%rsp
  40321e:	50                   	push   %rax
  40321f:	41 52                	push   %r10
  403221:	e8 ea fd ff ff       	callq  403010 <uint8_t_secure_store_impl_onebase>
  403226:	48 83 c4 20          	add    $0x20,%rsp
  40322a:	58                   	pop    %rax
  40322b:	c3                   	retq   
  40322c:	0f 1f 40 00          	nopl   0x0(%rax)

0000000000403230 <uint64_t_secure_store_sensitive_onebase>:
  403230:	50                   	push   %rax
  403231:	44 8b 54 24 10       	mov    0x10(%rsp),%r10d
  403236:	8b 44 24 18          	mov    0x18(%rsp),%eax
  40323a:	48 83 ec 10          	sub    $0x10,%rsp
  40323e:	50                   	push   %rax
  40323f:	41 52                	push   %r10
  403241:	e8 ea f7 ff ff       	callq  402a30 <uint64_t_secure_store_impl_onebase>
  403246:	48 83 c4 20          	add    $0x20,%rsp
  40324a:	58                   	pop    %rax
  40324b:	c3                   	retq   
  40324c:	0f 1f 40 00          	nopl   0x0(%rax)

0000000000403250 <uint32_t_secure_store_sensitive_onebase>:
  403250:	50                   	push   %rax
  403251:	44 8b 54 24 10       	mov    0x10(%rsp),%r10d
  403256:	8b 44 24 18          	mov    0x18(%rsp),%eax
  40325a:	48 83 ec 10          	sub    $0x10,%rsp
  40325e:	50                   	push   %rax
  40325f:	41 52                	push   %r10
  403261:	e8 ba f9 ff ff       	callq  402c20 <uint32_t_secure_store_impl_onebase>
  403266:	48 83 c4 20          	add    $0x20,%rsp
  40326a:	58                   	pop    %rax
  40326b:	c3                   	retq   
  40326c:	0f 1f 40 00          	nopl   0x0(%rax)

0000000000403270 <uint16_t_secure_store_sensitive_onebase>:
  403270:	50                   	push   %rax
  403271:	44 8b 54 24 10       	mov    0x10(%rsp),%r10d
  403276:	8b 44 24 18          	mov    0x18(%rsp),%eax
  40327a:	48 83 ec 10          	sub    $0x10,%rsp
  40327e:	50                   	push   %rax
  40327f:	41 52                	push   %r10
  403281:	e8 8a fb ff ff       	callq  402e10 <uint16_t_secure_store_impl_onebase>
  403286:	48 83 c4 20          	add    $0x20,%rsp
  40328a:	58                   	pop    %rax
  40328b:	c3                   	retq   
  40328c:	0f 1f 40 00          	nopl   0x0(%rax)

0000000000403290 <uint8_t_secure_store_sensitive_onebase>:
  403290:	50                   	push   %rax
  403291:	44 8b 54 24 10       	mov    0x10(%rsp),%r10d
  403296:	8b 44 24 18          	mov    0x18(%rsp),%eax
  40329a:	48 83 ec 10          	sub    $0x10,%rsp
  40329e:	50                   	push   %rax
  40329f:	41 52                	push   %r10
  4032a1:	e8 6a fd ff ff       	callq  403010 <uint8_t_secure_store_impl_onebase>
  4032a6:	48 83 c4 20          	add    $0x20,%rsp
  4032aa:	58                   	pop    %rax
  4032ab:	c3                   	retq   
  4032ac:	0f 1f 40 00          	nopl   0x0(%rax)

00000000004032b0 <uint64_t_secure_store_single>:
  4032b0:	48 89 3e             	mov    %rdi,(%rsi)
  4032b3:	c3                   	retq   
  4032b4:	66 66 66 2e 0f 1f 84 	data16 data16 nopw %cs:0x0(%rax,%rax,1)
  4032bb:	00 00 00 00 00 

00000000004032c0 <uint32_t_secure_store_single>:
  4032c0:	89 3e                	mov    %edi,(%rsi)
  4032c2:	c3                   	retq   
  4032c3:	66 66 66 66 2e 0f 1f 	data16 data16 data16 nopw %cs:0x0(%rax,%rax,1)
  4032ca:	84 00 00 00 00 00 

00000000004032d0 <uint16_t_secure_store_single>:
  4032d0:	66 89 3e             	mov    %di,(%rsi)
  4032d3:	c3                   	retq   
  4032d4:	66 66 66 2e 0f 1f 84 	data16 data16 nopw %cs:0x0(%rax,%rax,1)
  4032db:	00 00 00 00 00 

00000000004032e0 <uint8_t_secure_store_single>:
  4032e0:	40 88 3e             	mov    %dil,(%rsi)
  4032e3:	c3                   	retq   
  4032e4:	66 66 66 2e 0f 1f 84 	data16 data16 nopw %cs:0x0(%rax,%rax,1)
  4032eb:	00 00 00 00 00 

00000000004032f0 <uint64_t_secure_store_single_sensitive>:
  4032f0:	48 8b 02             	mov    (%rdx),%rax
  4032f3:	8b 4a 18             	mov    0x18(%rdx),%ecx
  4032f6:	48 85 f6             	test   %rsi,%rsi
  4032f9:	75 04                	jne    4032ff <uint64_t_secure_store_single_sensitive+0xf>
  4032fb:	48 8b 3c 08          	mov    (%rax,%rcx,1),%rdi
  4032ff:	48 89 3c 08          	mov    %rdi,(%rax,%rcx,1)
  403303:	c3                   	retq   
  403304:	66 66 66 2e 0f 1f 84 	data16 data16 nopw %cs:0x0(%rax,%rax,1)
  40330b:	00 00 00 00 00 

0000000000403310 <uint32_t_secure_store_single_sensitive>:
  403310:	48 8b 02             	mov    (%rdx),%rax
  403313:	8b 4a 18             	mov    0x18(%rdx),%ecx
  403316:	48 85 f6             	test   %rsi,%rsi
  403319:	75 03                	jne    40331e <uint32_t_secure_store_single_sensitive+0xe>
  40331b:	8b 3c 08             	mov    (%rax,%rcx,1),%edi
  40331e:	89 3c 08             	mov    %edi,(%rax,%rcx,1)
  403321:	c3                   	retq   
  403322:	66 66 66 66 66 2e 0f 	data16 data16 data16 data16 nopw %cs:0x0(%rax,%rax,1)
  403329:	1f 84 00 00 00 00 00 

0000000000403330 <uint16_t_secure_store_single_sensitive>:
  403330:	48 8b 02             	mov    (%rdx),%rax
  403333:	8b 4a 18             	mov    0x18(%rdx),%ecx
  403336:	48 85 f6             	test   %rsi,%rsi
  403339:	75 04                	jne    40333f <uint16_t_secure_store_single_sensitive+0xf>
  40333b:	0f b7 3c 08          	movzwl (%rax,%rcx,1),%edi
  40333f:	66 89 3c 08          	mov    %di,(%rax,%rcx,1)
  403343:	c3                   	retq   
  403344:	66 66 66 2e 0f 1f 84 	data16 data16 nopw %cs:0x0(%rax,%rax,1)
  40334b:	00 00 00 00 00 

0000000000403350 <uint8_t_secure_store_single_sensitive>:
  403350:	48 8b 02             	mov    (%rdx),%rax
  403353:	8b 4a 18             	mov    0x18(%rdx),%ecx
  403356:	48 85 f6             	test   %rsi,%rsi
  403359:	0f b6 14 08          	movzbl (%rax,%rcx,1),%edx
  40335d:	0f 45 d7             	cmovne %edi,%edx
  403360:	88 14 08             	mov    %dl,(%rax,%rcx,1)
  403363:	c3                   	retq   
  403364:	66 66 66 2e 0f 1f 84 	data16 data16 nopw %cs:0x0(%rax,%rax,1)
  40336b:	00 00 00 00 00 

0000000000403370 <branch_id>:
  403370:	c3                   	retq   
  403371:	66 66 66 66 66 66 2e 	data16 data16 data16 data16 data16 nopw %cs:0x0(%rax,%rax,1)
  403378:	0f 1f 84 00 00 00 00 
  40337f:	00 

0000000000403380 <main>:
  403380:	55                   	push   %rbp
  403381:	41 57                	push   %r15
  403383:	41 56                	push   %r14
  403385:	41 55                	push   %r13
  403387:	41 54                	push   %r12
  403389:	53                   	push   %rbx
  40338a:	48 83 ec 38          	sub    $0x38,%rsp
  40338e:	be 50 10 41 00       	mov    $0x411050,%esi
  403393:	ba 10 00 00 00       	mov    $0x10,%edx
  403398:	31 ff                	xor    %edi,%edi
  40339a:	e8 a1 dc ff ff       	callq  401040 <read@plt>
  40339f:	c5 f8 28 05 a9 dc 00 	vmovaps 0xdca9(%rip),%xmm0        # 411050 <key>
  4033a6:	00 
  4033a7:	c5 f8 11 05 b1 dc 00 	vmovups %xmm0,0xdcb1(%rip)        # 411060 <st>
  4033ae:	00 
  4033af:	c7 04 24 f8 07 00 00 	movl   $0x7f8,(%rsp)
  4033b6:	bf 40 60 40 00       	mov    $0x406040,%edi
  4033bb:	be 40 60 40 00       	mov    $0x406040,%esi
  4033c0:	31 d2                	xor    %edx,%edx
  4033c2:	b9 00 01 00 00       	mov    $0x100,%ecx
  4033c7:	45 31 c0             	xor    %r8d,%r8d
  4033ca:	45 31 c9             	xor    %r9d,%r9d
  4033cd:	e8 5e e3 ff ff       	callq  401730 <uint64_t_secure_load_impl_onebase>
  4033d2:	48 89 44 24 18       	mov    %rax,0x18(%rsp)
  4033d7:	c7 04 24 f8 0f 00 00 	movl   $0xff8,(%rsp)
  4033de:	bf 40 68 40 00       	mov    $0x406840,%edi
  4033e3:	be 40 60 40 00       	mov    $0x406040,%esi
  4033e8:	31 d2                	xor    %edx,%edx
  4033ea:	b9 00 01 00 00       	mov    $0x100,%ecx
  4033ef:	45 31 c0             	xor    %r8d,%r8d
  4033f2:	41 b9 00 08 00 00    	mov    $0x800,%r9d
  4033f8:	e8 33 e3 ff ff       	callq  401730 <uint64_t_secure_load_impl_onebase>
  4033fd:	49 89 c5             	mov    %rax,%r13
  403400:	c7 04 24 f8 17 00 00 	movl   $0x17f8,(%rsp)
  403407:	bf 40 70 40 00       	mov    $0x407040,%edi
  40340c:	be 40 60 40 00       	mov    $0x406040,%esi
  403411:	31 d2                	xor    %edx,%edx
  403413:	b9 00 01 00 00       	mov    $0x100,%ecx
  403418:	45 31 c0             	xor    %r8d,%r8d
  40341b:	41 b9 00 10 00 00    	mov    $0x1000,%r9d
  403421:	e8 0a e3 ff ff       	callq  401730 <uint64_t_secure_load_impl_onebase>
  403426:	49 89 c4             	mov    %rax,%r12
  403429:	c7 04 24 f8 1f 00 00 	movl   $0x1ff8,(%rsp)
  403430:	bf 40 78 40 00       	mov    $0x407840,%edi
  403435:	be 40 60 40 00       	mov    $0x406040,%esi
  40343a:	31 d2                	xor    %edx,%edx
  40343c:	b9 00 01 00 00       	mov    $0x100,%ecx
  403441:	45 31 c0             	xor    %r8d,%r8d
  403444:	41 b9 00 18 00 00    	mov    $0x1800,%r9d
  40344a:	e8 e1 e2 ff ff       	callq  401730 <uint64_t_secure_load_impl_onebase>
  40344f:	48 89 c3             	mov    %rax,%rbx
  403452:	c7 04 24 f8 27 00 00 	movl   $0x27f8,(%rsp)
  403459:	bf 40 80 40 00       	mov    $0x408040,%edi
  40345e:	be 40 60 40 00       	mov    $0x406040,%esi
  403463:	31 d2                	xor    %edx,%edx
  403465:	b9 00 01 00 00       	mov    $0x100,%ecx
  40346a:	45 31 c0             	xor    %r8d,%r8d
  40346d:	41 b9 00 20 00 00    	mov    $0x2000,%r9d
  403473:	e8 b8 e2 ff ff       	callq  401730 <uint64_t_secure_load_impl_onebase>
  403478:	48 89 c5             	mov    %rax,%rbp
  40347b:	c7 04 24 f8 2f 00 00 	movl   $0x2ff8,(%rsp)
  403482:	bf 40 88 40 00       	mov    $0x408840,%edi
  403487:	be 40 60 40 00       	mov    $0x406040,%esi
  40348c:	31 d2                	xor    %edx,%edx
  40348e:	b9 00 01 00 00       	mov    $0x100,%ecx
  403493:	45 31 c0             	xor    %r8d,%r8d
  403496:	41 b9 00 28 00 00    	mov    $0x2800,%r9d
  40349c:	e8 8f e2 ff ff       	callq  401730 <uint64_t_secure_load_impl_onebase>
  4034a1:	49 89 c7             	mov    %rax,%r15
  4034a4:	c7 04 24 f8 37 00 00 	movl   $0x37f8,(%rsp)
  4034ab:	bf 40 90 40 00       	mov    $0x409040,%edi
  4034b0:	be 40 60 40 00       	mov    $0x406040,%esi
  4034b5:	31 d2                	xor    %edx,%edx
  4034b7:	b9 00 01 00 00       	mov    $0x100,%ecx
  4034bc:	45 31 c0             	xor    %r8d,%r8d
  4034bf:	41 b9 00 30 00 00    	mov    $0x3000,%r9d
  4034c5:	e8 66 e2 ff ff       	callq  401730 <uint64_t_secure_load_impl_onebase>
  4034ca:	49 89 c6             	mov    %rax,%r14
  4034cd:	c7 04 24 f8 3f 00 00 	movl   $0x3ff8,(%rsp)
  4034d4:	bf 40 98 40 00       	mov    $0x409840,%edi
  4034d9:	be 40 60 40 00       	mov    $0x406040,%esi
  4034de:	31 d2                	xor    %edx,%edx
  4034e0:	b9 00 01 00 00       	mov    $0x100,%ecx
  4034e5:	45 31 c0             	xor    %r8d,%r8d
  4034e8:	41 b9 00 38 00 00    	mov    $0x3800,%r9d
  4034ee:	e8 3d e2 ff ff       	callq  401730 <uint64_t_secure_load_impl_onebase>
  4034f3:	4c 33 6c 24 18       	xor    0x18(%rsp),%r13
  4034f8:	4c 31 e3             	xor    %r12,%rbx
  4034fb:	4c 31 eb             	xor    %r13,%rbx
  4034fe:	49 31 ef             	xor    %rbp,%r15
  403501:	4d 31 f7             	xor    %r14,%r15
  403504:	49 31 df             	xor    %rbx,%r15
  403507:	49 31 c7             	xor    %rax,%r15
  40350a:	4c 89 7c 24 20       	mov    %r15,0x20(%rsp)
  40350f:	4d 89 fd             	mov    %r15,%r13
  403512:	49 c1 ed 20          	shr    $0x20,%r13
  403516:	44 89 fd             	mov    %r15d,%ebp
  403519:	48 c1 ed 04          	shr    $0x4,%rbp
  40351d:	44 89 f8             	mov    %r15d,%eax
  403520:	c1 e0 1c             	shl    $0x1c,%eax
  403523:	09 c5                	or     %eax,%ebp
  403525:	33 2d 35 db 00 00    	xor    0xdb35(%rip),%ebp        # 411060 <st>
  40352b:	89 e8                	mov    %ebp,%eax
  40352d:	83 e0 3f             	and    $0x3f,%eax
  403530:	48 8d 3c 85 40 a0 40 	lea    0x40a040(,%rax,4),%rdi
  403537:	00 
  403538:	c7 04 24 fc 00 00 00 	movl   $0xfc,(%rsp)
  40353f:	be 40 a0 40 00       	mov    $0x40a040,%esi
  403544:	31 d2                	xor    %edx,%edx
  403546:	b9 40 00 00 00       	mov    $0x40,%ecx
  40354b:	45 31 c0             	xor    %r8d,%r8d
  40354e:	45 31 c9             	xor    %r9d,%r9d
  403551:	e8 da e1 ff ff       	callq  401730 <uint64_t_secure_load_impl_onebase>
  403556:	48 89 c3             	mov    %rax,%rbx
  403559:	89 e8                	mov    %ebp,%eax
  40355b:	c1 e8 08             	shr    $0x8,%eax
  40355e:	83 e0 3f             	and    $0x3f,%eax
  403561:	48 8d 3c 85 40 a1 40 	lea    0x40a140(,%rax,4),%rdi
  403568:	00 
  403569:	c7 04 24 fc 00 00 00 	movl   $0xfc,(%rsp)
  403570:	be 40 a1 40 00       	mov    $0x40a140,%esi
  403575:	31 d2                	xor    %edx,%edx
  403577:	b9 40 00 00 00       	mov    $0x40,%ecx
  40357c:	45 31 c0             	xor    %r8d,%r8d
  40357f:	45 31 c9             	xor    %r9d,%r9d
  403582:	e8 a9 e1 ff ff       	callq  401730 <uint64_t_secure_load_impl_onebase>
  403587:	48 89 44 24 18       	mov    %rax,0x18(%rsp)
  40358c:	89 e8                	mov    %ebp,%eax
  40358e:	c1 e8 10             	shr    $0x10,%eax
  403591:	83 e0 3f             	and    $0x3f,%eax
  403594:	48 8d 3c 85 40 a2 40 	lea    0x40a240(,%rax,4),%rdi
  40359b:	00 
  40359c:	c7 04 24 fc 00 00 00 	movl   $0xfc,(%rsp)
  4035a3:	be 40 a2 40 00       	mov    $0x40a240,%esi
  4035a8:	31 d2                	xor    %edx,%edx
  4035aa:	b9 40 00 00 00       	mov    $0x40,%ecx
  4035af:	45 31 c0             	xor    %r8d,%r8d
  4035b2:	45 31 c9             	xor    %r9d,%r9d
  4035b5:	e8 76 e1 ff ff       	callq  401730 <uint64_t_secure_load_impl_onebase>
  4035ba:	49 89 c6             	mov    %rax,%r14
  4035bd:	c1 ed 18             	shr    $0x18,%ebp
  4035c0:	83 e5 3f             	and    $0x3f,%ebp
  4035c3:	48 8d 3c ad 40 a3 40 	lea    0x40a340(,%rbp,4),%rdi
  4035ca:	00 
  4035cb:	c7 04 24 fc 00 00 00 	movl   $0xfc,(%rsp)
  4035d2:	be 40 a3 40 00       	mov    $0x40a340,%esi
  4035d7:	31 d2                	xor    %edx,%edx
  4035d9:	b9 40 00 00 00       	mov    $0x40,%ecx
  4035de:	45 31 c0             	xor    %r8d,%r8d
  4035e1:	45 31 c9             	xor    %r9d,%r9d
  4035e4:	e8 47 e1 ff ff       	callq  401730 <uint64_t_secure_load_impl_onebase>
  4035e9:	49 89 c4             	mov    %rax,%r12
  4035ec:	4c 31 eb             	xor    %r13,%rbx
  4035ef:	48 33 5c 24 18       	xor    0x18(%rsp),%rbx
  4035f4:	4d 31 f4             	xor    %r14,%r12
  4035f7:	49 31 dc             	xor    %rbx,%r12
  4035fa:	8b 1d 64 da 00 00    	mov    0xda64(%rip),%ebx        # 411064 <st+0x4>
  403600:	44 31 fb             	xor    %r15d,%ebx
  403603:	89 d8                	mov    %ebx,%eax
  403605:	83 e0 3f             	and    $0x3f,%eax
  403608:	48 8d 3c 85 40 a4 40 	lea    0x40a440(,%rax,4),%rdi
  40360f:	00 
  403610:	c7 04 24 fc 00 00 00 	movl   $0xfc,(%rsp)
  403617:	be 40 a4 40 00       	mov    $0x40a440,%esi
  40361c:	31 d2                	xor    %edx,%edx
  40361e:	b9 40 00 00 00       	mov    $0x40,%ecx
  403623:	45 31 c0             	xor    %r8d,%r8d
  403626:	45 31 c9             	xor    %r9d,%r9d
  403629:	e8 02 e1 ff ff       	callq  401730 <uint64_t_secure_load_impl_onebase>
  40362e:	49 89 c5             	mov    %rax,%r13
  403631:	89 d8                	mov    %ebx,%eax
  403633:	c1 e8 08             	shr    $0x8,%eax
  403636:	83 e0 3f             	and    $0x3f,%eax
  403639:	48 8d 3c 85 40 a5 40 	lea    0x40a540(,%rax,4),%rdi
  403640:	00 
  403641:	c7 04 24 fc 00 00 00 	movl   $0xfc,(%rsp)
  403648:	be 40 a5 40 00       	mov    $0x40a540,%esi
  40364d:	31 d2                	xor    %edx,%edx
  40364f:	b9 40 00 00 00       	mov    $0x40,%ecx
  403654:	45 31 c0             	xor    %r8d,%r8d
  403657:	45 31 c9             	xor    %r9d,%r9d
  40365a:	e8 d1 e0 ff ff       	callq  401730 <uint64_t_secure_load_impl_onebase>
  40365f:	49 89 c6             	mov    %rax,%r14
  403662:	89 d8                	mov    %ebx,%eax
  403664:	c1 e8 10             	shr    $0x10,%eax
  403667:	83 e0 3f             	and    $0x3f,%eax
  40366a:	48 8d 3c 85 40 a6 40 	lea    0x40a640(,%rax,4),%rdi
  403671:	00 
  403672:	c7 04 24 fc 00 00 00 	movl   $0xfc,(%rsp)
  403679:	be 40 a6 40 00       	mov    $0x40a640,%esi
  40367e:	31 d2                	xor    %edx,%edx
  403680:	b9 40 00 00 00       	mov    $0x40,%ecx
  403685:	45 31 c0             	xor    %r8d,%r8d
  403688:	45 31 c9             	xor    %r9d,%r9d
  40368b:	e8 a0 e0 ff ff       	callq  401730 <uint64_t_secure_load_impl_onebase>
  403690:	48 89 c5             	mov    %rax,%rbp
  403693:	c1 eb 18             	shr    $0x18,%ebx
  403696:	83 e3 3f             	and    $0x3f,%ebx
  403699:	48 8d 3c 9d 40 a7 40 	lea    0x40a740(,%rbx,4),%rdi
  4036a0:	00 
  4036a1:	c7 04 24 fc 00 00 00 	movl   $0xfc,(%rsp)
  4036a8:	be 40 a7 40 00       	mov    $0x40a740,%esi
  4036ad:	31 d2                	xor    %edx,%edx
  4036af:	b9 40 00 00 00       	mov    $0x40,%ecx
  4036b4:	45 31 c0             	xor    %r8d,%r8d
  4036b7:	45 31 c9             	xor    %r9d,%r9d
  4036ba:	e8 71 e0 ff ff       	callq  401730 <uint64_t_secure_load_impl_onebase>
  4036bf:	4d 31 ee             	xor    %r13,%r14
  4036c2:	49 31 ee             	xor    %rbp,%r14
  4036c5:	49 31 c6             	xor    %rax,%r14
  4036c8:	4d 31 e6             	xor    %r12,%r14
  4036cb:	c4 c3 7b f0 ee 04    	rorx   $0x4,%r14d,%ebp
  4036d1:	33 2d 91 d9 00 00    	xor    0xd991(%rip),%ebp        # 411068 <st+0x8>
  4036d7:	89 e8                	mov    %ebp,%eax
  4036d9:	83 e0 3f             	and    $0x3f,%eax
  4036dc:	48 8d 3c 85 40 a0 40 	lea    0x40a040(,%rax,4),%rdi
  4036e3:	00 
  4036e4:	c7 04 24 fc 00 00 00 	movl   $0xfc,(%rsp)
  4036eb:	be 40 a0 40 00       	mov    $0x40a040,%esi
  4036f0:	31 d2                	xor    %edx,%edx
  4036f2:	b9 40 00 00 00       	mov    $0x40,%ecx
  4036f7:	45 31 c0             	xor    %r8d,%r8d
  4036fa:	45 31 c9             	xor    %r9d,%r9d
  4036fd:	e8 2e e0 ff ff       	callq  401730 <uint64_t_secure_load_impl_onebase>
  403702:	48 89 c3             	mov    %rax,%rbx
  403705:	89 e8                	mov    %ebp,%eax
  403707:	c1 e8 08             	shr    $0x8,%eax
  40370a:	83 e0 3f             	and    $0x3f,%eax
  40370d:	48 8d 3c 85 40 a1 40 	lea    0x40a140(,%rax,4),%rdi
  403714:	00 
  403715:	c7 04 24 fc 00 00 00 	movl   $0xfc,(%rsp)
  40371c:	be 40 a1 40 00       	mov    $0x40a140,%esi
  403721:	31 d2                	xor    %edx,%edx
  403723:	b9 40 00 00 00       	mov    $0x40,%ecx
  403728:	45 31 c0             	xor    %r8d,%r8d
  40372b:	45 31 c9             	xor    %r9d,%r9d
  40372e:	e8 fd df ff ff       	callq  401730 <uint64_t_secure_load_impl_onebase>
  403733:	48 89 44 24 18       	mov    %rax,0x18(%rsp)
  403738:	89 e8                	mov    %ebp,%eax
  40373a:	c1 e8 10             	shr    $0x10,%eax
  40373d:	83 e0 3f             	and    $0x3f,%eax
  403740:	48 8d 3c 85 40 a2 40 	lea    0x40a240(,%rax,4),%rdi
  403747:	00 
  403748:	c7 04 24 fc 00 00 00 	movl   $0xfc,(%rsp)
  40374f:	be 40 a2 40 00       	mov    $0x40a240,%esi
  403754:	31 d2                	xor    %edx,%edx
  403756:	b9 40 00 00 00       	mov    $0x40,%ecx
  40375b:	45 31 c0             	xor    %r8d,%r8d
  40375e:	45 31 c9             	xor    %r9d,%r9d
  403761:	e8 ca df ff ff       	callq  401730 <uint64_t_secure_load_impl_onebase>
  403766:	49 89 c5             	mov    %rax,%r13
  403769:	c1 ed 18             	shr    $0x18,%ebp
  40376c:	83 e5 3f             	and    $0x3f,%ebp
  40376f:	48 8d 3c ad 40 a3 40 	lea    0x40a340(,%rbp,4),%rdi
  403776:	00 
  403777:	c7 04 24 fc 00 00 00 	movl   $0xfc,(%rsp)
  40377e:	be 40 a3 40 00       	mov    $0x40a340,%esi
  403783:	31 d2                	xor    %edx,%edx
  403785:	b9 40 00 00 00       	mov    $0x40,%ecx
  40378a:	45 31 c0             	xor    %r8d,%r8d
  40378d:	45 31 c9             	xor    %r9d,%r9d
  403790:	e8 9b df ff ff       	callq  401730 <uint64_t_secure_load_impl_onebase>
  403795:	49 89 c4             	mov    %rax,%r12
  403798:	4c 31 fb             	xor    %r15,%rbx
  40379b:	48 33 5c 24 18       	xor    0x18(%rsp),%rbx
  4037a0:	4d 31 ec             	xor    %r13,%r12
  4037a3:	49 31 dc             	xor    %rbx,%r12
  4037a6:	8b 1d c0 d8 00 00    	mov    0xd8c0(%rip),%ebx        # 41106c <st+0xc>
  4037ac:	44 31 f3             	xor    %r14d,%ebx
  4037af:	89 d8                	mov    %ebx,%eax
  4037b1:	83 e0 3f             	and    $0x3f,%eax
  4037b4:	48 8d 3c 85 40 a4 40 	lea    0x40a440(,%rax,4),%rdi
  4037bb:	00 
  4037bc:	c7 04 24 fc 00 00 00 	movl   $0xfc,(%rsp)
  4037c3:	be 40 a4 40 00       	mov    $0x40a440,%esi
  4037c8:	31 d2                	xor    %edx,%edx
  4037ca:	b9 40 00 00 00       	mov    $0x40,%ecx
  4037cf:	45 31 c0             	xor    %r8d,%r8d
  4037d2:	45 31 c9             	xor    %r9d,%r9d
  4037d5:	e8 56 df ff ff       	callq  401730 <uint64_t_secure_load_impl_onebase>
  4037da:	49 89 c5             	mov    %rax,%r13
  4037dd:	89 d8                	mov    %ebx,%eax
  4037df:	c1 e8 08             	shr    $0x8,%eax
  4037e2:	83 e0 3f             	and    $0x3f,%eax
  4037e5:	48 8d 3c 85 40 a5 40 	lea    0x40a540(,%rax,4),%rdi
  4037ec:	00 
  4037ed:	c7 04 24 fc 00 00 00 	movl   $0xfc,(%rsp)
  4037f4:	be 40 a5 40 00       	mov    $0x40a540,%esi
  4037f9:	31 d2                	xor    %edx,%edx
  4037fb:	b9 40 00 00 00       	mov    $0x40,%ecx
  403800:	45 31 c0             	xor    %r8d,%r8d
  403803:	45 31 c9             	xor    %r9d,%r9d
  403806:	e8 25 df ff ff       	callq  401730 <uint64_t_secure_load_impl_onebase>
  40380b:	49 89 c7             	mov    %rax,%r15
  40380e:	89 d8                	mov    %ebx,%eax
  403810:	c1 e8 10             	shr    $0x10,%eax
  403813:	83 e0 3f             	and    $0x3f,%eax
  403816:	48 8d 3c 85 40 a6 40 	lea    0x40a640(,%rax,4),%rdi
  40381d:	00 
  40381e:	c7 04 24 fc 00 00 00 	movl   $0xfc,(%rsp)
  403825:	be 40 a6 40 00       	mov    $0x40a640,%esi
  40382a:	31 d2                	xor    %edx,%edx
  40382c:	b9 40 00 00 00       	mov    $0x40,%ecx
  403831:	45 31 c0             	xor    %r8d,%r8d
  403834:	45 31 c9             	xor    %r9d,%r9d
  403837:	e8 f4 de ff ff       	callq  401730 <uint64_t_secure_load_impl_onebase>
  40383c:	48 89 c5             	mov    %rax,%rbp
  40383f:	c1 eb 18             	shr    $0x18,%ebx
  403842:	83 e3 3f             	and    $0x3f,%ebx
  403845:	48 8d 3c 9d 40 a7 40 	lea    0x40a740(,%rbx,4),%rdi
  40384c:	00 
  40384d:	c7 04 24 fc 00 00 00 	movl   $0xfc,(%rsp)
  403854:	be 40 a7 40 00       	mov    $0x40a740,%esi
  403859:	31 d2                	xor    %edx,%edx
  40385b:	b9 40 00 00 00       	mov    $0x40,%ecx
  403860:	45 31 c0             	xor    %r8d,%r8d
  403863:	45 31 c9             	xor    %r9d,%r9d
  403866:	e8 c5 de ff ff       	callq  401730 <uint64_t_secure_load_impl_onebase>
  40386b:	4d 31 ef             	xor    %r13,%r15
  40386e:	49 31 ef             	xor    %rbp,%r15
  403871:	4d 31 e7             	xor    %r12,%r15
  403874:	49 31 c7             	xor    %rax,%r15
  403877:	c4 c3 7b f0 ef 04    	rorx   $0x4,%r15d,%ebp
  40387d:	33 2d ed d7 00 00    	xor    0xd7ed(%rip),%ebp        # 411070 <st+0x10>
  403883:	89 e8                	mov    %ebp,%eax
  403885:	83 e0 3f             	and    $0x3f,%eax
  403888:	48 8d 3c 85 40 a0 40 	lea    0x40a040(,%rax,4),%rdi
  40388f:	00 
  403890:	c7 04 24 fc 00 00 00 	movl   $0xfc,(%rsp)
  403897:	be 40 a0 40 00       	mov    $0x40a040,%esi
  40389c:	31 d2                	xor    %edx,%edx
  40389e:	b9 40 00 00 00       	mov    $0x40,%ecx
  4038a3:	45 31 c0             	xor    %r8d,%r8d
  4038a6:	45 31 c9             	xor    %r9d,%r9d
  4038a9:	e8 82 de ff ff       	callq  401730 <uint64_t_secure_load_impl_onebase>
  4038ae:	48 89 c3             	mov    %rax,%rbx
  4038b1:	89 e8                	mov    %ebp,%eax
  4038b3:	c1 e8 08             	shr    $0x8,%eax
  4038b6:	83 e0 3f             	and    $0x3f,%eax
  4038b9:	48 8d 3c 85 40 a1 40 	lea    0x40a140(,%rax,4),%rdi
  4038c0:	00 
  4038c1:	c7 04 24 fc 00 00 00 	movl   $0xfc,(%rsp)
  4038c8:	be 40 a1 40 00       	mov    $0x40a140,%esi
  4038cd:	31 d2                	xor    %edx,%edx
  4038cf:	b9 40 00 00 00       	mov    $0x40,%ecx
  4038d4:	45 31 c0             	xor    %r8d,%r8d
  4038d7:	45 31 c9             	xor    %r9d,%r9d
  4038da:	e8 51 de ff ff       	callq  401730 <uint64_t_secure_load_impl_onebase>
  4038df:	48 89 44 24 18       	mov    %rax,0x18(%rsp)
  4038e4:	89 e8                	mov    %ebp,%eax
  4038e6:	c1 e8 10             	shr    $0x10,%eax
  4038e9:	83 e0 3f             	and    $0x3f,%eax
  4038ec:	48 8d 3c 85 40 a2 40 	lea    0x40a240(,%rax,4),%rdi
  4038f3:	00 
  4038f4:	c7 04 24 fc 00 00 00 	movl   $0xfc,(%rsp)
  4038fb:	be 40 a2 40 00       	mov    $0x40a240,%esi
  403900:	31 d2                	xor    %edx,%edx
  403902:	b9 40 00 00 00       	mov    $0x40,%ecx
  403907:	45 31 c0             	xor    %r8d,%r8d
  40390a:	45 31 c9             	xor    %r9d,%r9d
  40390d:	e8 1e de ff ff       	callq  401730 <uint64_t_secure_load_impl_onebase>
  403912:	49 89 c5             	mov    %rax,%r13
  403915:	c1 ed 18             	shr    $0x18,%ebp
  403918:	83 e5 3f             	and    $0x3f,%ebp
  40391b:	48 8d 3c ad 40 a3 40 	lea    0x40a340(,%rbp,4),%rdi
  403922:	00 
  403923:	c7 04 24 fc 00 00 00 	movl   $0xfc,(%rsp)
  40392a:	be 40 a3 40 00       	mov    $0x40a340,%esi
  40392f:	31 d2                	xor    %edx,%edx
  403931:	b9 40 00 00 00       	mov    $0x40,%ecx
  403936:	45 31 c0             	xor    %r8d,%r8d
  403939:	45 31 c9             	xor    %r9d,%r9d
  40393c:	e8 ef dd ff ff       	callq  401730 <uint64_t_secure_load_impl_onebase>
  403941:	49 89 c4             	mov    %rax,%r12
  403944:	4c 31 f3             	xor    %r14,%rbx
  403947:	48 33 5c 24 18       	xor    0x18(%rsp),%rbx
  40394c:	4d 31 ec             	xor    %r13,%r12
  40394f:	49 31 dc             	xor    %rbx,%r12
  403952:	8b 1d 1c d7 00 00    	mov    0xd71c(%rip),%ebx        # 411074 <st+0x14>
  403958:	44 31 fb             	xor    %r15d,%ebx
  40395b:	89 d8                	mov    %ebx,%eax
  40395d:	83 e0 3f             	and    $0x3f,%eax
  403960:	48 8d 3c 85 40 a4 40 	lea    0x40a440(,%rax,4),%rdi
  403967:	00 
  403968:	c7 04 24 fc 00 00 00 	movl   $0xfc,(%rsp)
  40396f:	be 40 a4 40 00       	mov    $0x40a440,%esi
  403974:	31 d2                	xor    %edx,%edx
  403976:	b9 40 00 00 00       	mov    $0x40,%ecx
  40397b:	45 31 c0             	xor    %r8d,%r8d
  40397e:	45 31 c9             	xor    %r9d,%r9d
  403981:	e8 aa dd ff ff       	callq  401730 <uint64_t_secure_load_impl_onebase>
  403986:	49 89 c5             	mov    %rax,%r13
  403989:	89 d8                	mov    %ebx,%eax
  40398b:	c1 e8 08             	shr    $0x8,%eax
  40398e:	83 e0 3f             	and    $0x3f,%eax
  403991:	48 8d 3c 85 40 a5 40 	lea    0x40a540(,%rax,4),%rdi
  403998:	00 
  403999:	c7 04 24 fc 00 00 00 	movl   $0xfc,(%rsp)
  4039a0:	be 40 a5 40 00       	mov    $0x40a540,%esi
  4039a5:	31 d2                	xor    %edx,%edx
  4039a7:	b9 40 00 00 00       	mov    $0x40,%ecx
  4039ac:	45 31 c0             	xor    %r8d,%r8d
  4039af:	45 31 c9             	xor    %r9d,%r9d
  4039b2:	e8 79 dd ff ff       	callq  401730 <uint64_t_secure_load_impl_onebase>
  4039b7:	49 89 c6             	mov    %rax,%r14
  4039ba:	89 d8                	mov    %ebx,%eax
  4039bc:	c1 e8 10             	shr    $0x10,%eax
  4039bf:	83 e0 3f             	and    $0x3f,%eax
  4039c2:	48 8d 3c 85 40 a6 40 	lea    0x40a640(,%rax,4),%rdi
  4039c9:	00 
  4039ca:	c7 04 24 fc 00 00 00 	movl   $0xfc,(%rsp)
  4039d1:	be 40 a6 40 00       	mov    $0x40a640,%esi
  4039d6:	31 d2                	xor    %edx,%edx
  4039d8:	b9 40 00 00 00       	mov    $0x40,%ecx
  4039dd:	45 31 c0             	xor    %r8d,%r8d
  4039e0:	45 31 c9             	xor    %r9d,%r9d
  4039e3:	e8 48 dd ff ff       	callq  401730 <uint64_t_secure_load_impl_onebase>
  4039e8:	48 89 c5             	mov    %rax,%rbp
  4039eb:	c1 eb 18             	shr    $0x18,%ebx
  4039ee:	83 e3 3f             	and    $0x3f,%ebx
  4039f1:	48 8d 3c 9d 40 a7 40 	lea    0x40a740(,%rbx,4),%rdi
  4039f8:	00 
  4039f9:	c7 04 24 fc 00 00 00 	movl   $0xfc,(%rsp)
  403a00:	be 40 a7 40 00       	mov    $0x40a740,%esi
  403a05:	31 d2                	xor    %edx,%edx
  403a07:	b9 40 00 00 00       	mov    $0x40,%ecx
  403a0c:	45 31 c0             	xor    %r8d,%r8d
  403a0f:	45 31 c9             	xor    %r9d,%r9d
  403a12:	e8 19 dd ff ff       	callq  401730 <uint64_t_secure_load_impl_onebase>
  403a17:	4d 31 ee             	xor    %r13,%r14
  403a1a:	49 31 ee             	xor    %rbp,%r14
  403a1d:	4d 31 e6             	xor    %r12,%r14
  403a20:	49 31 c6             	xor    %rax,%r14
  403a23:	c4 c3 7b f0 ee 04    	rorx   $0x4,%r14d,%ebp
  403a29:	33 2d 49 d6 00 00    	xor    0xd649(%rip),%ebp        # 411078 <st+0x18>
  403a2f:	89 e8                	mov    %ebp,%eax
  403a31:	83 e0 3f             	and    $0x3f,%eax
  403a34:	48 8d 3c 85 40 a0 40 	lea    0x40a040(,%rax,4),%rdi
  403a3b:	00 
  403a3c:	c7 04 24 fc 00 00 00 	movl   $0xfc,(%rsp)
  403a43:	be 40 a0 40 00       	mov    $0x40a040,%esi
  403a48:	31 d2                	xor    %edx,%edx
  403a4a:	b9 40 00 00 00       	mov    $0x40,%ecx
  403a4f:	45 31 c0             	xor    %r8d,%r8d
  403a52:	45 31 c9             	xor    %r9d,%r9d
  403a55:	e8 d6 dc ff ff       	callq  401730 <uint64_t_secure_load_impl_onebase>
  403a5a:	48 89 c3             	mov    %rax,%rbx
  403a5d:	89 e8                	mov    %ebp,%eax
  403a5f:	c1 e8 08             	shr    $0x8,%eax
  403a62:	83 e0 3f             	and    $0x3f,%eax
  403a65:	48 8d 3c 85 40 a1 40 	lea    0x40a140(,%rax,4),%rdi
  403a6c:	00 
  403a6d:	c7 04 24 fc 00 00 00 	movl   $0xfc,(%rsp)
  403a74:	be 40 a1 40 00       	mov    $0x40a140,%esi
  403a79:	31 d2                	xor    %edx,%edx
  403a7b:	b9 40 00 00 00       	mov    $0x40,%ecx
  403a80:	45 31 c0             	xor    %r8d,%r8d
  403a83:	45 31 c9             	xor    %r9d,%r9d
  403a86:	e8 a5 dc ff ff       	callq  401730 <uint64_t_secure_load_impl_onebase>
  403a8b:	48 89 44 24 18       	mov    %rax,0x18(%rsp)
  403a90:	89 e8                	mov    %ebp,%eax
  403a92:	c1 e8 10             	shr    $0x10,%eax
  403a95:	83 e0 3f             	and    $0x3f,%eax
  403a98:	48 8d 3c 85 40 a2 40 	lea    0x40a240(,%rax,4),%rdi
  403a9f:	00 
  403aa0:	c7 04 24 fc 00 00 00 	movl   $0xfc,(%rsp)
  403aa7:	be 40 a2 40 00       	mov    $0x40a240,%esi
  403aac:	31 d2                	xor    %edx,%edx
  403aae:	b9 40 00 00 00       	mov    $0x40,%ecx
  403ab3:	45 31 c0             	xor    %r8d,%r8d
  403ab6:	45 31 c9             	xor    %r9d,%r9d
  403ab9:	e8 72 dc ff ff       	callq  401730 <uint64_t_secure_load_impl_onebase>
  403abe:	49 89 c5             	mov    %rax,%r13
  403ac1:	c1 ed 18             	shr    $0x18,%ebp
  403ac4:	83 e5 3f             	and    $0x3f,%ebp
  403ac7:	48 8d 3c ad 40 a3 40 	lea    0x40a340(,%rbp,4),%rdi
  403ace:	00 
  403acf:	c7 04 24 fc 00 00 00 	movl   $0xfc,(%rsp)
  403ad6:	be 40 a3 40 00       	mov    $0x40a340,%esi
  403adb:	31 d2                	xor    %edx,%edx
  403add:	b9 40 00 00 00       	mov    $0x40,%ecx
  403ae2:	45 31 c0             	xor    %r8d,%r8d
  403ae5:	45 31 c9             	xor    %r9d,%r9d
  403ae8:	e8 43 dc ff ff       	callq  401730 <uint64_t_secure_load_impl_onebase>
  403aed:	49 89 c4             	mov    %rax,%r12
  403af0:	4c 31 fb             	xor    %r15,%rbx
  403af3:	48 33 5c 24 18       	xor    0x18(%rsp),%rbx
  403af8:	4d 31 ec             	xor    %r13,%r12
  403afb:	49 31 dc             	xor    %rbx,%r12
  403afe:	8b 1d 78 d5 00 00    	mov    0xd578(%rip),%ebx        # 41107c <st+0x1c>
  403b04:	44 31 f3             	xor    %r14d,%ebx
  403b07:	89 d8                	mov    %ebx,%eax
  403b09:	83 e0 3f             	and    $0x3f,%eax
  403b0c:	48 8d 3c 85 40 a4 40 	lea    0x40a440(,%rax,4),%rdi
  403b13:	00 
  403b14:	c7 04 24 fc 00 00 00 	movl   $0xfc,(%rsp)
  403b1b:	be 40 a4 40 00       	mov    $0x40a440,%esi
  403b20:	31 d2                	xor    %edx,%edx
  403b22:	b9 40 00 00 00       	mov    $0x40,%ecx
  403b27:	45 31 c0             	xor    %r8d,%r8d
  403b2a:	45 31 c9             	xor    %r9d,%r9d
  403b2d:	e8 fe db ff ff       	callq  401730 <uint64_t_secure_load_impl_onebase>
  403b32:	49 89 c5             	mov    %rax,%r13
  403b35:	89 d8                	mov    %ebx,%eax
  403b37:	c1 e8 08             	shr    $0x8,%eax
  403b3a:	83 e0 3f             	and    $0x3f,%eax
  403b3d:	48 8d 3c 85 40 a5 40 	lea    0x40a540(,%rax,4),%rdi
  403b44:	00 
  403b45:	c7 04 24 fc 00 00 00 	movl   $0xfc,(%rsp)
  403b4c:	be 40 a5 40 00       	mov    $0x40a540,%esi
  403b51:	31 d2                	xor    %edx,%edx
  403b53:	b9 40 00 00 00       	mov    $0x40,%ecx
  403b58:	45 31 c0             	xor    %r8d,%r8d
  403b5b:	45 31 c9             	xor    %r9d,%r9d
  403b5e:	e8 cd db ff ff       	callq  401730 <uint64_t_secure_load_impl_onebase>
  403b63:	49 89 c7             	mov    %rax,%r15
  403b66:	89 d8                	mov    %ebx,%eax
  403b68:	c1 e8 10             	shr    $0x10,%eax
  403b6b:	83 e0 3f             	and    $0x3f,%eax
  403b6e:	48 8d 3c 85 40 a6 40 	lea    0x40a640(,%rax,4),%rdi
  403b75:	00 
  403b76:	c7 04 24 fc 00 00 00 	movl   $0xfc,(%rsp)
  403b7d:	be 40 a6 40 00       	mov    $0x40a640,%esi
  403b82:	31 d2                	xor    %edx,%edx
  403b84:	b9 40 00 00 00       	mov    $0x40,%ecx
  403b89:	45 31 c0             	xor    %r8d,%r8d
  403b8c:	45 31 c9             	xor    %r9d,%r9d
  403b8f:	e8 9c db ff ff       	callq  401730 <uint64_t_secure_load_impl_onebase>
  403b94:	48 89 c5             	mov    %rax,%rbp
  403b97:	c1 eb 18             	shr    $0x18,%ebx
  403b9a:	83 e3 3f             	and    $0x3f,%ebx
  403b9d:	48 8d 3c 9d 40 a7 40 	lea    0x40a740(,%rbx,4),%rdi
  403ba4:	00 
  403ba5:	c7 04 24 fc 00 00 00 	movl   $0xfc,(%rsp)
  403bac:	be 40 a7 40 00       	mov    $0x40a740,%esi
  403bb1:	31 d2                	xor    %edx,%edx
  403bb3:	b9 40 00 00 00       	mov    $0x40,%ecx
  403bb8:	45 31 c0             	xor    %r8d,%r8d
  403bbb:	45 31 c9             	xor    %r9d,%r9d
  403bbe:	e8 6d db ff ff       	callq  401730 <uint64_t_secure_load_impl_onebase>
  403bc3:	4d 31 ef             	xor    %r13,%r15
  403bc6:	49 31 ef             	xor    %rbp,%r15
  403bc9:	4d 31 e7             	xor    %r12,%r15
  403bcc:	49 31 c7             	xor    %rax,%r15
  403bcf:	c4 c3 7b f0 ef 04    	rorx   $0x4,%r15d,%ebp
  403bd5:	33 2d a5 d4 00 00    	xor    0xd4a5(%rip),%ebp        # 411080 <st+0x20>
  403bdb:	89 e8                	mov    %ebp,%eax
  403bdd:	83 e0 3f             	and    $0x3f,%eax
  403be0:	48 8d 3c 85 40 a0 40 	lea    0x40a040(,%rax,4),%rdi
  403be7:	00 
  403be8:	c7 04 24 fc 00 00 00 	movl   $0xfc,(%rsp)
  403bef:	be 40 a0 40 00       	mov    $0x40a040,%esi
  403bf4:	31 d2                	xor    %edx,%edx
  403bf6:	b9 40 00 00 00       	mov    $0x40,%ecx
  403bfb:	45 31 c0             	xor    %r8d,%r8d
  403bfe:	45 31 c9             	xor    %r9d,%r9d
  403c01:	e8 2a db ff ff       	callq  401730 <uint64_t_secure_load_impl_onebase>
  403c06:	48 89 c3             	mov    %rax,%rbx
  403c09:	89 e8                	mov    %ebp,%eax
  403c0b:	c1 e8 08             	shr    $0x8,%eax
  403c0e:	83 e0 3f             	and    $0x3f,%eax
  403c11:	48 8d 3c 85 40 a1 40 	lea    0x40a140(,%rax,4),%rdi
  403c18:	00 
  403c19:	c7 04 24 fc 00 00 00 	movl   $0xfc,(%rsp)
  403c20:	be 40 a1 40 00       	mov    $0x40a140,%esi
  403c25:	31 d2                	xor    %edx,%edx
  403c27:	b9 40 00 00 00       	mov    $0x40,%ecx
  403c2c:	45 31 c0             	xor    %r8d,%r8d
  403c2f:	45 31 c9             	xor    %r9d,%r9d
  403c32:	e8 f9 da ff ff       	callq  401730 <uint64_t_secure_load_impl_onebase>
  403c37:	48 89 44 24 18       	mov    %rax,0x18(%rsp)
  403c3c:	89 e8                	mov    %ebp,%eax
  403c3e:	c1 e8 10             	shr    $0x10,%eax
  403c41:	83 e0 3f             	and    $0x3f,%eax
  403c44:	48 8d 3c 85 40 a2 40 	lea    0x40a240(,%rax,4),%rdi
  403c4b:	00 
  403c4c:	c7 04 24 fc 00 00 00 	movl   $0xfc,(%rsp)
  403c53:	be 40 a2 40 00       	mov    $0x40a240,%esi
  403c58:	31 d2                	xor    %edx,%edx
  403c5a:	b9 40 00 00 00       	mov    $0x40,%ecx
  403c5f:	45 31 c0             	xor    %r8d,%r8d
  403c62:	45 31 c9             	xor    %r9d,%r9d
  403c65:	e8 c6 da ff ff       	callq  401730 <uint64_t_secure_load_impl_onebase>
  403c6a:	49 89 c5             	mov    %rax,%r13
  403c6d:	c1 ed 18             	shr    $0x18,%ebp
  403c70:	83 e5 3f             	and    $0x3f,%ebp
  403c73:	48 8d 3c ad 40 a3 40 	lea    0x40a340(,%rbp,4),%rdi
  403c7a:	00 
  403c7b:	c7 04 24 fc 00 00 00 	movl   $0xfc,(%rsp)
  403c82:	be 40 a3 40 00       	mov    $0x40a340,%esi
  403c87:	31 d2                	xor    %edx,%edx
  403c89:	b9 40 00 00 00       	mov    $0x40,%ecx
  403c8e:	45 31 c0             	xor    %r8d,%r8d
  403c91:	45 31 c9             	xor    %r9d,%r9d
  403c94:	e8 97 da ff ff       	callq  401730 <uint64_t_secure_load_impl_onebase>
  403c99:	49 89 c4             	mov    %rax,%r12
  403c9c:	4c 31 f3             	xor    %r14,%rbx
  403c9f:	48 33 5c 24 18       	xor    0x18(%rsp),%rbx
  403ca4:	4d 31 ec             	xor    %r13,%r12
  403ca7:	49 31 dc             	xor    %rbx,%r12
  403caa:	8b 1d d4 d3 00 00    	mov    0xd3d4(%rip),%ebx        # 411084 <st+0x24>
  403cb0:	44 31 fb             	xor    %r15d,%ebx
  403cb3:	89 d8                	mov    %ebx,%eax
  403cb5:	83 e0 3f             	and    $0x3f,%eax
  403cb8:	48 8d 3c 85 40 a4 40 	lea    0x40a440(,%rax,4),%rdi
  403cbf:	00 
  403cc0:	c7 04 24 fc 00 00 00 	movl   $0xfc,(%rsp)
  403cc7:	be 40 a4 40 00       	mov    $0x40a440,%esi
  403ccc:	31 d2                	xor    %edx,%edx
  403cce:	b9 40 00 00 00       	mov    $0x40,%ecx
  403cd3:	45 31 c0             	xor    %r8d,%r8d
  403cd6:	45 31 c9             	xor    %r9d,%r9d
  403cd9:	e8 52 da ff ff       	callq  401730 <uint64_t_secure_load_impl_onebase>
  403cde:	49 89 c5             	mov    %rax,%r13
  403ce1:	89 d8                	mov    %ebx,%eax
  403ce3:	c1 e8 08             	shr    $0x8,%eax
  403ce6:	83 e0 3f             	and    $0x3f,%eax
  403ce9:	48 8d 3c 85 40 a5 40 	lea    0x40a540(,%rax,4),%rdi
  403cf0:	00 
  403cf1:	c7 04 24 fc 00 00 00 	movl   $0xfc,(%rsp)
  403cf8:	be 40 a5 40 00       	mov    $0x40a540,%esi
  403cfd:	31 d2                	xor    %edx,%edx
  403cff:	b9 40 00 00 00       	mov    $0x40,%ecx
  403d04:	45 31 c0             	xor    %r8d,%r8d
  403d07:	45 31 c9             	xor    %r9d,%r9d
  403d0a:	e8 21 da ff ff       	callq  401730 <uint64_t_secure_load_impl_onebase>
  403d0f:	49 89 c6             	mov    %rax,%r14
  403d12:	89 d8                	mov    %ebx,%eax
  403d14:	c1 e8 10             	shr    $0x10,%eax
  403d17:	83 e0 3f             	and    $0x3f,%eax
  403d1a:	48 8d 3c 85 40 a6 40 	lea    0x40a640(,%rax,4),%rdi
  403d21:	00 
  403d22:	c7 04 24 fc 00 00 00 	movl   $0xfc,(%rsp)
  403d29:	be 40 a6 40 00       	mov    $0x40a640,%esi
  403d2e:	31 d2                	xor    %edx,%edx
  403d30:	b9 40 00 00 00       	mov    $0x40,%ecx
  403d35:	45 31 c0             	xor    %r8d,%r8d
  403d38:	45 31 c9             	xor    %r9d,%r9d
  403d3b:	e8 f0 d9 ff ff       	callq  401730 <uint64_t_secure_load_impl_onebase>
  403d40:	48 89 c5             	mov    %rax,%rbp
  403d43:	c1 eb 18             	shr    $0x18,%ebx
  403d46:	83 e3 3f             	and    $0x3f,%ebx
  403d49:	48 8d 3c 9d 40 a7 40 	lea    0x40a740(,%rbx,4),%rdi
  403d50:	00 
  403d51:	c7 04 24 fc 00 00 00 	movl   $0xfc,(%rsp)
  403d58:	be 40 a7 40 00       	mov    $0x40a740,%esi
  403d5d:	31 d2                	xor    %edx,%edx
  403d5f:	b9 40 00 00 00       	mov    $0x40,%ecx
  403d64:	45 31 c0             	xor    %r8d,%r8d
  403d67:	45 31 c9             	xor    %r9d,%r9d
  403d6a:	e8 c1 d9 ff ff       	callq  401730 <uint64_t_secure_load_impl_onebase>
  403d6f:	4d 31 ee             	xor    %r13,%r14
  403d72:	49 31 ee             	xor    %rbp,%r14
  403d75:	4d 31 e6             	xor    %r12,%r14
  403d78:	49 31 c6             	xor    %rax,%r14
  403d7b:	c4 c3 7b f0 ee 04    	rorx   $0x4,%r14d,%ebp
  403d81:	33 2d 01 d3 00 00    	xor    0xd301(%rip),%ebp        # 411088 <st+0x28>
  403d87:	89 e8                	mov    %ebp,%eax
  403d89:	83 e0 3f             	and    $0x3f,%eax
  403d8c:	48 8d 3c 85 40 a0 40 	lea    0x40a040(,%rax,4),%rdi
  403d93:	00 
  403d94:	c7 04 24 fc 00 00 00 	movl   $0xfc,(%rsp)
  403d9b:	be 40 a0 40 00       	mov    $0x40a040,%esi
  403da0:	31 d2                	xor    %edx,%edx
  403da2:	b9 40 00 00 00       	mov    $0x40,%ecx
  403da7:	45 31 c0             	xor    %r8d,%r8d
  403daa:	45 31 c9             	xor    %r9d,%r9d
  403dad:	e8 7e d9 ff ff       	callq  401730 <uint64_t_secure_load_impl_onebase>
  403db2:	48 89 c3             	mov    %rax,%rbx
  403db5:	89 e8                	mov    %ebp,%eax
  403db7:	c1 e8 08             	shr    $0x8,%eax
  403dba:	83 e0 3f             	and    $0x3f,%eax
  403dbd:	48 8d 3c 85 40 a1 40 	lea    0x40a140(,%rax,4),%rdi
  403dc4:	00 
  403dc5:	c7 04 24 fc 00 00 00 	movl   $0xfc,(%rsp)
  403dcc:	be 40 a1 40 00       	mov    $0x40a140,%esi
  403dd1:	31 d2                	xor    %edx,%edx
  403dd3:	b9 40 00 00 00       	mov    $0x40,%ecx
  403dd8:	45 31 c0             	xor    %r8d,%r8d
  403ddb:	45 31 c9             	xor    %r9d,%r9d
  403dde:	e8 4d d9 ff ff       	callq  401730 <uint64_t_secure_load_impl_onebase>
  403de3:	48 89 44 24 18       	mov    %rax,0x18(%rsp)
  403de8:	89 e8                	mov    %ebp,%eax
  403dea:	c1 e8 10             	shr    $0x10,%eax
  403ded:	83 e0 3f             	and    $0x3f,%eax
  403df0:	48 8d 3c 85 40 a2 40 	lea    0x40a240(,%rax,4),%rdi
  403df7:	00 
  403df8:	c7 04 24 fc 00 00 00 	movl   $0xfc,(%rsp)
  403dff:	be 40 a2 40 00       	mov    $0x40a240,%esi
  403e04:	31 d2                	xor    %edx,%edx
  403e06:	b9 40 00 00 00       	mov    $0x40,%ecx
  403e0b:	45 31 c0             	xor    %r8d,%r8d
  403e0e:	45 31 c9             	xor    %r9d,%r9d
  403e11:	e8 1a d9 ff ff       	callq  401730 <uint64_t_secure_load_impl_onebase>
  403e16:	49 89 c5             	mov    %rax,%r13
  403e19:	c1 ed 18             	shr    $0x18,%ebp
  403e1c:	83 e5 3f             	and    $0x3f,%ebp
  403e1f:	48 8d 3c ad 40 a3 40 	lea    0x40a340(,%rbp,4),%rdi
  403e26:	00 
  403e27:	c7 04 24 fc 00 00 00 	movl   $0xfc,(%rsp)
  403e2e:	be 40 a3 40 00       	mov    $0x40a340,%esi
  403e33:	31 d2                	xor    %edx,%edx
  403e35:	b9 40 00 00 00       	mov    $0x40,%ecx
  403e3a:	45 31 c0             	xor    %r8d,%r8d
  403e3d:	45 31 c9             	xor    %r9d,%r9d
  403e40:	e8 eb d8 ff ff       	callq  401730 <uint64_t_secure_load_impl_onebase>
  403e45:	49 89 c4             	mov    %rax,%r12
  403e48:	4c 31 fb             	xor    %r15,%rbx
  403e4b:	48 33 5c 24 18       	xor    0x18(%rsp),%rbx
  403e50:	4d 31 ec             	xor    %r13,%r12
  403e53:	49 31 dc             	xor    %rbx,%r12
  403e56:	8b 1d 30 d2 00 00    	mov    0xd230(%rip),%ebx        # 41108c <st+0x2c>
  403e5c:	44 31 f3             	xor    %r14d,%ebx
  403e5f:	89 d8                	mov    %ebx,%eax
  403e61:	83 e0 3f             	and    $0x3f,%eax
  403e64:	48 8d 3c 85 40 a4 40 	lea    0x40a440(,%rax,4),%rdi
  403e6b:	00 
  403e6c:	c7 04 24 fc 00 00 00 	movl   $0xfc,(%rsp)
  403e73:	be 40 a4 40 00       	mov    $0x40a440,%esi
  403e78:	31 d2                	xor    %edx,%edx
  403e7a:	b9 40 00 00 00       	mov    $0x40,%ecx
  403e7f:	45 31 c0             	xor    %r8d,%r8d
  403e82:	45 31 c9             	xor    %r9d,%r9d
  403e85:	e8 a6 d8 ff ff       	callq  401730 <uint64_t_secure_load_impl_onebase>
  403e8a:	49 89 c5             	mov    %rax,%r13
  403e8d:	89 d8                	mov    %ebx,%eax
  403e8f:	c1 e8 08             	shr    $0x8,%eax
  403e92:	83 e0 3f             	and    $0x3f,%eax
  403e95:	48 8d 3c 85 40 a5 40 	lea    0x40a540(,%rax,4),%rdi
  403e9c:	00 
  403e9d:	c7 04 24 fc 00 00 00 	movl   $0xfc,(%rsp)
  403ea4:	be 40 a5 40 00       	mov    $0x40a540,%esi
  403ea9:	31 d2                	xor    %edx,%edx
  403eab:	b9 40 00 00 00       	mov    $0x40,%ecx
  403eb0:	45 31 c0             	xor    %r8d,%r8d
  403eb3:	45 31 c9             	xor    %r9d,%r9d
  403eb6:	e8 75 d8 ff ff       	callq  401730 <uint64_t_secure_load_impl_onebase>
  403ebb:	49 89 c7             	mov    %rax,%r15
  403ebe:	89 d8                	mov    %ebx,%eax
  403ec0:	c1 e8 10             	shr    $0x10,%eax
  403ec3:	83 e0 3f             	and    $0x3f,%eax
  403ec6:	48 8d 3c 85 40 a6 40 	lea    0x40a640(,%rax,4),%rdi
  403ecd:	00 
  403ece:	c7 04 24 fc 00 00 00 	movl   $0xfc,(%rsp)
  403ed5:	be 40 a6 40 00       	mov    $0x40a640,%esi
  403eda:	31 d2                	xor    %edx,%edx
  403edc:	b9 40 00 00 00       	mov    $0x40,%ecx
  403ee1:	45 31 c0             	xor    %r8d,%r8d
  403ee4:	45 31 c9             	xor    %r9d,%r9d
  403ee7:	e8 44 d8 ff ff       	callq  401730 <uint64_t_secure_load_impl_onebase>
  403eec:	48 89 c5             	mov    %rax,%rbp
  403eef:	c1 eb 18             	shr    $0x18,%ebx
  403ef2:	83 e3 3f             	and    $0x3f,%ebx
  403ef5:	48 8d 3c 9d 40 a7 40 	lea    0x40a740(,%rbx,4),%rdi
  403efc:	00 
  403efd:	c7 04 24 fc 00 00 00 	movl   $0xfc,(%rsp)
  403f04:	be 40 a7 40 00       	mov    $0x40a740,%esi
  403f09:	31 d2                	xor    %edx,%edx
  403f0b:	b9 40 00 00 00       	mov    $0x40,%ecx
  403f10:	45 31 c0             	xor    %r8d,%r8d
  403f13:	45 31 c9             	xor    %r9d,%r9d
  403f16:	e8 15 d8 ff ff       	callq  401730 <uint64_t_secure_load_impl_onebase>
  403f1b:	4d 31 ef             	xor    %r13,%r15
  403f1e:	49 31 ef             	xor    %rbp,%r15
  403f21:	4d 31 e7             	xor    %r12,%r15
  403f24:	49 31 c7             	xor    %rax,%r15
  403f27:	c4 c3 7b f0 ef 04    	rorx   $0x4,%r15d,%ebp
  403f2d:	33 2d 5d d1 00 00    	xor    0xd15d(%rip),%ebp        # 411090 <st+0x30>
  403f33:	89 e8                	mov    %ebp,%eax
  403f35:	83 e0 3f             	and    $0x3f,%eax
  403f38:	48 8d 3c 85 40 a0 40 	lea    0x40a040(,%rax,4),%rdi
  403f3f:	00 
  403f40:	c7 04 24 fc 00 00 00 	movl   $0xfc,(%rsp)
  403f47:	be 40 a0 40 00       	mov    $0x40a040,%esi
  403f4c:	31 d2                	xor    %edx,%edx
  403f4e:	b9 40 00 00 00       	mov    $0x40,%ecx
  403f53:	45 31 c0             	xor    %r8d,%r8d
  403f56:	45 31 c9             	xor    %r9d,%r9d
  403f59:	e8 d2 d7 ff ff       	callq  401730 <uint64_t_secure_load_impl_onebase>
  403f5e:	48 89 c3             	mov    %rax,%rbx
  403f61:	89 e8                	mov    %ebp,%eax
  403f63:	c1 e8 08             	shr    $0x8,%eax
  403f66:	83 e0 3f             	and    $0x3f,%eax
  403f69:	48 8d 3c 85 40 a1 40 	lea    0x40a140(,%rax,4),%rdi
  403f70:	00 
  403f71:	c7 04 24 fc 00 00 00 	movl   $0xfc,(%rsp)
  403f78:	be 40 a1 40 00       	mov    $0x40a140,%esi
  403f7d:	31 d2                	xor    %edx,%edx
  403f7f:	b9 40 00 00 00       	mov    $0x40,%ecx
  403f84:	45 31 c0             	xor    %r8d,%r8d
  403f87:	45 31 c9             	xor    %r9d,%r9d
  403f8a:	e8 a1 d7 ff ff       	callq  401730 <uint64_t_secure_load_impl_onebase>
  403f8f:	48 89 44 24 18       	mov    %rax,0x18(%rsp)
  403f94:	89 e8                	mov    %ebp,%eax
  403f96:	c1 e8 10             	shr    $0x10,%eax
  403f99:	83 e0 3f             	and    $0x3f,%eax
  403f9c:	48 8d 3c 85 40 a2 40 	lea    0x40a240(,%rax,4),%rdi
  403fa3:	00 
  403fa4:	c7 04 24 fc 00 00 00 	movl   $0xfc,(%rsp)
  403fab:	be 40 a2 40 00       	mov    $0x40a240,%esi
  403fb0:	31 d2                	xor    %edx,%edx
  403fb2:	b9 40 00 00 00       	mov    $0x40,%ecx
  403fb7:	45 31 c0             	xor    %r8d,%r8d
  403fba:	45 31 c9             	xor    %r9d,%r9d
  403fbd:	e8 6e d7 ff ff       	callq  401730 <uint64_t_secure_load_impl_onebase>
  403fc2:	49 89 c5             	mov    %rax,%r13
  403fc5:	c1 ed 18             	shr    $0x18,%ebp
  403fc8:	83 e5 3f             	and    $0x3f,%ebp
  403fcb:	48 8d 3c ad 40 a3 40 	lea    0x40a340(,%rbp,4),%rdi
  403fd2:	00 
  403fd3:	c7 04 24 fc 00 00 00 	movl   $0xfc,(%rsp)
  403fda:	be 40 a3 40 00       	mov    $0x40a340,%esi
  403fdf:	31 d2                	xor    %edx,%edx
  403fe1:	b9 40 00 00 00       	mov    $0x40,%ecx
  403fe6:	45 31 c0             	xor    %r8d,%r8d
  403fe9:	45 31 c9             	xor    %r9d,%r9d
  403fec:	e8 3f d7 ff ff       	callq  401730 <uint64_t_secure_load_impl_onebase>
  403ff1:	49 89 c4             	mov    %rax,%r12
  403ff4:	4c 31 f3             	xor    %r14,%rbx
  403ff7:	48 33 5c 24 18       	xor    0x18(%rsp),%rbx
  403ffc:	4d 31 ec             	xor    %r13,%r12
  403fff:	49 31 dc             	xor    %rbx,%r12
  404002:	8b 1d 8c d0 00 00    	mov    0xd08c(%rip),%ebx        # 411094 <st+0x34>
  404008:	44 31 fb             	xor    %r15d,%ebx
  40400b:	89 d8                	mov    %ebx,%eax
  40400d:	83 e0 3f             	and    $0x3f,%eax
  404010:	48 8d 3c 85 40 a4 40 	lea    0x40a440(,%rax,4),%rdi
  404017:	00 
  404018:	c7 04 24 fc 00 00 00 	movl   $0xfc,(%rsp)
  40401f:	be 40 a4 40 00       	mov    $0x40a440,%esi
  404024:	31 d2                	xor    %edx,%edx
  404026:	b9 40 00 00 00       	mov    $0x40,%ecx
  40402b:	45 31 c0             	xor    %r8d,%r8d
  40402e:	45 31 c9             	xor    %r9d,%r9d
  404031:	e8 fa d6 ff ff       	callq  401730 <uint64_t_secure_load_impl_onebase>
  404036:	49 89 c5             	mov    %rax,%r13
  404039:	89 d8                	mov    %ebx,%eax
  40403b:	c1 e8 08             	shr    $0x8,%eax
  40403e:	83 e0 3f             	and    $0x3f,%eax
  404041:	48 8d 3c 85 40 a5 40 	lea    0x40a540(,%rax,4),%rdi
  404048:	00 
  404049:	c7 04 24 fc 00 00 00 	movl   $0xfc,(%rsp)
  404050:	be 40 a5 40 00       	mov    $0x40a540,%esi
  404055:	31 d2                	xor    %edx,%edx
  404057:	b9 40 00 00 00       	mov    $0x40,%ecx
  40405c:	45 31 c0             	xor    %r8d,%r8d
  40405f:	45 31 c9             	xor    %r9d,%r9d
  404062:	e8 c9 d6 ff ff       	callq  401730 <uint64_t_secure_load_impl_onebase>
  404067:	49 89 c6             	mov    %rax,%r14
  40406a:	89 d8                	mov    %ebx,%eax
  40406c:	c1 e8 10             	shr    $0x10,%eax
  40406f:	83 e0 3f             	and    $0x3f,%eax
  404072:	48 8d 3c 85 40 a6 40 	lea    0x40a640(,%rax,4),%rdi
  404079:	00 
  40407a:	c7 04 24 fc 00 00 00 	movl   $0xfc,(%rsp)
  404081:	be 40 a6 40 00       	mov    $0x40a640,%esi
  404086:	31 d2                	xor    %edx,%edx
  404088:	b9 40 00 00 00       	mov    $0x40,%ecx
  40408d:	45 31 c0             	xor    %r8d,%r8d
  404090:	45 31 c9             	xor    %r9d,%r9d
  404093:	e8 98 d6 ff ff       	callq  401730 <uint64_t_secure_load_impl_onebase>
  404098:	48 89 c5             	mov    %rax,%rbp
  40409b:	c1 eb 18             	shr    $0x18,%ebx
  40409e:	83 e3 3f             	and    $0x3f,%ebx
  4040a1:	48 8d 3c 9d 40 a7 40 	lea    0x40a740(,%rbx,4),%rdi
  4040a8:	00 
  4040a9:	c7 04 24 fc 00 00 00 	movl   $0xfc,(%rsp)
  4040b0:	be 40 a7 40 00       	mov    $0x40a740,%esi
  4040b5:	31 d2                	xor    %edx,%edx
  4040b7:	b9 40 00 00 00       	mov    $0x40,%ecx
  4040bc:	45 31 c0             	xor    %r8d,%r8d
  4040bf:	45 31 c9             	xor    %r9d,%r9d
  4040c2:	e8 69 d6 ff ff       	callq  401730 <uint64_t_secure_load_impl_onebase>
  4040c7:	4d 31 ee             	xor    %r13,%r14
  4040ca:	49 31 ee             	xor    %rbp,%r14
  4040cd:	4d 31 e6             	xor    %r12,%r14
  4040d0:	49 31 c6             	xor    %rax,%r14
  4040d3:	c4 c3 7b f0 ee 04    	rorx   $0x4,%r14d,%ebp
  4040d9:	33 2d b9 cf 00 00    	xor    0xcfb9(%rip),%ebp        # 411098 <st+0x38>
  4040df:	89 e8                	mov    %ebp,%eax
  4040e1:	83 e0 3f             	and    $0x3f,%eax
  4040e4:	48 8d 3c 85 40 a0 40 	lea    0x40a040(,%rax,4),%rdi
  4040eb:	00 
  4040ec:	c7 04 24 fc 00 00 00 	movl   $0xfc,(%rsp)
  4040f3:	be 40 a0 40 00       	mov    $0x40a040,%esi
  4040f8:	31 d2                	xor    %edx,%edx
  4040fa:	b9 40 00 00 00       	mov    $0x40,%ecx
  4040ff:	45 31 c0             	xor    %r8d,%r8d
  404102:	45 31 c9             	xor    %r9d,%r9d
  404105:	e8 26 d6 ff ff       	callq  401730 <uint64_t_secure_load_impl_onebase>
  40410a:	48 89 c3             	mov    %rax,%rbx
  40410d:	89 e8                	mov    %ebp,%eax
  40410f:	c1 e8 08             	shr    $0x8,%eax
  404112:	83 e0 3f             	and    $0x3f,%eax
  404115:	48 8d 3c 85 40 a1 40 	lea    0x40a140(,%rax,4),%rdi
  40411c:	00 
  40411d:	c7 04 24 fc 00 00 00 	movl   $0xfc,(%rsp)
  404124:	be 40 a1 40 00       	mov    $0x40a140,%esi
  404129:	31 d2                	xor    %edx,%edx
  40412b:	b9 40 00 00 00       	mov    $0x40,%ecx
  404130:	45 31 c0             	xor    %r8d,%r8d
  404133:	45 31 c9             	xor    %r9d,%r9d
  404136:	e8 f5 d5 ff ff       	callq  401730 <uint64_t_secure_load_impl_onebase>
  40413b:	48 89 44 24 18       	mov    %rax,0x18(%rsp)
  404140:	89 e8                	mov    %ebp,%eax
  404142:	c1 e8 10             	shr    $0x10,%eax
  404145:	83 e0 3f             	and    $0x3f,%eax
  404148:	48 8d 3c 85 40 a2 40 	lea    0x40a240(,%rax,4),%rdi
  40414f:	00 
  404150:	c7 04 24 fc 00 00 00 	movl   $0xfc,(%rsp)
  404157:	be 40 a2 40 00       	mov    $0x40a240,%esi
  40415c:	31 d2                	xor    %edx,%edx
  40415e:	b9 40 00 00 00       	mov    $0x40,%ecx
  404163:	45 31 c0             	xor    %r8d,%r8d
  404166:	45 31 c9             	xor    %r9d,%r9d
  404169:	e8 c2 d5 ff ff       	callq  401730 <uint64_t_secure_load_impl_onebase>
  40416e:	49 89 c5             	mov    %rax,%r13
  404171:	c1 ed 18             	shr    $0x18,%ebp
  404174:	83 e5 3f             	and    $0x3f,%ebp
  404177:	48 8d 3c ad 40 a3 40 	lea    0x40a340(,%rbp,4),%rdi
  40417e:	00 
  40417f:	c7 04 24 fc 00 00 00 	movl   $0xfc,(%rsp)
  404186:	be 40 a3 40 00       	mov    $0x40a340,%esi
  40418b:	31 d2                	xor    %edx,%edx
  40418d:	b9 40 00 00 00       	mov    $0x40,%ecx
  404192:	45 31 c0             	xor    %r8d,%r8d
  404195:	45 31 c9             	xor    %r9d,%r9d
  404198:	e8 93 d5 ff ff       	callq  401730 <uint64_t_secure_load_impl_onebase>
  40419d:	49 89 c4             	mov    %rax,%r12
  4041a0:	4c 31 fb             	xor    %r15,%rbx
  4041a3:	48 33 5c 24 18       	xor    0x18(%rsp),%rbx
  4041a8:	4d 31 ec             	xor    %r13,%r12
  4041ab:	49 31 dc             	xor    %rbx,%r12
  4041ae:	8b 1d e8 ce 00 00    	mov    0xcee8(%rip),%ebx        # 41109c <st+0x3c>
  4041b4:	44 31 f3             	xor    %r14d,%ebx
  4041b7:	89 d8                	mov    %ebx,%eax
  4041b9:	83 e0 3f             	and    $0x3f,%eax
  4041bc:	48 8d 3c 85 40 a4 40 	lea    0x40a440(,%rax,4),%rdi
  4041c3:	00 
  4041c4:	c7 04 24 fc 00 00 00 	movl   $0xfc,(%rsp)
  4041cb:	be 40 a4 40 00       	mov    $0x40a440,%esi
  4041d0:	31 d2                	xor    %edx,%edx
  4041d2:	b9 40 00 00 00       	mov    $0x40,%ecx
  4041d7:	45 31 c0             	xor    %r8d,%r8d
  4041da:	45 31 c9             	xor    %r9d,%r9d
  4041dd:	e8 4e d5 ff ff       	callq  401730 <uint64_t_secure_load_impl_onebase>
  4041e2:	49 89 c5             	mov    %rax,%r13
  4041e5:	89 d8                	mov    %ebx,%eax
  4041e7:	c1 e8 08             	shr    $0x8,%eax
  4041ea:	83 e0 3f             	and    $0x3f,%eax
  4041ed:	48 8d 3c 85 40 a5 40 	lea    0x40a540(,%rax,4),%rdi
  4041f4:	00 
  4041f5:	c7 04 24 fc 00 00 00 	movl   $0xfc,(%rsp)
  4041fc:	be 40 a5 40 00       	mov    $0x40a540,%esi
  404201:	31 d2                	xor    %edx,%edx
  404203:	b9 40 00 00 00       	mov    $0x40,%ecx
  404208:	45 31 c0             	xor    %r8d,%r8d
  40420b:	45 31 c9             	xor    %r9d,%r9d
  40420e:	e8 1d d5 ff ff       	callq  401730 <uint64_t_secure_load_impl_onebase>
  404213:	49 89 c7             	mov    %rax,%r15
  404216:	89 d8                	mov    %ebx,%eax
  404218:	c1 e8 10             	shr    $0x10,%eax
  40421b:	83 e0 3f             	and    $0x3f,%eax
  40421e:	48 8d 3c 85 40 a6 40 	lea    0x40a640(,%rax,4),%rdi
  404225:	00 
  404226:	c7 04 24 fc 00 00 00 	movl   $0xfc,(%rsp)
  40422d:	be 40 a6 40 00       	mov    $0x40a640,%esi
  404232:	31 d2                	xor    %edx,%edx
  404234:	b9 40 00 00 00       	mov    $0x40,%ecx
  404239:	45 31 c0             	xor    %r8d,%r8d
  40423c:	45 31 c9             	xor    %r9d,%r9d
  40423f:	e8 ec d4 ff ff       	callq  401730 <uint64_t_secure_load_impl_onebase>
  404244:	48 89 c5             	mov    %rax,%rbp
  404247:	c1 eb 18             	shr    $0x18,%ebx
  40424a:	83 e3 3f             	and    $0x3f,%ebx
  40424d:	48 8d 3c 9d 40 a7 40 	lea    0x40a740(,%rbx,4),%rdi
  404254:	00 
  404255:	c7 04 24 fc 00 00 00 	movl   $0xfc,(%rsp)
  40425c:	be 40 a7 40 00       	mov    $0x40a740,%esi
  404261:	31 d2                	xor    %edx,%edx
  404263:	b9 40 00 00 00       	mov    $0x40,%ecx
  404268:	45 31 c0             	xor    %r8d,%r8d
  40426b:	45 31 c9             	xor    %r9d,%r9d
  40426e:	e8 bd d4 ff ff       	callq  401730 <uint64_t_secure_load_impl_onebase>
  404273:	4d 31 ef             	xor    %r13,%r15
  404276:	49 31 ef             	xor    %rbp,%r15
  404279:	4d 31 e7             	xor    %r12,%r15
  40427c:	49 31 c7             	xor    %rax,%r15
  40427f:	c4 c3 7b f0 ef 04    	rorx   $0x4,%r15d,%ebp
  404285:	33 2d 15 ce 00 00    	xor    0xce15(%rip),%ebp        # 4110a0 <st+0x40>
  40428b:	89 e8                	mov    %ebp,%eax
  40428d:	83 e0 3f             	and    $0x3f,%eax
  404290:	48 8d 3c 85 40 a0 40 	lea    0x40a040(,%rax,4),%rdi
  404297:	00 
  404298:	c7 04 24 fc 00 00 00 	movl   $0xfc,(%rsp)
  40429f:	be 40 a0 40 00       	mov    $0x40a040,%esi
  4042a4:	31 d2                	xor    %edx,%edx
  4042a6:	b9 40 00 00 00       	mov    $0x40,%ecx
  4042ab:	45 31 c0             	xor    %r8d,%r8d
  4042ae:	45 31 c9             	xor    %r9d,%r9d
  4042b1:	e8 7a d4 ff ff       	callq  401730 <uint64_t_secure_load_impl_onebase>
  4042b6:	48 89 c3             	mov    %rax,%rbx
  4042b9:	89 e8                	mov    %ebp,%eax
  4042bb:	c1 e8 08             	shr    $0x8,%eax
  4042be:	83 e0 3f             	and    $0x3f,%eax
  4042c1:	48 8d 3c 85 40 a1 40 	lea    0x40a140(,%rax,4),%rdi
  4042c8:	00 
  4042c9:	c7 04 24 fc 00 00 00 	movl   $0xfc,(%rsp)
  4042d0:	be 40 a1 40 00       	mov    $0x40a140,%esi
  4042d5:	31 d2                	xor    %edx,%edx
  4042d7:	b9 40 00 00 00       	mov    $0x40,%ecx
  4042dc:	45 31 c0             	xor    %r8d,%r8d
  4042df:	45 31 c9             	xor    %r9d,%r9d
  4042e2:	e8 49 d4 ff ff       	callq  401730 <uint64_t_secure_load_impl_onebase>
  4042e7:	48 89 44 24 18       	mov    %rax,0x18(%rsp)
  4042ec:	89 e8                	mov    %ebp,%eax
  4042ee:	c1 e8 10             	shr    $0x10,%eax
  4042f1:	83 e0 3f             	and    $0x3f,%eax
  4042f4:	48 8d 3c 85 40 a2 40 	lea    0x40a240(,%rax,4),%rdi
  4042fb:	00 
  4042fc:	c7 04 24 fc 00 00 00 	movl   $0xfc,(%rsp)
  404303:	be 40 a2 40 00       	mov    $0x40a240,%esi
  404308:	31 d2                	xor    %edx,%edx
  40430a:	b9 40 00 00 00       	mov    $0x40,%ecx
  40430f:	45 31 c0             	xor    %r8d,%r8d
  404312:	45 31 c9             	xor    %r9d,%r9d
  404315:	e8 16 d4 ff ff       	callq  401730 <uint64_t_secure_load_impl_onebase>
  40431a:	49 89 c5             	mov    %rax,%r13
  40431d:	c1 ed 18             	shr    $0x18,%ebp
  404320:	83 e5 3f             	and    $0x3f,%ebp
  404323:	48 8d 3c ad 40 a3 40 	lea    0x40a340(,%rbp,4),%rdi
  40432a:	00 
  40432b:	c7 04 24 fc 00 00 00 	movl   $0xfc,(%rsp)
  404332:	be 40 a3 40 00       	mov    $0x40a340,%esi
  404337:	31 d2                	xor    %edx,%edx
  404339:	b9 40 00 00 00       	mov    $0x40,%ecx
  40433e:	45 31 c0             	xor    %r8d,%r8d
  404341:	45 31 c9             	xor    %r9d,%r9d
  404344:	e8 e7 d3 ff ff       	callq  401730 <uint64_t_secure_load_impl_onebase>
  404349:	49 89 c4             	mov    %rax,%r12
  40434c:	4c 31 f3             	xor    %r14,%rbx
  40434f:	48 33 5c 24 18       	xor    0x18(%rsp),%rbx
  404354:	4d 31 ec             	xor    %r13,%r12
  404357:	49 31 dc             	xor    %rbx,%r12
  40435a:	8b 1d 44 cd 00 00    	mov    0xcd44(%rip),%ebx        # 4110a4 <st+0x44>
  404360:	44 31 fb             	xor    %r15d,%ebx
  404363:	89 d8                	mov    %ebx,%eax
  404365:	83 e0 3f             	and    $0x3f,%eax
  404368:	48 8d 3c 85 40 a4 40 	lea    0x40a440(,%rax,4),%rdi
  40436f:	00 
  404370:	c7 04 24 fc 00 00 00 	movl   $0xfc,(%rsp)
  404377:	be 40 a4 40 00       	mov    $0x40a440,%esi
  40437c:	31 d2                	xor    %edx,%edx
  40437e:	b9 40 00 00 00       	mov    $0x40,%ecx
  404383:	45 31 c0             	xor    %r8d,%r8d
  404386:	45 31 c9             	xor    %r9d,%r9d
  404389:	e8 a2 d3 ff ff       	callq  401730 <uint64_t_secure_load_impl_onebase>
  40438e:	49 89 c5             	mov    %rax,%r13
  404391:	89 d8                	mov    %ebx,%eax
  404393:	c1 e8 08             	shr    $0x8,%eax
  404396:	83 e0 3f             	and    $0x3f,%eax
  404399:	48 8d 3c 85 40 a5 40 	lea    0x40a540(,%rax,4),%rdi
  4043a0:	00 
  4043a1:	c7 04 24 fc 00 00 00 	movl   $0xfc,(%rsp)
  4043a8:	be 40 a5 40 00       	mov    $0x40a540,%esi
  4043ad:	31 d2                	xor    %edx,%edx
  4043af:	b9 40 00 00 00       	mov    $0x40,%ecx
  4043b4:	45 31 c0             	xor    %r8d,%r8d
  4043b7:	45 31 c9             	xor    %r9d,%r9d
  4043ba:	e8 71 d3 ff ff       	callq  401730 <uint64_t_secure_load_impl_onebase>
  4043bf:	49 89 c6             	mov    %rax,%r14
  4043c2:	89 d8                	mov    %ebx,%eax
  4043c4:	c1 e8 10             	shr    $0x10,%eax
  4043c7:	83 e0 3f             	and    $0x3f,%eax
  4043ca:	48 8d 3c 85 40 a6 40 	lea    0x40a640(,%rax,4),%rdi
  4043d1:	00 
  4043d2:	c7 04 24 fc 00 00 00 	movl   $0xfc,(%rsp)
  4043d9:	be 40 a6 40 00       	mov    $0x40a640,%esi
  4043de:	31 d2                	xor    %edx,%edx
  4043e0:	b9 40 00 00 00       	mov    $0x40,%ecx
  4043e5:	45 31 c0             	xor    %r8d,%r8d
  4043e8:	45 31 c9             	xor    %r9d,%r9d
  4043eb:	e8 40 d3 ff ff       	callq  401730 <uint64_t_secure_load_impl_onebase>
  4043f0:	48 89 c5             	mov    %rax,%rbp
  4043f3:	c1 eb 18             	shr    $0x18,%ebx
  4043f6:	83 e3 3f             	and    $0x3f,%ebx
  4043f9:	48 8d 3c 9d 40 a7 40 	lea    0x40a740(,%rbx,4),%rdi
  404400:	00 
  404401:	c7 04 24 fc 00 00 00 	movl   $0xfc,(%rsp)
  404408:	be 40 a7 40 00       	mov    $0x40a740,%esi
  40440d:	31 d2                	xor    %edx,%edx
  40440f:	b9 40 00 00 00       	mov    $0x40,%ecx
  404414:	45 31 c0             	xor    %r8d,%r8d
  404417:	45 31 c9             	xor    %r9d,%r9d
  40441a:	e8 11 d3 ff ff       	callq  401730 <uint64_t_secure_load_impl_onebase>
  40441f:	4d 31 ee             	xor    %r13,%r14
  404422:	49 31 ee             	xor    %rbp,%r14
  404425:	4d 31 e6             	xor    %r12,%r14
  404428:	49 31 c6             	xor    %rax,%r14
  40442b:	c4 c3 7b f0 ee 04    	rorx   $0x4,%r14d,%ebp
  404431:	33 2d 71 cc 00 00    	xor    0xcc71(%rip),%ebp        # 4110a8 <st+0x48>
  404437:	89 e8                	mov    %ebp,%eax
  404439:	83 e0 3f             	and    $0x3f,%eax
  40443c:	48 8d 3c 85 40 a0 40 	lea    0x40a040(,%rax,4),%rdi
  404443:	00 
  404444:	c7 04 24 fc 00 00 00 	movl   $0xfc,(%rsp)
  40444b:	be 40 a0 40 00       	mov    $0x40a040,%esi
  404450:	31 d2                	xor    %edx,%edx
  404452:	b9 40 00 00 00       	mov    $0x40,%ecx
  404457:	45 31 c0             	xor    %r8d,%r8d
  40445a:	45 31 c9             	xor    %r9d,%r9d
  40445d:	e8 ce d2 ff ff       	callq  401730 <uint64_t_secure_load_impl_onebase>
  404462:	48 89 c3             	mov    %rax,%rbx
  404465:	89 e8                	mov    %ebp,%eax
  404467:	c1 e8 08             	shr    $0x8,%eax
  40446a:	83 e0 3f             	and    $0x3f,%eax
  40446d:	48 8d 3c 85 40 a1 40 	lea    0x40a140(,%rax,4),%rdi
  404474:	00 
  404475:	c7 04 24 fc 00 00 00 	movl   $0xfc,(%rsp)
  40447c:	be 40 a1 40 00       	mov    $0x40a140,%esi
  404481:	31 d2                	xor    %edx,%edx
  404483:	b9 40 00 00 00       	mov    $0x40,%ecx
  404488:	45 31 c0             	xor    %r8d,%r8d
  40448b:	45 31 c9             	xor    %r9d,%r9d
  40448e:	e8 9d d2 ff ff       	callq  401730 <uint64_t_secure_load_impl_onebase>
  404493:	48 89 44 24 18       	mov    %rax,0x18(%rsp)
  404498:	89 e8                	mov    %ebp,%eax
  40449a:	c1 e8 10             	shr    $0x10,%eax
  40449d:	83 e0 3f             	and    $0x3f,%eax
  4044a0:	48 8d 3c 85 40 a2 40 	lea    0x40a240(,%rax,4),%rdi
  4044a7:	00 
  4044a8:	c7 04 24 fc 00 00 00 	movl   $0xfc,(%rsp)
  4044af:	be 40 a2 40 00       	mov    $0x40a240,%esi
  4044b4:	31 d2                	xor    %edx,%edx
  4044b6:	b9 40 00 00 00       	mov    $0x40,%ecx
  4044bb:	45 31 c0             	xor    %r8d,%r8d
  4044be:	45 31 c9             	xor    %r9d,%r9d
  4044c1:	e8 6a d2 ff ff       	callq  401730 <uint64_t_secure_load_impl_onebase>
  4044c6:	49 89 c5             	mov    %rax,%r13
  4044c9:	c1 ed 18             	shr    $0x18,%ebp
  4044cc:	83 e5 3f             	and    $0x3f,%ebp
  4044cf:	48 8d 3c ad 40 a3 40 	lea    0x40a340(,%rbp,4),%rdi
  4044d6:	00 
  4044d7:	c7 04 24 fc 00 00 00 	movl   $0xfc,(%rsp)
  4044de:	be 40 a3 40 00       	mov    $0x40a340,%esi
  4044e3:	31 d2                	xor    %edx,%edx
  4044e5:	b9 40 00 00 00       	mov    $0x40,%ecx
  4044ea:	45 31 c0             	xor    %r8d,%r8d
  4044ed:	45 31 c9             	xor    %r9d,%r9d
  4044f0:	e8 3b d2 ff ff       	callq  401730 <uint64_t_secure_load_impl_onebase>
  4044f5:	49 89 c4             	mov    %rax,%r12
  4044f8:	4c 31 fb             	xor    %r15,%rbx
  4044fb:	48 33 5c 24 18       	xor    0x18(%rsp),%rbx
  404500:	4d 31 ec             	xor    %r13,%r12
  404503:	49 31 dc             	xor    %rbx,%r12
  404506:	8b 1d a0 cb 00 00    	mov    0xcba0(%rip),%ebx        # 4110ac <st+0x4c>
  40450c:	44 31 f3             	xor    %r14d,%ebx
  40450f:	89 d8                	mov    %ebx,%eax
  404511:	83 e0 3f             	and    $0x3f,%eax
  404514:	48 8d 3c 85 40 a4 40 	lea    0x40a440(,%rax,4),%rdi
  40451b:	00 
  40451c:	c7 04 24 fc 00 00 00 	movl   $0xfc,(%rsp)
  404523:	be 40 a4 40 00       	mov    $0x40a440,%esi
  404528:	31 d2                	xor    %edx,%edx
  40452a:	b9 40 00 00 00       	mov    $0x40,%ecx
  40452f:	45 31 c0             	xor    %r8d,%r8d
  404532:	45 31 c9             	xor    %r9d,%r9d
  404535:	e8 f6 d1 ff ff       	callq  401730 <uint64_t_secure_load_impl_onebase>
  40453a:	49 89 c5             	mov    %rax,%r13
  40453d:	89 d8                	mov    %ebx,%eax
  40453f:	c1 e8 08             	shr    $0x8,%eax
  404542:	83 e0 3f             	and    $0x3f,%eax
  404545:	48 8d 3c 85 40 a5 40 	lea    0x40a540(,%rax,4),%rdi
  40454c:	00 
  40454d:	c7 04 24 fc 00 00 00 	movl   $0xfc,(%rsp)
  404554:	be 40 a5 40 00       	mov    $0x40a540,%esi
  404559:	31 d2                	xor    %edx,%edx
  40455b:	b9 40 00 00 00       	mov    $0x40,%ecx
  404560:	45 31 c0             	xor    %r8d,%r8d
  404563:	45 31 c9             	xor    %r9d,%r9d
  404566:	e8 c5 d1 ff ff       	callq  401730 <uint64_t_secure_load_impl_onebase>
  40456b:	49 89 c7             	mov    %rax,%r15
  40456e:	89 d8                	mov    %ebx,%eax
  404570:	c1 e8 10             	shr    $0x10,%eax
  404573:	83 e0 3f             	and    $0x3f,%eax
  404576:	48 8d 3c 85 40 a6 40 	lea    0x40a640(,%rax,4),%rdi
  40457d:	00 
  40457e:	c7 04 24 fc 00 00 00 	movl   $0xfc,(%rsp)
  404585:	be 40 a6 40 00       	mov    $0x40a640,%esi
  40458a:	31 d2                	xor    %edx,%edx
  40458c:	b9 40 00 00 00       	mov    $0x40,%ecx
  404591:	45 31 c0             	xor    %r8d,%r8d
  404594:	45 31 c9             	xor    %r9d,%r9d
  404597:	e8 94 d1 ff ff       	callq  401730 <uint64_t_secure_load_impl_onebase>
  40459c:	48 89 c5             	mov    %rax,%rbp
  40459f:	c1 eb 18             	shr    $0x18,%ebx
  4045a2:	83 e3 3f             	and    $0x3f,%ebx
  4045a5:	48 8d 3c 9d 40 a7 40 	lea    0x40a740(,%rbx,4),%rdi
  4045ac:	00 
  4045ad:	c7 04 24 fc 00 00 00 	movl   $0xfc,(%rsp)
  4045b4:	be 40 a7 40 00       	mov    $0x40a740,%esi
  4045b9:	31 d2                	xor    %edx,%edx
  4045bb:	b9 40 00 00 00       	mov    $0x40,%ecx
  4045c0:	45 31 c0             	xor    %r8d,%r8d
  4045c3:	45 31 c9             	xor    %r9d,%r9d
  4045c6:	e8 65 d1 ff ff       	callq  401730 <uint64_t_secure_load_impl_onebase>
  4045cb:	4d 31 ef             	xor    %r13,%r15
  4045ce:	49 31 ef             	xor    %rbp,%r15
  4045d1:	4d 31 e7             	xor    %r12,%r15
  4045d4:	49 31 c7             	xor    %rax,%r15
  4045d7:	c4 c3 7b f0 ef 04    	rorx   $0x4,%r15d,%ebp
  4045dd:	33 2d cd ca 00 00    	xor    0xcacd(%rip),%ebp        # 4110b0 <st+0x50>
  4045e3:	89 e8                	mov    %ebp,%eax
  4045e5:	83 e0 3f             	and    $0x3f,%eax
  4045e8:	48 8d 3c 85 40 a0 40 	lea    0x40a040(,%rax,4),%rdi
  4045ef:	00 
  4045f0:	c7 04 24 fc 00 00 00 	movl   $0xfc,(%rsp)
  4045f7:	be 40 a0 40 00       	mov    $0x40a040,%esi
  4045fc:	31 d2                	xor    %edx,%edx
  4045fe:	b9 40 00 00 00       	mov    $0x40,%ecx
  404603:	45 31 c0             	xor    %r8d,%r8d
  404606:	45 31 c9             	xor    %r9d,%r9d
  404609:	e8 22 d1 ff ff       	callq  401730 <uint64_t_secure_load_impl_onebase>
  40460e:	48 89 c3             	mov    %rax,%rbx
  404611:	89 e8                	mov    %ebp,%eax
  404613:	c1 e8 08             	shr    $0x8,%eax
  404616:	83 e0 3f             	and    $0x3f,%eax
  404619:	48 8d 3c 85 40 a1 40 	lea    0x40a140(,%rax,4),%rdi
  404620:	00 
  404621:	c7 04 24 fc 00 00 00 	movl   $0xfc,(%rsp)
  404628:	be 40 a1 40 00       	mov    $0x40a140,%esi
  40462d:	31 d2                	xor    %edx,%edx
  40462f:	b9 40 00 00 00       	mov    $0x40,%ecx
  404634:	45 31 c0             	xor    %r8d,%r8d
  404637:	45 31 c9             	xor    %r9d,%r9d
  40463a:	e8 f1 d0 ff ff       	callq  401730 <uint64_t_secure_load_impl_onebase>
  40463f:	48 89 44 24 18       	mov    %rax,0x18(%rsp)
  404644:	89 e8                	mov    %ebp,%eax
  404646:	c1 e8 10             	shr    $0x10,%eax
  404649:	83 e0 3f             	and    $0x3f,%eax
  40464c:	48 8d 3c 85 40 a2 40 	lea    0x40a240(,%rax,4),%rdi
  404653:	00 
  404654:	c7 04 24 fc 00 00 00 	movl   $0xfc,(%rsp)
  40465b:	be 40 a2 40 00       	mov    $0x40a240,%esi
  404660:	31 d2                	xor    %edx,%edx
  404662:	b9 40 00 00 00       	mov    $0x40,%ecx
  404667:	45 31 c0             	xor    %r8d,%r8d
  40466a:	45 31 c9             	xor    %r9d,%r9d
  40466d:	e8 be d0 ff ff       	callq  401730 <uint64_t_secure_load_impl_onebase>
  404672:	49 89 c5             	mov    %rax,%r13
  404675:	c1 ed 18             	shr    $0x18,%ebp
  404678:	83 e5 3f             	and    $0x3f,%ebp
  40467b:	48 8d 3c ad 40 a3 40 	lea    0x40a340(,%rbp,4),%rdi
  404682:	00 
  404683:	c7 04 24 fc 00 00 00 	movl   $0xfc,(%rsp)
  40468a:	be 40 a3 40 00       	mov    $0x40a340,%esi
  40468f:	31 d2                	xor    %edx,%edx
  404691:	b9 40 00 00 00       	mov    $0x40,%ecx
  404696:	45 31 c0             	xor    %r8d,%r8d
  404699:	45 31 c9             	xor    %r9d,%r9d
  40469c:	e8 8f d0 ff ff       	callq  401730 <uint64_t_secure_load_impl_onebase>
  4046a1:	49 89 c4             	mov    %rax,%r12
  4046a4:	4c 31 f3             	xor    %r14,%rbx
  4046a7:	48 33 5c 24 18       	xor    0x18(%rsp),%rbx
  4046ac:	4d 31 ec             	xor    %r13,%r12
  4046af:	49 31 dc             	xor    %rbx,%r12
  4046b2:	8b 1d fc c9 00 00    	mov    0xc9fc(%rip),%ebx        # 4110b4 <st+0x54>
  4046b8:	44 31 fb             	xor    %r15d,%ebx
  4046bb:	89 d8                	mov    %ebx,%eax
  4046bd:	83 e0 3f             	and    $0x3f,%eax
  4046c0:	48 8d 3c 85 40 a4 40 	lea    0x40a440(,%rax,4),%rdi
  4046c7:	00 
  4046c8:	c7 04 24 fc 00 00 00 	movl   $0xfc,(%rsp)
  4046cf:	be 40 a4 40 00       	mov    $0x40a440,%esi
  4046d4:	31 d2                	xor    %edx,%edx
  4046d6:	b9 40 00 00 00       	mov    $0x40,%ecx
  4046db:	45 31 c0             	xor    %r8d,%r8d
  4046de:	45 31 c9             	xor    %r9d,%r9d
  4046e1:	e8 4a d0 ff ff       	callq  401730 <uint64_t_secure_load_impl_onebase>
  4046e6:	49 89 c5             	mov    %rax,%r13
  4046e9:	89 d8                	mov    %ebx,%eax
  4046eb:	c1 e8 08             	shr    $0x8,%eax
  4046ee:	83 e0 3f             	and    $0x3f,%eax
  4046f1:	48 8d 3c 85 40 a5 40 	lea    0x40a540(,%rax,4),%rdi
  4046f8:	00 
  4046f9:	c7 04 24 fc 00 00 00 	movl   $0xfc,(%rsp)
  404700:	be 40 a5 40 00       	mov    $0x40a540,%esi
  404705:	31 d2                	xor    %edx,%edx
  404707:	b9 40 00 00 00       	mov    $0x40,%ecx
  40470c:	45 31 c0             	xor    %r8d,%r8d
  40470f:	45 31 c9             	xor    %r9d,%r9d
  404712:	e8 19 d0 ff ff       	callq  401730 <uint64_t_secure_load_impl_onebase>
  404717:	49 89 c6             	mov    %rax,%r14
  40471a:	89 d8                	mov    %ebx,%eax
  40471c:	c1 e8 10             	shr    $0x10,%eax
  40471f:	83 e0 3f             	and    $0x3f,%eax
  404722:	48 8d 3c 85 40 a6 40 	lea    0x40a640(,%rax,4),%rdi
  404729:	00 
  40472a:	c7 04 24 fc 00 00 00 	movl   $0xfc,(%rsp)
  404731:	be 40 a6 40 00       	mov    $0x40a640,%esi
  404736:	31 d2                	xor    %edx,%edx
  404738:	b9 40 00 00 00       	mov    $0x40,%ecx
  40473d:	45 31 c0             	xor    %r8d,%r8d
  404740:	45 31 c9             	xor    %r9d,%r9d
  404743:	e8 e8 cf ff ff       	callq  401730 <uint64_t_secure_load_impl_onebase>
  404748:	48 89 c5             	mov    %rax,%rbp
  40474b:	c1 eb 18             	shr    $0x18,%ebx
  40474e:	83 e3 3f             	and    $0x3f,%ebx
  404751:	48 8d 3c 9d 40 a7 40 	lea    0x40a740(,%rbx,4),%rdi
  404758:	00 
  404759:	c7 04 24 fc 00 00 00 	movl   $0xfc,(%rsp)
  404760:	be 40 a7 40 00       	mov    $0x40a740,%esi
  404765:	31 d2                	xor    %edx,%edx
  404767:	b9 40 00 00 00       	mov    $0x40,%ecx
  40476c:	45 31 c0             	xor    %r8d,%r8d
  40476f:	45 31 c9             	xor    %r9d,%r9d
  404772:	e8 b9 cf ff ff       	callq  401730 <uint64_t_secure_load_impl_onebase>
  404777:	4d 31 ee             	xor    %r13,%r14
  40477a:	49 31 ee             	xor    %rbp,%r14
  40477d:	4d 31 e6             	xor    %r12,%r14
  404780:	49 31 c6             	xor    %rax,%r14
  404783:	c4 c3 7b f0 ee 04    	rorx   $0x4,%r14d,%ebp
  404789:	33 2d 29 c9 00 00    	xor    0xc929(%rip),%ebp        # 4110b8 <st+0x58>
  40478f:	89 e8                	mov    %ebp,%eax
  404791:	83 e0 3f             	and    $0x3f,%eax
  404794:	48 8d 3c 85 40 a0 40 	lea    0x40a040(,%rax,4),%rdi
  40479b:	00 
  40479c:	c7 04 24 fc 00 00 00 	movl   $0xfc,(%rsp)
  4047a3:	be 40 a0 40 00       	mov    $0x40a040,%esi
  4047a8:	31 d2                	xor    %edx,%edx
  4047aa:	b9 40 00 00 00       	mov    $0x40,%ecx
  4047af:	45 31 c0             	xor    %r8d,%r8d
  4047b2:	45 31 c9             	xor    %r9d,%r9d
  4047b5:	e8 76 cf ff ff       	callq  401730 <uint64_t_secure_load_impl_onebase>
  4047ba:	48 89 c3             	mov    %rax,%rbx
  4047bd:	89 e8                	mov    %ebp,%eax
  4047bf:	c1 e8 08             	shr    $0x8,%eax
  4047c2:	83 e0 3f             	and    $0x3f,%eax
  4047c5:	48 8d 3c 85 40 a1 40 	lea    0x40a140(,%rax,4),%rdi
  4047cc:	00 
  4047cd:	c7 04 24 fc 00 00 00 	movl   $0xfc,(%rsp)
  4047d4:	be 40 a1 40 00       	mov    $0x40a140,%esi
  4047d9:	31 d2                	xor    %edx,%edx
  4047db:	b9 40 00 00 00       	mov    $0x40,%ecx
  4047e0:	45 31 c0             	xor    %r8d,%r8d
  4047e3:	45 31 c9             	xor    %r9d,%r9d
  4047e6:	e8 45 cf ff ff       	callq  401730 <uint64_t_secure_load_impl_onebase>
  4047eb:	48 89 44 24 18       	mov    %rax,0x18(%rsp)
  4047f0:	89 e8                	mov    %ebp,%eax
  4047f2:	c1 e8 10             	shr    $0x10,%eax
  4047f5:	83 e0 3f             	and    $0x3f,%eax
  4047f8:	48 8d 3c 85 40 a2 40 	lea    0x40a240(,%rax,4),%rdi
  4047ff:	00 
  404800:	c7 04 24 fc 00 00 00 	movl   $0xfc,(%rsp)
  404807:	be 40 a2 40 00       	mov    $0x40a240,%esi
  40480c:	31 d2                	xor    %edx,%edx
  40480e:	b9 40 00 00 00       	mov    $0x40,%ecx
  404813:	45 31 c0             	xor    %r8d,%r8d
  404816:	45 31 c9             	xor    %r9d,%r9d
  404819:	e8 12 cf ff ff       	callq  401730 <uint64_t_secure_load_impl_onebase>
  40481e:	49 89 c5             	mov    %rax,%r13
  404821:	c1 ed 18             	shr    $0x18,%ebp
  404824:	83 e5 3f             	and    $0x3f,%ebp
  404827:	48 8d 3c ad 40 a3 40 	lea    0x40a340(,%rbp,4),%rdi
  40482e:	00 
  40482f:	c7 04 24 fc 00 00 00 	movl   $0xfc,(%rsp)
  404836:	be 40 a3 40 00       	mov    $0x40a340,%esi
  40483b:	31 d2                	xor    %edx,%edx
  40483d:	b9 40 00 00 00       	mov    $0x40,%ecx
  404842:	45 31 c0             	xor    %r8d,%r8d
  404845:	45 31 c9             	xor    %r9d,%r9d
  404848:	e8 e3 ce ff ff       	callq  401730 <uint64_t_secure_load_impl_onebase>
  40484d:	49 89 c4             	mov    %rax,%r12
  404850:	4c 31 fb             	xor    %r15,%rbx
  404853:	48 33 5c 24 18       	xor    0x18(%rsp),%rbx
  404858:	4d 31 ec             	xor    %r13,%r12
  40485b:	49 31 dc             	xor    %rbx,%r12
  40485e:	8b 1d 58 c8 00 00    	mov    0xc858(%rip),%ebx        # 4110bc <st+0x5c>
  404864:	44 31 f3             	xor    %r14d,%ebx
  404867:	89 d8                	mov    %ebx,%eax
  404869:	83 e0 3f             	and    $0x3f,%eax
  40486c:	48 8d 3c 85 40 a4 40 	lea    0x40a440(,%rax,4),%rdi
  404873:	00 
  404874:	c7 04 24 fc 00 00 00 	movl   $0xfc,(%rsp)
  40487b:	be 40 a4 40 00       	mov    $0x40a440,%esi
  404880:	31 d2                	xor    %edx,%edx
  404882:	b9 40 00 00 00       	mov    $0x40,%ecx
  404887:	45 31 c0             	xor    %r8d,%r8d
  40488a:	45 31 c9             	xor    %r9d,%r9d
  40488d:	e8 9e ce ff ff       	callq  401730 <uint64_t_secure_load_impl_onebase>
  404892:	49 89 c5             	mov    %rax,%r13
  404895:	89 d8                	mov    %ebx,%eax
  404897:	c1 e8 08             	shr    $0x8,%eax
  40489a:	83 e0 3f             	and    $0x3f,%eax
  40489d:	48 8d 3c 85 40 a5 40 	lea    0x40a540(,%rax,4),%rdi
  4048a4:	00 
  4048a5:	c7 04 24 fc 00 00 00 	movl   $0xfc,(%rsp)
  4048ac:	be 40 a5 40 00       	mov    $0x40a540,%esi
  4048b1:	31 d2                	xor    %edx,%edx
  4048b3:	b9 40 00 00 00       	mov    $0x40,%ecx
  4048b8:	45 31 c0             	xor    %r8d,%r8d
  4048bb:	45 31 c9             	xor    %r9d,%r9d
  4048be:	e8 6d ce ff ff       	callq  401730 <uint64_t_secure_load_impl_onebase>
  4048c3:	49 89 c7             	mov    %rax,%r15
  4048c6:	89 d8                	mov    %ebx,%eax
  4048c8:	c1 e8 10             	shr    $0x10,%eax
  4048cb:	83 e0 3f             	and    $0x3f,%eax
  4048ce:	48 8d 3c 85 40 a6 40 	lea    0x40a640(,%rax,4),%rdi
  4048d5:	00 
  4048d6:	c7 04 24 fc 00 00 00 	movl   $0xfc,(%rsp)
  4048dd:	be 40 a6 40 00       	mov    $0x40a640,%esi
  4048e2:	31 d2                	xor    %edx,%edx
  4048e4:	b9 40 00 00 00       	mov    $0x40,%ecx
  4048e9:	45 31 c0             	xor    %r8d,%r8d
  4048ec:	45 31 c9             	xor    %r9d,%r9d
  4048ef:	e8 3c ce ff ff       	callq  401730 <uint64_t_secure_load_impl_onebase>
  4048f4:	48 89 c5             	mov    %rax,%rbp
  4048f7:	c1 eb 18             	shr    $0x18,%ebx
  4048fa:	83 e3 3f             	and    $0x3f,%ebx
  4048fd:	48 8d 3c 9d 40 a7 40 	lea    0x40a740(,%rbx,4),%rdi
  404904:	00 
  404905:	c7 04 24 fc 00 00 00 	movl   $0xfc,(%rsp)
  40490c:	be 40 a7 40 00       	mov    $0x40a740,%esi
  404911:	31 d2                	xor    %edx,%edx
  404913:	b9 40 00 00 00       	mov    $0x40,%ecx
  404918:	45 31 c0             	xor    %r8d,%r8d
  40491b:	45 31 c9             	xor    %r9d,%r9d
  40491e:	e8 0d ce ff ff       	callq  401730 <uint64_t_secure_load_impl_onebase>
  404923:	4d 31 ef             	xor    %r13,%r15
  404926:	49 31 ef             	xor    %rbp,%r15
  404929:	4d 31 e7             	xor    %r12,%r15
  40492c:	49 31 c7             	xor    %rax,%r15
  40492f:	c4 c3 7b f0 ef 04    	rorx   $0x4,%r15d,%ebp
  404935:	33 2d 85 c7 00 00    	xor    0xc785(%rip),%ebp        # 4110c0 <st+0x60>
  40493b:	89 e8                	mov    %ebp,%eax
  40493d:	83 e0 3f             	and    $0x3f,%eax
  404940:	48 8d 3c 85 40 a0 40 	lea    0x40a040(,%rax,4),%rdi
  404947:	00 
  404948:	c7 04 24 fc 00 00 00 	movl   $0xfc,(%rsp)
  40494f:	be 40 a0 40 00       	mov    $0x40a040,%esi
  404954:	31 d2                	xor    %edx,%edx
  404956:	b9 40 00 00 00       	mov    $0x40,%ecx
  40495b:	45 31 c0             	xor    %r8d,%r8d
  40495e:	45 31 c9             	xor    %r9d,%r9d
  404961:	e8 ca cd ff ff       	callq  401730 <uint64_t_secure_load_impl_onebase>
  404966:	48 89 c3             	mov    %rax,%rbx
  404969:	89 e8                	mov    %ebp,%eax
  40496b:	c1 e8 08             	shr    $0x8,%eax
  40496e:	83 e0 3f             	and    $0x3f,%eax
  404971:	48 8d 3c 85 40 a1 40 	lea    0x40a140(,%rax,4),%rdi
  404978:	00 
  404979:	c7 04 24 fc 00 00 00 	movl   $0xfc,(%rsp)
  404980:	be 40 a1 40 00       	mov    $0x40a140,%esi
  404985:	31 d2                	xor    %edx,%edx
  404987:	b9 40 00 00 00       	mov    $0x40,%ecx
  40498c:	45 31 c0             	xor    %r8d,%r8d
  40498f:	45 31 c9             	xor    %r9d,%r9d
  404992:	e8 99 cd ff ff       	callq  401730 <uint64_t_secure_load_impl_onebase>
  404997:	48 89 44 24 18       	mov    %rax,0x18(%rsp)
  40499c:	89 e8                	mov    %ebp,%eax
  40499e:	c1 e8 10             	shr    $0x10,%eax
  4049a1:	83 e0 3f             	and    $0x3f,%eax
  4049a4:	48 8d 3c 85 40 a2 40 	lea    0x40a240(,%rax,4),%rdi
  4049ab:	00 
  4049ac:	c7 04 24 fc 00 00 00 	movl   $0xfc,(%rsp)
  4049b3:	be 40 a2 40 00       	mov    $0x40a240,%esi
  4049b8:	31 d2                	xor    %edx,%edx
  4049ba:	b9 40 00 00 00       	mov    $0x40,%ecx
  4049bf:	45 31 c0             	xor    %r8d,%r8d
  4049c2:	45 31 c9             	xor    %r9d,%r9d
  4049c5:	e8 66 cd ff ff       	callq  401730 <uint64_t_secure_load_impl_onebase>
  4049ca:	49 89 c5             	mov    %rax,%r13
  4049cd:	c1 ed 18             	shr    $0x18,%ebp
  4049d0:	83 e5 3f             	and    $0x3f,%ebp
  4049d3:	48 8d 3c ad 40 a3 40 	lea    0x40a340(,%rbp,4),%rdi
  4049da:	00 
  4049db:	c7 04 24 fc 00 00 00 	movl   $0xfc,(%rsp)
  4049e2:	be 40 a3 40 00       	mov    $0x40a340,%esi
  4049e7:	31 d2                	xor    %edx,%edx
  4049e9:	b9 40 00 00 00       	mov    $0x40,%ecx
  4049ee:	45 31 c0             	xor    %r8d,%r8d
  4049f1:	45 31 c9             	xor    %r9d,%r9d
  4049f4:	e8 37 cd ff ff       	callq  401730 <uint64_t_secure_load_impl_onebase>
  4049f9:	49 89 c4             	mov    %rax,%r12
  4049fc:	4c 31 f3             	xor    %r14,%rbx
  4049ff:	48 33 5c 24 18       	xor    0x18(%rsp),%rbx
  404a04:	4d 31 ec             	xor    %r13,%r12
  404a07:	49 31 dc             	xor    %rbx,%r12
  404a0a:	8b 1d b4 c6 00 00    	mov    0xc6b4(%rip),%ebx        # 4110c4 <st+0x64>
  404a10:	44 31 fb             	xor    %r15d,%ebx
  404a13:	89 d8                	mov    %ebx,%eax
  404a15:	83 e0 3f             	and    $0x3f,%eax
  404a18:	48 8d 3c 85 40 a4 40 	lea    0x40a440(,%rax,4),%rdi
  404a1f:	00 
  404a20:	c7 04 24 fc 00 00 00 	movl   $0xfc,(%rsp)
  404a27:	be 40 a4 40 00       	mov    $0x40a440,%esi
  404a2c:	31 d2                	xor    %edx,%edx
  404a2e:	b9 40 00 00 00       	mov    $0x40,%ecx
  404a33:	45 31 c0             	xor    %r8d,%r8d
  404a36:	45 31 c9             	xor    %r9d,%r9d
  404a39:	e8 f2 cc ff ff       	callq  401730 <uint64_t_secure_load_impl_onebase>
  404a3e:	49 89 c5             	mov    %rax,%r13
  404a41:	89 d8                	mov    %ebx,%eax
  404a43:	c1 e8 08             	shr    $0x8,%eax
  404a46:	83 e0 3f             	and    $0x3f,%eax
  404a49:	48 8d 3c 85 40 a5 40 	lea    0x40a540(,%rax,4),%rdi
  404a50:	00 
  404a51:	c7 04 24 fc 00 00 00 	movl   $0xfc,(%rsp)
  404a58:	be 40 a5 40 00       	mov    $0x40a540,%esi
  404a5d:	31 d2                	xor    %edx,%edx
  404a5f:	b9 40 00 00 00       	mov    $0x40,%ecx
  404a64:	45 31 c0             	xor    %r8d,%r8d
  404a67:	45 31 c9             	xor    %r9d,%r9d
  404a6a:	e8 c1 cc ff ff       	callq  401730 <uint64_t_secure_load_impl_onebase>
  404a6f:	49 89 c6             	mov    %rax,%r14
  404a72:	89 d8                	mov    %ebx,%eax
  404a74:	c1 e8 10             	shr    $0x10,%eax
  404a77:	83 e0 3f             	and    $0x3f,%eax
  404a7a:	48 8d 3c 85 40 a6 40 	lea    0x40a640(,%rax,4),%rdi
  404a81:	00 
  404a82:	c7 04 24 fc 00 00 00 	movl   $0xfc,(%rsp)
  404a89:	be 40 a6 40 00       	mov    $0x40a640,%esi
  404a8e:	31 d2                	xor    %edx,%edx
  404a90:	b9 40 00 00 00       	mov    $0x40,%ecx
  404a95:	45 31 c0             	xor    %r8d,%r8d
  404a98:	45 31 c9             	xor    %r9d,%r9d
  404a9b:	e8 90 cc ff ff       	callq  401730 <uint64_t_secure_load_impl_onebase>
  404aa0:	48 89 c5             	mov    %rax,%rbp
  404aa3:	c1 eb 18             	shr    $0x18,%ebx
  404aa6:	83 e3 3f             	and    $0x3f,%ebx
  404aa9:	48 8d 3c 9d 40 a7 40 	lea    0x40a740(,%rbx,4),%rdi
  404ab0:	00 
  404ab1:	c7 04 24 fc 00 00 00 	movl   $0xfc,(%rsp)
  404ab8:	be 40 a7 40 00       	mov    $0x40a740,%esi
  404abd:	31 d2                	xor    %edx,%edx
  404abf:	b9 40 00 00 00       	mov    $0x40,%ecx
  404ac4:	45 31 c0             	xor    %r8d,%r8d
  404ac7:	45 31 c9             	xor    %r9d,%r9d
  404aca:	e8 61 cc ff ff       	callq  401730 <uint64_t_secure_load_impl_onebase>
  404acf:	4d 31 ee             	xor    %r13,%r14
  404ad2:	49 31 ee             	xor    %rbp,%r14
  404ad5:	4d 31 e6             	xor    %r12,%r14
  404ad8:	49 31 c6             	xor    %rax,%r14
  404adb:	c4 c3 7b f0 ee 04    	rorx   $0x4,%r14d,%ebp
  404ae1:	33 2d e1 c5 00 00    	xor    0xc5e1(%rip),%ebp        # 4110c8 <st+0x68>
  404ae7:	89 e8                	mov    %ebp,%eax
  404ae9:	83 e0 3f             	and    $0x3f,%eax
  404aec:	48 8d 3c 85 40 a0 40 	lea    0x40a040(,%rax,4),%rdi
  404af3:	00 
  404af4:	c7 04 24 fc 00 00 00 	movl   $0xfc,(%rsp)
  404afb:	be 40 a0 40 00       	mov    $0x40a040,%esi
  404b00:	31 d2                	xor    %edx,%edx
  404b02:	b9 40 00 00 00       	mov    $0x40,%ecx
  404b07:	45 31 c0             	xor    %r8d,%r8d
  404b0a:	45 31 c9             	xor    %r9d,%r9d
  404b0d:	e8 1e cc ff ff       	callq  401730 <uint64_t_secure_load_impl_onebase>
  404b12:	48 89 c3             	mov    %rax,%rbx
  404b15:	89 e8                	mov    %ebp,%eax
  404b17:	c1 e8 08             	shr    $0x8,%eax
  404b1a:	83 e0 3f             	and    $0x3f,%eax
  404b1d:	48 8d 3c 85 40 a1 40 	lea    0x40a140(,%rax,4),%rdi
  404b24:	00 
  404b25:	c7 04 24 fc 00 00 00 	movl   $0xfc,(%rsp)
  404b2c:	be 40 a1 40 00       	mov    $0x40a140,%esi
  404b31:	31 d2                	xor    %edx,%edx
  404b33:	b9 40 00 00 00       	mov    $0x40,%ecx
  404b38:	45 31 c0             	xor    %r8d,%r8d
  404b3b:	45 31 c9             	xor    %r9d,%r9d
  404b3e:	e8 ed cb ff ff       	callq  401730 <uint64_t_secure_load_impl_onebase>
  404b43:	48 89 44 24 18       	mov    %rax,0x18(%rsp)
  404b48:	89 e8                	mov    %ebp,%eax
  404b4a:	c1 e8 10             	shr    $0x10,%eax
  404b4d:	83 e0 3f             	and    $0x3f,%eax
  404b50:	48 8d 3c 85 40 a2 40 	lea    0x40a240(,%rax,4),%rdi
  404b57:	00 
  404b58:	c7 04 24 fc 00 00 00 	movl   $0xfc,(%rsp)
  404b5f:	be 40 a2 40 00       	mov    $0x40a240,%esi
  404b64:	31 d2                	xor    %edx,%edx
  404b66:	b9 40 00 00 00       	mov    $0x40,%ecx
  404b6b:	45 31 c0             	xor    %r8d,%r8d
  404b6e:	45 31 c9             	xor    %r9d,%r9d
  404b71:	e8 ba cb ff ff       	callq  401730 <uint64_t_secure_load_impl_onebase>
  404b76:	49 89 c5             	mov    %rax,%r13
  404b79:	c1 ed 18             	shr    $0x18,%ebp
  404b7c:	83 e5 3f             	and    $0x3f,%ebp
  404b7f:	48 8d 3c ad 40 a3 40 	lea    0x40a340(,%rbp,4),%rdi
  404b86:	00 
  404b87:	c7 04 24 fc 00 00 00 	movl   $0xfc,(%rsp)
  404b8e:	be 40 a3 40 00       	mov    $0x40a340,%esi
  404b93:	31 d2                	xor    %edx,%edx
  404b95:	b9 40 00 00 00       	mov    $0x40,%ecx
  404b9a:	45 31 c0             	xor    %r8d,%r8d
  404b9d:	45 31 c9             	xor    %r9d,%r9d
  404ba0:	e8 8b cb ff ff       	callq  401730 <uint64_t_secure_load_impl_onebase>
  404ba5:	49 89 c4             	mov    %rax,%r12
  404ba8:	4c 31 fb             	xor    %r15,%rbx
  404bab:	48 33 5c 24 18       	xor    0x18(%rsp),%rbx
  404bb0:	4d 31 ec             	xor    %r13,%r12
  404bb3:	49 31 dc             	xor    %rbx,%r12
  404bb6:	8b 1d 10 c5 00 00    	mov    0xc510(%rip),%ebx        # 4110cc <st+0x6c>
  404bbc:	44 31 f3             	xor    %r14d,%ebx
  404bbf:	89 d8                	mov    %ebx,%eax
  404bc1:	83 e0 3f             	and    $0x3f,%eax
  404bc4:	48 8d 3c 85 40 a4 40 	lea    0x40a440(,%rax,4),%rdi
  404bcb:	00 
  404bcc:	c7 04 24 fc 00 00 00 	movl   $0xfc,(%rsp)
  404bd3:	be 40 a4 40 00       	mov    $0x40a440,%esi
  404bd8:	31 d2                	xor    %edx,%edx
  404bda:	b9 40 00 00 00       	mov    $0x40,%ecx
  404bdf:	45 31 c0             	xor    %r8d,%r8d
  404be2:	45 31 c9             	xor    %r9d,%r9d
  404be5:	e8 46 cb ff ff       	callq  401730 <uint64_t_secure_load_impl_onebase>
  404bea:	49 89 c5             	mov    %rax,%r13
  404bed:	89 d8                	mov    %ebx,%eax
  404bef:	c1 e8 08             	shr    $0x8,%eax
  404bf2:	83 e0 3f             	and    $0x3f,%eax
  404bf5:	48 8d 3c 85 40 a5 40 	lea    0x40a540(,%rax,4),%rdi
  404bfc:	00 
  404bfd:	c7 04 24 fc 00 00 00 	movl   $0xfc,(%rsp)
  404c04:	be 40 a5 40 00       	mov    $0x40a540,%esi
  404c09:	31 d2                	xor    %edx,%edx
  404c0b:	b9 40 00 00 00       	mov    $0x40,%ecx
  404c10:	45 31 c0             	xor    %r8d,%r8d
  404c13:	45 31 c9             	xor    %r9d,%r9d
  404c16:	e8 15 cb ff ff       	callq  401730 <uint64_t_secure_load_impl_onebase>
  404c1b:	49 89 c7             	mov    %rax,%r15
  404c1e:	89 d8                	mov    %ebx,%eax
  404c20:	c1 e8 10             	shr    $0x10,%eax
  404c23:	83 e0 3f             	and    $0x3f,%eax
  404c26:	48 8d 3c 85 40 a6 40 	lea    0x40a640(,%rax,4),%rdi
  404c2d:	00 
  404c2e:	c7 04 24 fc 00 00 00 	movl   $0xfc,(%rsp)
  404c35:	be 40 a6 40 00       	mov    $0x40a640,%esi
  404c3a:	31 d2                	xor    %edx,%edx
  404c3c:	b9 40 00 00 00       	mov    $0x40,%ecx
  404c41:	45 31 c0             	xor    %r8d,%r8d
  404c44:	45 31 c9             	xor    %r9d,%r9d
  404c47:	e8 e4 ca ff ff       	callq  401730 <uint64_t_secure_load_impl_onebase>
  404c4c:	48 89 c5             	mov    %rax,%rbp
  404c4f:	c1 eb 18             	shr    $0x18,%ebx
  404c52:	83 e3 3f             	and    $0x3f,%ebx
  404c55:	48 8d 3c 9d 40 a7 40 	lea    0x40a740(,%rbx,4),%rdi
  404c5c:	00 
  404c5d:	c7 04 24 fc 00 00 00 	movl   $0xfc,(%rsp)
  404c64:	be 40 a7 40 00       	mov    $0x40a740,%esi
  404c69:	31 d2                	xor    %edx,%edx
  404c6b:	b9 40 00 00 00       	mov    $0x40,%ecx
  404c70:	45 31 c0             	xor    %r8d,%r8d
  404c73:	45 31 c9             	xor    %r9d,%r9d
  404c76:	e8 b5 ca ff ff       	callq  401730 <uint64_t_secure_load_impl_onebase>
  404c7b:	4d 31 ef             	xor    %r13,%r15
  404c7e:	49 31 ef             	xor    %rbp,%r15
  404c81:	4d 31 e7             	xor    %r12,%r15
  404c84:	49 31 c7             	xor    %rax,%r15
  404c87:	c4 c3 7b f0 ef 04    	rorx   $0x4,%r15d,%ebp
  404c8d:	33 2d 3d c4 00 00    	xor    0xc43d(%rip),%ebp        # 4110d0 <st+0x70>
  404c93:	89 e8                	mov    %ebp,%eax
  404c95:	83 e0 3f             	and    $0x3f,%eax
  404c98:	48 8d 3c 85 40 a0 40 	lea    0x40a040(,%rax,4),%rdi
  404c9f:	00 
  404ca0:	c7 04 24 fc 00 00 00 	movl   $0xfc,(%rsp)
  404ca7:	be 40 a0 40 00       	mov    $0x40a040,%esi
  404cac:	31 d2                	xor    %edx,%edx
  404cae:	b9 40 00 00 00       	mov    $0x40,%ecx
  404cb3:	45 31 c0             	xor    %r8d,%r8d
  404cb6:	45 31 c9             	xor    %r9d,%r9d
  404cb9:	e8 72 ca ff ff       	callq  401730 <uint64_t_secure_load_impl_onebase>
  404cbe:	48 89 c3             	mov    %rax,%rbx
  404cc1:	89 e8                	mov    %ebp,%eax
  404cc3:	c1 e8 08             	shr    $0x8,%eax
  404cc6:	83 e0 3f             	and    $0x3f,%eax
  404cc9:	48 8d 3c 85 40 a1 40 	lea    0x40a140(,%rax,4),%rdi
  404cd0:	00 
  404cd1:	c7 04 24 fc 00 00 00 	movl   $0xfc,(%rsp)
  404cd8:	be 40 a1 40 00       	mov    $0x40a140,%esi
  404cdd:	31 d2                	xor    %edx,%edx
  404cdf:	b9 40 00 00 00       	mov    $0x40,%ecx
  404ce4:	45 31 c0             	xor    %r8d,%r8d
  404ce7:	45 31 c9             	xor    %r9d,%r9d
  404cea:	e8 41 ca ff ff       	callq  401730 <uint64_t_secure_load_impl_onebase>
  404cef:	48 89 44 24 18       	mov    %rax,0x18(%rsp)
  404cf4:	89 e8                	mov    %ebp,%eax
  404cf6:	c1 e8 10             	shr    $0x10,%eax
  404cf9:	83 e0 3f             	and    $0x3f,%eax
  404cfc:	48 8d 3c 85 40 a2 40 	lea    0x40a240(,%rax,4),%rdi
  404d03:	00 
  404d04:	c7 04 24 fc 00 00 00 	movl   $0xfc,(%rsp)
  404d0b:	be 40 a2 40 00       	mov    $0x40a240,%esi
  404d10:	31 d2                	xor    %edx,%edx
  404d12:	b9 40 00 00 00       	mov    $0x40,%ecx
  404d17:	45 31 c0             	xor    %r8d,%r8d
  404d1a:	45 31 c9             	xor    %r9d,%r9d
  404d1d:	e8 0e ca ff ff       	callq  401730 <uint64_t_secure_load_impl_onebase>
  404d22:	49 89 c5             	mov    %rax,%r13
  404d25:	c1 ed 18             	shr    $0x18,%ebp
  404d28:	83 e5 3f             	and    $0x3f,%ebp
  404d2b:	48 8d 3c ad 40 a3 40 	lea    0x40a340(,%rbp,4),%rdi
  404d32:	00 
  404d33:	c7 04 24 fc 00 00 00 	movl   $0xfc,(%rsp)
  404d3a:	be 40 a3 40 00       	mov    $0x40a340,%esi
  404d3f:	31 d2                	xor    %edx,%edx
  404d41:	b9 40 00 00 00       	mov    $0x40,%ecx
  404d46:	45 31 c0             	xor    %r8d,%r8d
  404d49:	45 31 c9             	xor    %r9d,%r9d
  404d4c:	e8 df c9 ff ff       	callq  401730 <uint64_t_secure_load_impl_onebase>
  404d51:	49 89 c4             	mov    %rax,%r12
  404d54:	4c 31 f3             	xor    %r14,%rbx
  404d57:	48 33 5c 24 18       	xor    0x18(%rsp),%rbx
  404d5c:	4d 31 ec             	xor    %r13,%r12
  404d5f:	49 31 dc             	xor    %rbx,%r12
  404d62:	8b 1d 6c c3 00 00    	mov    0xc36c(%rip),%ebx        # 4110d4 <st+0x74>
  404d68:	44 31 fb             	xor    %r15d,%ebx
  404d6b:	89 d8                	mov    %ebx,%eax
  404d6d:	83 e0 3f             	and    $0x3f,%eax
  404d70:	48 8d 3c 85 40 a4 40 	lea    0x40a440(,%rax,4),%rdi
  404d77:	00 
  404d78:	c7 04 24 fc 00 00 00 	movl   $0xfc,(%rsp)
  404d7f:	be 40 a4 40 00       	mov    $0x40a440,%esi
  404d84:	31 d2                	xor    %edx,%edx
  404d86:	b9 40 00 00 00       	mov    $0x40,%ecx
  404d8b:	45 31 c0             	xor    %r8d,%r8d
  404d8e:	45 31 c9             	xor    %r9d,%r9d
  404d91:	e8 9a c9 ff ff       	callq  401730 <uint64_t_secure_load_impl_onebase>
  404d96:	49 89 c6             	mov    %rax,%r14
  404d99:	89 d8                	mov    %ebx,%eax
  404d9b:	c1 e8 08             	shr    $0x8,%eax
  404d9e:	83 e0 3f             	and    $0x3f,%eax
  404da1:	48 8d 3c 85 40 a5 40 	lea    0x40a540(,%rax,4),%rdi
  404da8:	00 
  404da9:	c7 04 24 fc 00 00 00 	movl   $0xfc,(%rsp)
  404db0:	be 40 a5 40 00       	mov    $0x40a540,%esi
  404db5:	31 d2                	xor    %edx,%edx
  404db7:	b9 40 00 00 00       	mov    $0x40,%ecx
  404dbc:	45 31 c0             	xor    %r8d,%r8d
  404dbf:	45 31 c9             	xor    %r9d,%r9d
  404dc2:	e8 69 c9 ff ff       	callq  401730 <uint64_t_secure_load_impl_onebase>
  404dc7:	49 89 c5             	mov    %rax,%r13
  404dca:	89 d8                	mov    %ebx,%eax
  404dcc:	c1 e8 10             	shr    $0x10,%eax
  404dcf:	83 e0 3f             	and    $0x3f,%eax
  404dd2:	48 8d 3c 85 40 a6 40 	lea    0x40a640(,%rax,4),%rdi
  404dd9:	00 
  404dda:	c7 04 24 fc 00 00 00 	movl   $0xfc,(%rsp)
  404de1:	be 40 a6 40 00       	mov    $0x40a640,%esi
  404de6:	31 d2                	xor    %edx,%edx
  404de8:	b9 40 00 00 00       	mov    $0x40,%ecx
  404ded:	45 31 c0             	xor    %r8d,%r8d
  404df0:	45 31 c9             	xor    %r9d,%r9d
  404df3:	e8 38 c9 ff ff       	callq  401730 <uint64_t_secure_load_impl_onebase>
  404df8:	48 89 c5             	mov    %rax,%rbp
  404dfb:	c1 eb 18             	shr    $0x18,%ebx
  404dfe:	83 e3 3f             	and    $0x3f,%ebx
  404e01:	48 8d 3c 9d 40 a7 40 	lea    0x40a740(,%rbx,4),%rdi
  404e08:	00 
  404e09:	c7 04 24 fc 00 00 00 	movl   $0xfc,(%rsp)
  404e10:	be 40 a7 40 00       	mov    $0x40a740,%esi
  404e15:	31 d2                	xor    %edx,%edx
  404e17:	b9 40 00 00 00       	mov    $0x40,%ecx
  404e1c:	45 31 c0             	xor    %r8d,%r8d
  404e1f:	45 31 c9             	xor    %r9d,%r9d
  404e22:	e8 09 c9 ff ff       	callq  401730 <uint64_t_secure_load_impl_onebase>
  404e27:	4d 31 f5             	xor    %r14,%r13
  404e2a:	49 31 ed             	xor    %rbp,%r13
  404e2d:	4d 31 e5             	xor    %r12,%r13
  404e30:	49 31 c5             	xor    %rax,%r13
  404e33:	4c 89 6c 24 28       	mov    %r13,0x28(%rsp)
  404e38:	c4 c3 7b f0 ed 04    	rorx   $0x4,%r13d,%ebp
  404e3e:	33 2d 94 c2 00 00    	xor    0xc294(%rip),%ebp        # 4110d8 <st+0x78>
  404e44:	89 e8                	mov    %ebp,%eax
  404e46:	83 e0 3f             	and    $0x3f,%eax
  404e49:	48 8d 3c 85 40 a0 40 	lea    0x40a040(,%rax,4),%rdi
  404e50:	00 
  404e51:	c7 04 24 fc 00 00 00 	movl   $0xfc,(%rsp)
  404e58:	be 40 a0 40 00       	mov    $0x40a040,%esi
  404e5d:	31 d2                	xor    %edx,%edx
  404e5f:	b9 40 00 00 00       	mov    $0x40,%ecx
  404e64:	45 31 c0             	xor    %r8d,%r8d
  404e67:	45 31 c9             	xor    %r9d,%r9d
  404e6a:	e8 c1 c8 ff ff       	callq  401730 <uint64_t_secure_load_impl_onebase>
  404e6f:	48 89 c3             	mov    %rax,%rbx
  404e72:	89 e8                	mov    %ebp,%eax
  404e74:	c1 e8 08             	shr    $0x8,%eax
  404e77:	83 e0 3f             	and    $0x3f,%eax
  404e7a:	48 8d 3c 85 40 a1 40 	lea    0x40a140(,%rax,4),%rdi
  404e81:	00 
  404e82:	c7 04 24 fc 00 00 00 	movl   $0xfc,(%rsp)
  404e89:	be 40 a1 40 00       	mov    $0x40a140,%esi
  404e8e:	31 d2                	xor    %edx,%edx
  404e90:	b9 40 00 00 00       	mov    $0x40,%ecx
  404e95:	45 31 c0             	xor    %r8d,%r8d
  404e98:	45 31 c9             	xor    %r9d,%r9d
  404e9b:	e8 90 c8 ff ff       	callq  401730 <uint64_t_secure_load_impl_onebase>
  404ea0:	49 89 c4             	mov    %rax,%r12
  404ea3:	89 e8                	mov    %ebp,%eax
  404ea5:	c1 e8 10             	shr    $0x10,%eax
  404ea8:	83 e0 3f             	and    $0x3f,%eax
  404eab:	48 8d 3c 85 40 a2 40 	lea    0x40a240(,%rax,4),%rdi
  404eb2:	00 
  404eb3:	c7 04 24 fc 00 00 00 	movl   $0xfc,(%rsp)
  404eba:	be 40 a2 40 00       	mov    $0x40a240,%esi
  404ebf:	31 d2                	xor    %edx,%edx
  404ec1:	b9 40 00 00 00       	mov    $0x40,%ecx
  404ec6:	45 31 c0             	xor    %r8d,%r8d
  404ec9:	45 31 c9             	xor    %r9d,%r9d
  404ecc:	e8 5f c8 ff ff       	callq  401730 <uint64_t_secure_load_impl_onebase>
  404ed1:	49 89 c5             	mov    %rax,%r13
  404ed4:	c1 ed 18             	shr    $0x18,%ebp
  404ed7:	83 e5 3f             	and    $0x3f,%ebp
  404eda:	48 8d 3c ad 40 a3 40 	lea    0x40a340(,%rbp,4),%rdi
  404ee1:	00 
  404ee2:	c7 04 24 fc 00 00 00 	movl   $0xfc,(%rsp)
  404ee9:	be 40 a3 40 00       	mov    $0x40a340,%esi
  404eee:	31 d2                	xor    %edx,%edx
  404ef0:	b9 40 00 00 00       	mov    $0x40,%ecx
  404ef5:	45 31 c0             	xor    %r8d,%r8d
  404ef8:	45 31 c9             	xor    %r9d,%r9d
  404efb:	e8 30 c8 ff ff       	callq  401730 <uint64_t_secure_load_impl_onebase>
  404f00:	49 89 c6             	mov    %rax,%r14
  404f03:	4c 31 fb             	xor    %r15,%rbx
  404f06:	4c 31 e3             	xor    %r12,%rbx
  404f09:	4d 31 ee             	xor    %r13,%r14
  404f0c:	49 31 de             	xor    %rbx,%r14
  404f0f:	8b 2d c7 c1 00 00    	mov    0xc1c7(%rip),%ebp        # 4110dc <st+0x7c>
  404f15:	4c 8b 6c 24 28       	mov    0x28(%rsp),%r13
  404f1a:	44 31 ed             	xor    %r13d,%ebp
  404f1d:	89 e8                	mov    %ebp,%eax
  404f1f:	83 e0 3f             	and    $0x3f,%eax
  404f22:	48 8d 3c 85 40 a4 40 	lea    0x40a440(,%rax,4),%rdi
  404f29:	00 
  404f2a:	c7 04 24 fc 00 00 00 	movl   $0xfc,(%rsp)
  404f31:	be 40 a4 40 00       	mov    $0x40a440,%esi
  404f36:	31 d2                	xor    %edx,%edx
  404f38:	b9 40 00 00 00       	mov    $0x40,%ecx
  404f3d:	45 31 c0             	xor    %r8d,%r8d
  404f40:	45 31 c9             	xor    %r9d,%r9d
  404f43:	e8 e8 c7 ff ff       	callq  401730 <uint64_t_secure_load_impl_onebase>
  404f48:	49 89 c7             	mov    %rax,%r15
  404f4b:	89 e8                	mov    %ebp,%eax
  404f4d:	c1 e8 08             	shr    $0x8,%eax
  404f50:	83 e0 3f             	and    $0x3f,%eax
  404f53:	48 8d 3c 85 40 a5 40 	lea    0x40a540(,%rax,4),%rdi
  404f5a:	00 
  404f5b:	c7 04 24 fc 00 00 00 	movl   $0xfc,(%rsp)
  404f62:	be 40 a5 40 00       	mov    $0x40a540,%esi
  404f67:	31 d2                	xor    %edx,%edx
  404f69:	b9 40 00 00 00       	mov    $0x40,%ecx
  404f6e:	45 31 c0             	xor    %r8d,%r8d
  404f71:	45 31 c9             	xor    %r9d,%r9d
  404f74:	e8 b7 c7 ff ff       	callq  401730 <uint64_t_secure_load_impl_onebase>
  404f79:	48 89 c3             	mov    %rax,%rbx
  404f7c:	89 e8                	mov    %ebp,%eax
  404f7e:	c1 e8 10             	shr    $0x10,%eax
  404f81:	83 e0 3f             	and    $0x3f,%eax
  404f84:	48 8d 3c 85 40 a6 40 	lea    0x40a640(,%rax,4),%rdi
  404f8b:	00 
  404f8c:	c7 04 24 fc 00 00 00 	movl   $0xfc,(%rsp)
  404f93:	be 40 a6 40 00       	mov    $0x40a640,%esi
  404f98:	31 d2                	xor    %edx,%edx
  404f9a:	b9 40 00 00 00       	mov    $0x40,%ecx
  404f9f:	45 31 c0             	xor    %r8d,%r8d
  404fa2:	45 31 c9             	xor    %r9d,%r9d
  404fa5:	e8 86 c7 ff ff       	callq  401730 <uint64_t_secure_load_impl_onebase>
  404faa:	49 89 c4             	mov    %rax,%r12
  404fad:	c1 ed 18             	shr    $0x18,%ebp
  404fb0:	83 e5 3f             	and    $0x3f,%ebp
  404fb3:	48 8d 3c ad 40 a7 40 	lea    0x40a740(,%rbp,4),%rdi
  404fba:	00 
  404fbb:	c7 04 24 fc 00 00 00 	movl   $0xfc,(%rsp)
  404fc2:	be 40 a7 40 00       	mov    $0x40a740,%esi
  404fc7:	31 d2                	xor    %edx,%edx
  404fc9:	b9 40 00 00 00       	mov    $0x40,%ecx
  404fce:	45 31 c0             	xor    %r8d,%r8d
  404fd1:	45 31 c9             	xor    %r9d,%r9d
  404fd4:	e8 57 c7 ff ff       	callq  401730 <uint64_t_secure_load_impl_onebase>
  404fd9:	4c 31 fb             	xor    %r15,%rbx
  404fdc:	4c 31 e3             	xor    %r12,%rbx
  404fdf:	4c 31 f3             	xor    %r14,%rbx
  404fe2:	48 31 c3             	xor    %rax,%rbx
  404fe5:	48 89 dd             	mov    %rbx,%rbp
  404fe8:	4c 89 eb             	mov    %r13,%rbx
  404feb:	0f b6 c3             	movzbl %bl,%eax
  404fee:	48 8d 3c c5 40 a8 40 	lea    0x40a840(,%rax,8),%rdi
  404ff5:	00 
  404ff6:	c7 04 24 f8 07 00 00 	movl   $0x7f8,(%rsp)
  404ffd:	be 40 a8 40 00       	mov    $0x40a840,%esi
  405002:	31 d2                	xor    %edx,%edx
  405004:	b9 00 01 00 00       	mov    $0x100,%ecx
  405009:	45 31 c0             	xor    %r8d,%r8d
  40500c:	45 31 c9             	xor    %r9d,%r9d
  40500f:	e8 1c c7 ff ff       	callq  401730 <uint64_t_secure_load_impl_onebase>
  405014:	48 89 44 24 18       	mov    %rax,0x18(%rsp)
  405019:	0f b6 c7             	movzbl %bh,%eax
  40501c:	48 8d 3c c5 40 b0 40 	lea    0x40b040(,%rax,8),%rdi
  405023:	00 
  405024:	c7 04 24 f8 0f 00 00 	movl   $0xff8,(%rsp)
  40502b:	be 40 a8 40 00       	mov    $0x40a840,%esi
  405030:	31 d2                	xor    %edx,%edx
  405032:	b9 00 01 00 00       	mov    $0x100,%ecx
  405037:	45 31 c0             	xor    %r8d,%r8d
  40503a:	41 b9 00 08 00 00    	mov    $0x800,%r9d
  405040:	e8 eb c6 ff ff       	callq  401730 <uint64_t_secure_load_impl_onebase>
  405045:	49 89 c7             	mov    %rax,%r15
  405048:	4c 89 e8             	mov    %r13,%rax
  40504b:	48 c1 e8 0d          	shr    $0xd,%rax
  40504f:	25 f8 07 00 00       	and    $0x7f8,%eax
  405054:	48 8d b8 40 b8 40 00 	lea    0x40b840(%rax),%rdi
  40505b:	c7 04 24 f8 17 00 00 	movl   $0x17f8,(%rsp)
  405062:	be 40 a8 40 00       	mov    $0x40a840,%esi
  405067:	31 d2                	xor    %edx,%edx
  405069:	b9 00 01 00 00       	mov    $0x100,%ecx
  40506e:	45 31 c0             	xor    %r8d,%r8d
  405071:	41 b9 00 10 00 00    	mov    $0x1000,%r9d
  405077:	e8 b4 c6 ff ff       	callq  401730 <uint64_t_secure_load_impl_onebase>
  40507c:	48 89 44 24 30       	mov    %rax,0x30(%rsp)
  405081:	48 c1 eb 15          	shr    $0x15,%rbx
  405085:	81 e3 f8 07 00 00    	and    $0x7f8,%ebx
  40508b:	48 8d bb 40 c0 40 00 	lea    0x40c040(%rbx),%rdi
  405092:	c7 04 24 f8 1f 00 00 	movl   $0x1ff8,(%rsp)
  405099:	be 40 a8 40 00       	mov    $0x40a840,%esi
  40509e:	31 d2                	xor    %edx,%edx
  4050a0:	b9 00 01 00 00       	mov    $0x100,%ecx
  4050a5:	45 31 c0             	xor    %r8d,%r8d
  4050a8:	41 b9 00 18 00 00    	mov    $0x1800,%r9d
  4050ae:	e8 7d c6 ff ff       	callq  401730 <uint64_t_secure_load_impl_onebase>
  4050b3:	49 89 c5             	mov    %rax,%r13
  4050b6:	48 89 eb             	mov    %rbp,%rbx
  4050b9:	0f b6 c3             	movzbl %bl,%eax
  4050bc:	48 8d 3c c5 40 c8 40 	lea    0x40c840(,%rax,8),%rdi
  4050c3:	00 
  4050c4:	c7 04 24 f8 27 00 00 	movl   $0x27f8,(%rsp)
  4050cb:	be 40 a8 40 00       	mov    $0x40a840,%esi
  4050d0:	31 d2                	xor    %edx,%edx
  4050d2:	b9 00 01 00 00       	mov    $0x100,%ecx
  4050d7:	45 31 c0             	xor    %r8d,%r8d
  4050da:	41 b9 00 20 00 00    	mov    $0x2000,%r9d
  4050e0:	e8 4b c6 ff ff       	callq  401730 <uint64_t_secure_load_impl_onebase>
  4050e5:	48 89 c5             	mov    %rax,%rbp
  4050e8:	0f b6 c7             	movzbl %bh,%eax
  4050eb:	48 8d 3c c5 40 d0 40 	lea    0x40d040(,%rax,8),%rdi
  4050f2:	00 
  4050f3:	c7 04 24 f8 2f 00 00 	movl   $0x2ff8,(%rsp)
  4050fa:	be 40 a8 40 00       	mov    $0x40a840,%esi
  4050ff:	31 d2                	xor    %edx,%edx
  405101:	b9 00 01 00 00       	mov    $0x100,%ecx
  405106:	45 31 c0             	xor    %r8d,%r8d
  405109:	41 b9 00 28 00 00    	mov    $0x2800,%r9d
  40510f:	e8 1c c6 ff ff       	callq  401730 <uint64_t_secure_load_impl_onebase>
  405114:	49 89 c6             	mov    %rax,%r14
  405117:	48 89 d8             	mov    %rbx,%rax
  40511a:	48 c1 e8 0d          	shr    $0xd,%rax
  40511e:	25 f8 07 00 00       	and    $0x7f8,%eax
  405123:	48 8d b8 40 d8 40 00 	lea    0x40d840(%rax),%rdi
  40512a:	c7 04 24 f8 37 00 00 	movl   $0x37f8,(%rsp)
  405131:	be 40 a8 40 00       	mov    $0x40a840,%esi
  405136:	31 d2                	xor    %edx,%edx
  405138:	b9 00 01 00 00       	mov    $0x100,%ecx
  40513d:	45 31 c0             	xor    %r8d,%r8d
  405140:	41 b9 00 30 00 00    	mov    $0x3000,%r9d
  405146:	e8 e5 c5 ff ff       	callq  401730 <uint64_t_secure_load_impl_onebase>
  40514b:	49 89 c4             	mov    %rax,%r12
  40514e:	48 89 d8             	mov    %rbx,%rax
  405151:	48 c1 e8 15          	shr    $0x15,%rax
  405155:	25 f8 07 00 00       	and    $0x7f8,%eax
  40515a:	48 8d b8 40 e0 40 00 	lea    0x40e040(%rax),%rdi
  405161:	c7 04 24 f8 3f 00 00 	movl   $0x3ff8,(%rsp)
  405168:	be 40 a8 40 00       	mov    $0x40a840,%esi
  40516d:	31 d2                	xor    %edx,%edx
  40516f:	b9 00 01 00 00       	mov    $0x100,%ecx
  405174:	45 31 c0             	xor    %r8d,%r8d
  405177:	41 b9 00 38 00 00    	mov    $0x3800,%r9d
  40517d:	e8 ae c5 ff ff       	callq  401730 <uint64_t_secure_load_impl_onebase>
  405182:	4c 33 7c 24 18       	xor    0x18(%rsp),%r15
  405187:	4c 33 7c 24 30       	xor    0x30(%rsp),%r15
  40518c:	4d 31 ef             	xor    %r13,%r15
  40518f:	49 31 ef             	xor    %rbp,%r15
  405192:	4d 31 f7             	xor    %r14,%r15
  405195:	4c 31 e0             	xor    %r12,%rax
  405198:	4c 31 f8             	xor    %r15,%rax
  40519b:	48 89 44 24 20       	mov    %rax,0x20(%rsp)
  4051a0:	48 8d 74 24 20       	lea    0x20(%rsp),%rsi
  4051a5:	ba 08 00 00 00       	mov    $0x8,%edx
  4051aa:	bf 01 00 00 00       	mov    $0x1,%edi
  4051af:	e8 7c be ff ff       	callq  401030 <write@plt>
  4051b4:	be 68 13 41 00       	mov    $0x411368,%esi
  4051b9:	ba 08 00 00 00       	mov    $0x8,%edx
  4051be:	bf 01 00 00 00       	mov    $0x1,%edi
  4051c3:	e8 68 be ff ff       	callq  401030 <write@plt>
  4051c8:	31 c0                	xor    %eax,%eax
  4051ca:	48 83 c4 38          	add    $0x38,%rsp
  4051ce:	5b                   	pop    %rbx
  4051cf:	41 5c                	pop    %r12
  4051d1:	41 5d                	pop    %r13
  4051d3:	41 5e                	pop    %r14
  4051d5:	41 5f                	pop    %r15
  4051d7:	5d                   	pop    %rbp
  4051d8:	c3                   	retq   
  4051d9:	0f 1f 80 00 00 00 00 	nopl   0x0(%rax)

00000000004051e0 <__libc_csu_init>:
  4051e0:	f3 0f 1e fa          	endbr64 
  4051e4:	41 57                	push   %r15
  4051e6:	4c 8d 3d 23 bc 00 00 	lea    0xbc23(%rip),%r15        # 410e10 <__frame_dummy_init_array_entry>
  4051ed:	41 56                	push   %r14
  4051ef:	49 89 d6             	mov    %rdx,%r14
  4051f2:	41 55                	push   %r13
  4051f4:	49 89 f5             	mov    %rsi,%r13
  4051f7:	41 54                	push   %r12
  4051f9:	41 89 fc             	mov    %edi,%r12d
  4051fc:	55                   	push   %rbp
  4051fd:	48 8d 2d 14 bc 00 00 	lea    0xbc14(%rip),%rbp        # 410e18 <__do_global_dtors_aux_fini_array_entry>
  405204:	53                   	push   %rbx
  405205:	4c 29 fd             	sub    %r15,%rbp
  405208:	48 83 ec 08          	sub    $0x8,%rsp
  40520c:	e8 ef bd ff ff       	callq  401000 <_init>
  405211:	48 c1 fd 03          	sar    $0x3,%rbp
  405215:	74 1f                	je     405236 <__libc_csu_init+0x56>
  405217:	31 db                	xor    %ebx,%ebx
  405219:	0f 1f 80 00 00 00 00 	nopl   0x0(%rax)
  405220:	4c 89 f2             	mov    %r14,%rdx
  405223:	4c 89 ee             	mov    %r13,%rsi
  405226:	44 89 e7             	mov    %r12d,%edi
  405229:	41 ff 14 df          	callq  *(%r15,%rbx,8)
  40522d:	48 83 c3 01          	add    $0x1,%rbx
  405231:	48 39 dd             	cmp    %rbx,%rbp
  405234:	75 ea                	jne    405220 <__libc_csu_init+0x40>
  405236:	48 83 c4 08          	add    $0x8,%rsp
  40523a:	5b                   	pop    %rbx
  40523b:	5d                   	pop    %rbp
  40523c:	41 5c                	pop    %r12
  40523e:	41 5d                	pop    %r13
  405240:	41 5e                	pop    %r14
  405242:	41 5f                	pop    %r15
  405244:	c3                   	retq   
  405245:	66 66 2e 0f 1f 84 00 	data16 nopw %cs:0x0(%rax,%rax,1)
  40524c:	00 00 00 00 

0000000000405250 <__libc_csu_fini>:
  405250:	f3 0f 1e fa          	endbr64 
  405254:	c3                   	retq   

Disassembly of section .fini:

0000000000405258 <_fini>:
  405258:	f3 0f 1e fa          	endbr64 
  40525c:	48 83 ec 08          	sub    $0x8,%rsp
  405260:	48 83 c4 08          	add    $0x8,%rsp
  405264:	c3                   	retq   
